

HI-TECH Software PIC LITE Macro Assembler V9.83 build 10920 
                                                                                               Sun Aug 30 14:54:44 2015

HI-TECH Software Omniscient Code Generator (Lite mode) build 10920
     1  0000                     opt subtitle "HI-TECH Software Omniscient Code Generator (Lite mode) build 10920"
     2                           
     3                           opt pagewidth 120
     4                           
     5                           	opt lm
     6                           
     7                           	processor	16F877A
     8                           clrc	macro
     9                           	bcf	3,0
    10  0000                     	endm
    11                           clrz	macro
    12                           	bcf	3,2
    13  0000                     	endm
    14                           setc	macro
    15                           	bsf	3,0
    16  0000                     	endm
    17                           setz	macro
    18                           	bsf	3,2
    19  0000                     	endm
    20                           skipc	macro
    21                           	btfss	3,0
    22  0000                     	endm
    23                           skipz	macro
    24                           	btfss	3,2
    25  0000                     	endm
    26                           skipnc	macro
    27                           	btfsc	3,0
    28  0000                     	endm
    29                           skipnz	macro
    30                           	btfsc	3,2
    31  0000                     	endm
    32  0000                     indf	equ	0
    33  0000                     indf0	equ	0
    34  0002                     pc	equ	2
    35  0002                     pcl	equ	2
    36  0003                     status	equ	3
    37  0004                     fsr	equ	4
    38  0004                     fsr0	equ	4
    39  0001                     c	equ	1
    40  0000                     z	equ	0
    41  000A                     pclath	equ	10
    42                           	FNCALL	_main,_InterruptEn
    43                           	FNCALL	_main,_a2d_read
    44                           	FNCALL	_main,___ltdiv
    45                           	FNCALL	_main,___ltmod
    46                           	FNCALL	_main,_KeySend
    47                           	FNCALL	_main,_MouseSendLC
    48                           	FNCALL	_main,_MouseSendRC
    49                           	FNCALL	_a2d_read,_read_a2d_value
    50                           	FNROOT	_main
    51                           	FNCALL	intlevel1,_isr
    52                           	global	intlevel1
    53                           	FNROOT	intlevel1
    54                           	global	_vblAccX
    55                           	global	_vblAccY
    56                           	global	_counter
    57                           	global	_prevChar
    58                           	global	_hour
    59                           	global	_minute
    60                           	global	_msecond
    61                           	global	_second
    62                           	global	_CAPSLOCK
    63                           	global	_MOUSE_SELECT
    64                           	global	_nop
    65                           	global	_ADCON0
    66                           psect	text375,local,class=CODE,delta=2
    67                           global __ptext375
    68  0000                     __ptext375:
    69  001F                     _ADCON0	set	31
    70                           	global	_ADRESH
    71  001E                     _ADRESH	set	30
    72                           	global	_PORTC
    73  0007                     _PORTC	set	7
    74                           	global	_TMR1H
    75  000F                     _TMR1H	set	15
    76                           	global	_TMR1L
    77  000E                     _TMR1L	set	14
    78                           	global	_TXREG
    79  0019                     _TXREG	set	25
    80                           	global	_ADON
    81  00F8                     _ADON	set	248
    82                           	global	_CARRY
    83  0018                     _CARRY	set	24
    84                           	global	_CREN
    85  00C4                     _CREN	set	196
    86                           	global	_GIE
    87  005F                     _GIE	set	95
    88                           	global	_GO
    89  00FA                     _GO	set	250
    90                           	global	_INTE
    91  005C                     _INTE	set	92
    92                           	global	_PEIE
    93  005E                     _PEIE	set	94
    94                           	global	_RB0
    95  0030                     _RB0	set	48
    96                           	global	_RB1
    97  0031                     _RB1	set	49
    98                           	global	_RB2
    99  0032                     _RB2	set	50
   100                           	global	_RB3
   101  0033                     _RB3	set	51
   102                           	global	_RB4
   103  0034                     _RB4	set	52
   104                           	global	_RB5
   105  0035                     _RB5	set	53
   106                           	global	_RBIE
   107  005B                     _RBIE	set	91
   108                           	global	_RC0
   109  0038                     _RC0	set	56
   110                           	global	_RC1
   111  0039                     _RC1	set	57
   112                           	global	_RC2
   113  003A                     _RC2	set	58
   114                           	global	_RC3
   115  003B                     _RC3	set	59
   116                           	global	_RC4
   117  003C                     _RC4	set	60
   118                           	global	_RC5
   119  003D                     _RC5	set	61
   120                           	global	_RD3
   121  0043                     _RD3	set	67
   122                           	global	_RD4
   123  0044                     _RD4	set	68
   124                           	global	_RD5
   125  0045                     _RD5	set	69
   126                           	global	_RD6
   127  0046                     _RD6	set	70
   128                           	global	_RX9
   129  00C6                     _RX9	set	198
   130                           	global	_SPEN
   131  00C7                     _SPEN	set	199
   132                           	global	_T0IE
   133  005D                     _T0IE	set	93
   134                           	global	_T1CKPS0
   135  0084                     _T1CKPS0	set	132
   136                           	global	_T1CKPS1
   137  0085                     _T1CKPS1	set	133
   138                           	global	_T1OSCEN
   139  0083                     _T1OSCEN	set	131
   140                           	global	_TMR1CS
   141  0081                     _TMR1CS	set	129
   142                           	global	_TMR1IF
   143  0060                     _TMR1IF	set	96
   144                           	global	_TMR1ON
   145  0080                     _TMR1ON	set	128
   146                           	global	_TXIF
   147  0064                     _TXIF	set	100
   148                           	global	_ADCON1
   149  009F                     _ADCON1	set	159
   150                           	global	_ADRESL
   151  009E                     _ADRESL	set	158
   152                           	global	_SPBRG
   153  0099                     _SPBRG	set	153
   154                           	global	_TRISA
   155  0085                     _TRISA	set	133
   156                           	global	_TRISB
   157  0086                     _TRISB	set	134
   158                           	global	_TRISC
   159  0087                     _TRISC	set	135
   160                           	global	_TRISD
   161  0088                     _TRISD	set	136
   162                           	global	_TRISE
   163  0089                     _TRISE	set	137
   164                           	global	_ADIE
   165  0466                     _ADIE	set	1126
   166                           	global	_BCLIE
   167  046B                     _BCLIE	set	1131
   168                           	global	_BRGH
   169  04C2                     _BRGH	set	1218
   170                           	global	_CCP1IE
   171  0462                     _CCP1IE	set	1122
   172                           	global	_CCP2IE
   173  0468                     _CCP2IE	set	1128
   174                           	global	_EEIE
   175  046C                     _EEIE	set	1132
   176                           	global	_PSPIE
   177  0467                     _PSPIE	set	1127
   178                           	global	_RCIE
   179  0465                     _RCIE	set	1125
   180                           	global	_SSPIE
   181  0463                     _SSPIE	set	1123
   182                           	global	_SYNC
   183  04C4                     _SYNC	set	1220
   184                           	global	_TMR1IE
   185  0460                     _TMR1IE	set	1120
   186                           	global	_TMR2IE
   187  0461                     _TMR2IE	set	1121
   188                           	global	_TX9
   189  04C6                     _TX9	set	1222
   190                           	global	_TXEN
   191  04C5                     _TXEN	set	1221
   192                           	global	_TXIE
   193  0464                     _TXIE	set	1124
   194                           	global	_EEADR
   195  010D                     _EEADR	set	269
   196                           	global	_EEDATA
   197  010C                     _EEDATA	set	268
   198                           	global	_EECON1
   199  018C                     _EECON1	set	396
   200                           	global	_EECON2
   201  018D                     _EECON2	set	397
   202                           	global	_RD
   203  0C60                     _RD	set	3168
   204                           	global	_WR
   205  0C61                     _WR	set	3169
   206                           	global	_WREN
   207  0C62                     _WREN	set	3170
   208                           	global	_OPTION_REG
   209  0081                     _OPTION_REG	set	129
   210                           	file	"HT.as"
   211                           	line	#
   212                           psect cinit,class=CODE,delta=2
   213                           global start_initialization
   214  1E81                     start_initialization:
   215                           
   216                           psect	bitbssCOMMON,class=COMMON,bit,space=1
   217                           global __pbitbssCOMMON
   218  03C8                     __pbitbssCOMMON:
   219  03C8                     _CAPSLOCK:
   220  03C8                            ds      1
   221                           
   222  03C9                     _MOUSE_SELECT:
   223  03C9                            ds      1
   224                           
   225  03CA                     _nop:
   226  03CA                            ds      1
   227                           
   228                           psect	bssCOMMON,class=COMMON,space=1
   229                           global __pbssCOMMON
   230  0075                     __pbssCOMMON:
   231  0075                     _hour:
   232  0075                            ds      1
   233                           
   234  0076                     _minute:
   235  0076                            ds      1
   236                           
   237  0077                     _msecond:
   238  0077                            ds      1
   239                           
   240  0078                     _second:
   241  0078                            ds      1
   242                           
   243                           psect	bssBANK0,class=BANK0,space=1
   244                           global __pbssBANK0
   245  0039                     __pbssBANK0:
   246  0039                     _vblAccX:
   247  0039                            ds      3
   248                           
   249  003C                     _vblAccY:
   250  003C                            ds      3
   251                           
   252  003F                     _counter:
   253  003F                            ds      2
   254                           
   255  0041                     _prevChar:
   256  0041                            ds      1
   257                           
   258                           ; Clear objects allocated to BITCOMMON
   259                           psect cinit,class=CODE,delta=2
   260  1E81  01F9               	clrf	((__pbitbssCOMMON/8)+0)&07Fh
   261                           ; Clear objects allocated to COMMON
   262                           psect cinit,class=CODE,delta=2
   263  1E82  01F5               	clrf	((__pbssCOMMON)+0)&07Fh
   264  1E83  01F6               	clrf	((__pbssCOMMON)+1)&07Fh
   265  1E84  01F7               	clrf	((__pbssCOMMON)+2)&07Fh
   266  1E85  01F8               	clrf	((__pbssCOMMON)+3)&07Fh
   267                           ; Clear objects allocated to BANK0
   268                           psect cinit,class=CODE,delta=2
   269  1E86  01B9               	clrf	((__pbssBANK0)+0)&07Fh
   270  1E87  01BA               	clrf	((__pbssBANK0)+1)&07Fh
   271  1E88  01BB               	clrf	((__pbssBANK0)+2)&07Fh
   272  1E89  01BC               	clrf	((__pbssBANK0)+3)&07Fh
   273  1E8A  01BD               	clrf	((__pbssBANK0)+4)&07Fh
   274  1E8B  01BE               	clrf	((__pbssBANK0)+5)&07Fh
   275  1E8C  01BF               	clrf	((__pbssBANK0)+6)&07Fh
   276  1E8D  01C0               	clrf	((__pbssBANK0)+7)&07Fh
   277  1E8E  01C1               	clrf	((__pbssBANK0)+8)&07Fh
   278                           psect cinit,class=CODE,delta=2
   279                           global end_of_initialization
   280                           
   281                           ;End of C runtime variable initialization code
   282                           
   283  1E8F                     end_of_initialization:
   284  1E8F  0183               clrf status
   285  1E90  160A  118A  29BF   ljmp _main	;jump to C main() function
   286                           psect	cstackCOMMON,class=COMMON,space=1
   287                           global __pcstackCOMMON
   288  0070                     __pcstackCOMMON:
   289                           	global	?_InterruptEn
   290  0070                     ?_InterruptEn:	; 0 bytes @ 0x0
   291                           	global	?_a2d_read
   292  0070                     ?_a2d_read:	; 0 bytes @ 0x0
   293                           	global	?_KeySend
   294  0070                     ?_KeySend:	; 0 bytes @ 0x0
   295                           	global	?_MouseSendLC
   296  0070                     ?_MouseSendLC:	; 0 bytes @ 0x0
   297                           	global	?_MouseSendRC
   298  0070                     ?_MouseSendRC:	; 0 bytes @ 0x0
   299                           	global	?_main
   300  0070                     ?_main:	; 0 bytes @ 0x0
   301                           	global	?_isr
   302  0070                     ?_isr:	; 0 bytes @ 0x0
   303                           	global	??_isr
   304  0070                     ??_isr:	; 0 bytes @ 0x0
   305  0070                     	ds	5
   306                           psect	cstackBANK0,class=BANK0,space=1
   307                           global __pcstackBANK0
   308  0020                     __pcstackBANK0:
   309                           	global	??_InterruptEn
   310  0020                     ??_InterruptEn:	; 0 bytes @ 0x0
   311                           	global	??_KeySend
   312  0020                     ??_KeySend:	; 0 bytes @ 0x0
   313                           	global	??_MouseSendLC
   314  0020                     ??_MouseSendLC:	; 0 bytes @ 0x0
   315                           	global	??_MouseSendRC
   316  0020                     ??_MouseSendRC:	; 0 bytes @ 0x0
   317                           	global	?_read_a2d_value
   318  0020                     ?_read_a2d_value:	; 2 bytes @ 0x0
   319                           	global	?___ltmod
   320  0020                     ?___ltmod:	; 3 bytes @ 0x0
   321                           	global	KeySend@key
   322  0020                     KeySend@key:	; 1 bytes @ 0x0
   323                           	global	___ltmod@divisor
   324  0020                     ___ltmod@divisor:	; 3 bytes @ 0x0
   325  0020                     	ds	2
   326                           	global	??_read_a2d_value
   327  0022                     ??_read_a2d_value:	; 0 bytes @ 0x2
   328  0022                     	ds	1
   329                           	global	___ltmod@dividend
   330  0023                     ___ltmod@dividend:	; 3 bytes @ 0x3
   331  0023                     	ds	1
   332                           	global	read_a2d_value@channel
   333  0024                     read_a2d_value@channel:	; 1 bytes @ 0x4
   334  0024                     	ds	1
   335                           	global	read_a2d_value@a2d_value
   336  0025                     read_a2d_value@a2d_value:	; 2 bytes @ 0x5
   337  0025                     	ds	1
   338                           	global	??___ltmod
   339  0026                     ??___ltmod:	; 0 bytes @ 0x6
   340  0026                     	ds	1
   341                           	global	??_a2d_read
   342  0027                     ??_a2d_read:	; 0 bytes @ 0x7
   343                           	global	___ltmod@counter
   344  0027                     ___ltmod@counter:	; 1 bytes @ 0x7
   345  0027                     	ds	1
   346                           	global	?___ltdiv
   347  0028                     ?___ltdiv:	; 3 bytes @ 0x8
   348                           	global	___ltdiv@divisor
   349  0028                     ___ltdiv@divisor:	; 3 bytes @ 0x8
   350  0028                     	ds	3
   351                           	global	___ltdiv@dividend
   352  002B                     ___ltdiv@dividend:	; 3 bytes @ 0xB
   353  002B                     	ds	3
   354                           	global	??___ltdiv
   355  002E                     ??___ltdiv:	; 0 bytes @ 0xE
   356  002E                     	ds	1
   357                           	global	___ltdiv@quotient
   358  002F                     ___ltdiv@quotient:	; 3 bytes @ 0xF
   359  002F                     	ds	3
   360                           	global	___ltdiv@counter
   361  0032                     ___ltdiv@counter:	; 1 bytes @ 0x12
   362  0032                     	ds	1
   363                           	global	??_main
   364  0033                     ??_main:	; 0 bytes @ 0x13
   365  0033                     	ds	3
   366                           	global	_main$1976
   367  0036                     _main$1976:	; 3 bytes @ 0x16
   368  0036                     	ds	3
   369 ;;Data sizes: Strings 0, constant 0, data 0, bss 13, persistent 0 stack 0
   370 ;;Auto spaces:   Size  Autos    Used
   371 ;; COMMON          14      5      10
   372 ;; BANK0           80     25      34
   373 ;; BANK1           80      0       0
   374 ;; BANK3           96      0       0
   375 ;; BANK2           96      0       0
   376                           
   377 ;;
   378 ;; Pointer list with targets:
   379                           
   380 ;; ?_read_a2d_value	unsigned int  size(1) Largest target is 0
   381 ;;
   382 ;; ?___ltmod	unsigned um size(1) Largest target is 0
   383 ;;
   384 ;; ?___ltdiv	unsigned um size(1) Largest target is 0
   385 ;;
   386                           
   387                           
   388 ;;
   389 ;; Critical Paths under _main in COMMON
   390 ;;
   391 ;;   None.
   392 ;;
   393 ;; Critical Paths under _isr in COMMON
   394 ;;
   395 ;;   None.
   396 ;;
   397 ;; Critical Paths under _main in BANK0
   398 ;;
   399 ;;   _main->___ltdiv
   400 ;;   _a2d_read->_read_a2d_value
   401 ;;   ___ltdiv->___ltmod
   402 ;;
   403 ;; Critical Paths under _isr in BANK0
   404 ;;
   405 ;;   None.
   406 ;;
   407 ;; Critical Paths under _main in BANK1
   408 ;;
   409 ;;   None.
   410 ;;
   411 ;; Critical Paths under _isr in BANK1
   412 ;;
   413 ;;   None.
   414 ;;
   415 ;; Critical Paths under _main in BANK3
   416 ;;
   417 ;;   None.
   418 ;;
   419 ;; Critical Paths under _isr in BANK3
   420 ;;
   421 ;;   None.
   422 ;;
   423 ;; Critical Paths under _main in BANK2
   424 ;;
   425 ;;   None.
   426 ;;
   427 ;; Critical Paths under _isr in BANK2
   428 ;;
   429 ;;   None.
   430                           
   431 ;;
   432 ;;Main: autosize = 0, tempsize = 3, incstack = 0, save=0
   433 ;;
   434                           
   435 ;;
   436 ;;Call Graph Tables:
   437 ;;
   438 ;; ---------------------------------------------------------------------------------
   439 ;; (Depth) Function   	        Calls       Base Space   Used Autos Params    Refs
   440 ;; ---------------------------------------------------------------------------------
   441 ;; (0) _main                                                 9     9      0     807
   442 ;;                                             19 BANK0      6     6      0
   443 ;;                        _InterruptEn
   444 ;;                           _a2d_read
   445 ;;                            ___ltdiv
   446 ;;                            ___ltmod
   447 ;;                            _KeySend
   448 ;;                        _MouseSendLC
   449 ;;                        _MouseSendRC
   450 ;; ---------------------------------------------------------------------------------
   451 ;; (1) _a2d_read                                             0     0      0     167
   452 ;;                     _read_a2d_value
   453 ;; ---------------------------------------------------------------------------------
   454 ;; (2) _read_a2d_value                                       7     5      2     167
   455 ;;                                              0 BANK0      7     5      2
   456 ;; ---------------------------------------------------------------------------------
   457 ;; (1) ___ltmod                                              8     2      6     232
   458 ;;                                              0 BANK0      8     2      6
   459 ;; ---------------------------------------------------------------------------------
   460 ;; (1) ___ltdiv                                             11     5      6     241
   461 ;;                                              8 BANK0     11     5      6
   462 ;;                            ___ltmod (ARG)
   463 ;; ---------------------------------------------------------------------------------
   464 ;; (1) _MouseSendRC                                          0     0      0       0
   465 ;; ---------------------------------------------------------------------------------
   466 ;; (1) _MouseSendLC                                          0     0      0       0
   467 ;; ---------------------------------------------------------------------------------
   468 ;; (1) _KeySend                                              1     1      0      31
   469 ;;                                              0 BANK0      1     1      0
   470 ;; ---------------------------------------------------------------------------------
   471 ;; (1) _InterruptEn                                          0     0      0       0
   472 ;; ---------------------------------------------------------------------------------
   473 ;; Estimated maximum stack depth 2
   474 ;; ---------------------------------------------------------------------------------
   475 ;; (Depth) Function   	        Calls       Base Space   Used Autos Params    Refs
   476 ;; ---------------------------------------------------------------------------------
   477 ;; (3) _isr                                                  5     5      0       0
   478 ;;                                              0 COMMON     5     5      0
   479 ;; ---------------------------------------------------------------------------------
   480 ;; Estimated maximum stack depth 3
   481 ;; ---------------------------------------------------------------------------------
   482                           
   483 ;; Call Graph Graphs:
   484                           
   485 ;; _main (ROOT)
   486 ;;   _InterruptEn
   487 ;;   _a2d_read
   488 ;;     _read_a2d_value
   489 ;;   ___ltdiv
   490 ;;     ___ltmod (ARG)
   491 ;;   ___ltmod
   492 ;;   _KeySend
   493 ;;   _MouseSendLC
   494 ;;   _MouseSendRC
   495 ;;
   496 ;; _isr (ROOT)
   497 ;;
   498                           
   499 ;; Address spaces:
   500                           
   501 ;;Name               Size   Autos  Total    Cost      Usage
   502 ;;BITCOMMON            E      0       1       0        7.1%
   503 ;;EEDATA             100      0       0       0        0.0%
   504 ;;NULL                 0      0       0       0        0.0%
   505 ;;CODE                 0      0       0       0        0.0%
   506 ;;COMMON               E      5       A       1       71.4%
   507 ;;BITSFR0              0      0       0       1        0.0%
   508 ;;SFR0                 0      0       0       1        0.0%
   509 ;;BITSFR1              0      0       0       2        0.0%
   510 ;;SFR1                 0      0       0       2        0.0%
   511 ;;STACK                0      0       2       2        0.0%
   512 ;;ABS                  0      0      2C       3        0.0%
   513 ;;BITBANK0            50      0       0       4        0.0%
   514 ;;BITSFR3              0      0       0       4        0.0%
   515 ;;SFR3                 0      0       0       4        0.0%
   516 ;;BANK0               50     19      22       5       42.5%
   517 ;;BITSFR2              0      0       0       5        0.0%
   518 ;;SFR2                 0      0       0       5        0.0%
   519 ;;BITBANK1            50      0       0       6        0.0%
   520 ;;BANK1               50      0       0       7        0.0%
   521 ;;BITBANK3            60      0       0       8        0.0%
   522 ;;BANK3               60      0       0       9        0.0%
   523 ;;BITBANK2            60      0       0      10        0.0%
   524 ;;BANK2               60      0       0      11        0.0%
   525 ;;DATA                 0      0      2E      12        0.0%
   526                           
   527                           	global	_main
   528                           psect	maintext,global,class=CODE,delta=2
   529                           global __pmaintext
   530  11BF                     __pmaintext:
   531                           
   532 ;; *************** function _main *****************
   533 ;; Defined at:
   534 ;;		line 47 in file "F:\ELECTRONIC\2015\Projects\40. Mouse with keyboard\PGM\Keyboard and Mouse in a glove\ver3\keyboard
       _and_mouse_in_a_glove.c"
   535 ;; Parameters:    Size  Location     Type
   536 ;;		None
   537 ;; Auto vars:     Size  Location     Type
   538 ;;		None
   539 ;; Return value:  Size  Location     Type
   540 ;;		None               void
   541 ;; Registers used:
   542 ;;		wreg, status,2, status,0, pclath, cstack
   543 ;; Tracked objects:
   544 ;;		On entry : 17F/0
   545 ;;		On exit  : 0/0
   546 ;;		Unchanged: 0/0
   547 ;; Data sizes:     COMMON   BANK0   BANK1   BANK3   BANK2
   548 ;;      Params:         0       0       0       0       0
   549 ;;      Locals:         0       3       0       0       0
   550 ;;      Temps:          0       3       0       0       0
   551 ;;      Totals:         0       6       0       0       0
   552 ;;Total ram usage:        6 bytes
   553 ;; Hardware stack levels required when called:    3
   554 ;; This function calls:
   555 ;;		_InterruptEn
   556 ;;		_a2d_read
   557 ;;		___ltdiv
   558 ;;		___ltmod
   559 ;;		_KeySend
   560 ;;		_MouseSendLC
   561 ;;		_MouseSendRC
   562 ;; This function is called by:
   563 ;;		Startup code after reset
   564 ;; This function uses a non-reentrant model
   565 ;;
   566                           psect	maintext
   567                           	file	"F:\ELECTRONIC\2015\Projects\40. Mouse with keyboard\PGM\Keyboard and Mouse in a g
                                 love\ver3\keyboard_and_mouse_in_a_glove.c"
   568                           	line	47
   569                           	global	__size_of_main
   570  FE41                     	__size_of_main	equ	__end_of_main-_main
   571                           	
   572  11BF                     _main:	
   573                           	opt	stack 5
   574                           ; Regs used in _main: [wreg+status,2+status,0+pclath+cstack]
   575                           	line	49
   576                           	
   577  11BF                     l6569:	
   578                           ;keyboard_and_mouse_in_a_glove.c: 49: TRISA = 0b11111111;
   579  11BF  30FF               	movlw	(0FFh)
   580  11C0  1683               	bsf	status, 5	;RP0=1, select bank1
   581  11C1  1303               	bcf	status, 6	;RP1=0, select bank1
   582  11C2  0085               	movwf	(133)^080h	;volatile
   583                           	line	52
   584                           ;keyboard_and_mouse_in_a_glove.c: 52: TRISB = 0b11111111;
   585  11C3  30FF               	movlw	(0FFh)
   586  11C4  0086               	movwf	(134)^080h	;volatile
   587                           	line	55
   588                           ;keyboard_and_mouse_in_a_glove.c: 55: TRISC = 0b10111000;
   589  11C5  30B8               	movlw	(0B8h)
   590  11C6  0087               	movwf	(135)^080h	;volatile
   591                           	line	56
   592                           ;keyboard_and_mouse_in_a_glove.c: 56: PORTC = 0b00000010;
   593  11C7  3002               	movlw	(02h)
   594  11C8  1283               	bcf	status, 5	;RP0=0, select bank0
   595  11C9  1303               	bcf	status, 6	;RP1=0, select bank0
   596  11CA  0087               	movwf	(7)	;volatile
   597                           	line	58
   598                           ;keyboard_and_mouse_in_a_glove.c: 58: TRISD = 0b11111111;
   599  11CB  30FF               	movlw	(0FFh)
   600  11CC  1683               	bsf	status, 5	;RP0=1, select bank1
   601  11CD  1303               	bcf	status, 6	;RP1=0, select bank1
   602  11CE  0088               	movwf	(136)^080h	;volatile
   603                           	line	60
   604                           	
   605  11CF                     l6571:	
   606                           ;keyboard_and_mouse_in_a_glove.c: 60: TRISE = 0b00000000;
   607  11CF  0189               	clrf	(137)^080h	;volatile
   608                           	line	62
   609                           	
   610  11D0                     l6573:	
   611                           ;keyboard_and_mouse_in_a_glove.c: 62: ADCON0 = 0b01000000;
   612  11D0  3040               	movlw	(040h)
   613  11D1  1283               	bcf	status, 5	;RP0=0, select bank0
   614  11D2  1303               	bcf	status, 6	;RP1=0, select bank0
   615  11D3  009F               	movwf	(31)	;volatile
   616                           	line	63
   617                           	
   618  11D4                     l6575:	
   619                           ;keyboard_and_mouse_in_a_glove.c: 63: ADCON1 = 0b10000100;
   620  11D4  3084               	movlw	(084h)
   621  11D5  1683               	bsf	status, 5	;RP0=1, select bank1
   622  11D6  1303               	bcf	status, 6	;RP1=0, select bank1
   623  11D7  009F               	movwf	(159)^080h	;volatile
   624                           	line	66
   625                           	
   626  11D8                     l6577:	
   627                           ;keyboard_and_mouse_in_a_glove.c: 66: SPBRG = 25;
   628  11D8  3019               	movlw	(019h)
   629  11D9  0099               	movwf	(153)^080h	;volatile
   630                           	line	67
   631                           	
   632  11DA                     l6579:	
   633                           ;keyboard_and_mouse_in_a_glove.c: 67: SPEN = 1;
   634  11DA  1283               	bcf	status, 5	;RP0=0, select bank0
   635  11DB  1303               	bcf	status, 6	;RP1=0, select bank0
   636  11DC  1798               	bsf	(199/8),(199)&7
   637                           	line	68
   638                           	
   639  11DD                     l6581:	
   640                           ;keyboard_and_mouse_in_a_glove.c: 68: RX9 = 0;
   641  11DD  1318               	bcf	(198/8),(198)&7
   642                           	line	69
   643                           	
   644  11DE                     l6583:	
   645                           ;keyboard_and_mouse_in_a_glove.c: 69: CREN = 1;
   646  11DE  1618               	bsf	(196/8),(196)&7
   647                           	line	70
   648                           	
   649  11DF                     l6585:	
   650                           ;keyboard_and_mouse_in_a_glove.c: 70: TX9 = 0;
   651  11DF  1683               	bsf	status, 5	;RP0=1, select bank1
   652  11E0  1303               	bcf	status, 6	;RP1=0, select bank1
   653  11E1  1318               	bcf	(1222/8)^080h,(1222)&7
   654                           	line	71
   655                           	
   656  11E2                     l6587:	
   657                           ;keyboard_and_mouse_in_a_glove.c: 71: TXEN = 1;
   658  11E2  1698               	bsf	(1221/8)^080h,(1221)&7
   659                           	line	72
   660                           	
   661  11E3                     l6589:	
   662                           ;keyboard_and_mouse_in_a_glove.c: 72: SYNC = 0;
   663  11E3  1218               	bcf	(1220/8)^080h,(1220)&7
   664                           	line	73
   665                           	
   666  11E4                     l6591:	
   667                           ;keyboard_and_mouse_in_a_glove.c: 73: BRGH = 1;
   668  11E4  1518               	bsf	(1218/8)^080h,(1218)&7
   669                           	line	74
   670                           	
   671  11E5                     l6593:	
   672                           ;keyboard_and_mouse_in_a_glove.c: 74: SPBRG = 25;
   673  11E5  3019               	movlw	(019h)
   674  11E6  0099               	movwf	(153)^080h	;volatile
   675                           	line	75
   676                           	
   677  11E7                     l6595:	
   678                           ;keyboard_and_mouse_in_a_glove.c: 75: RCIE = 1;
   679  11E7  168C               	bsf	(1125/8)^080h,(1125)&7
   680                           	line	76
   681                           	
   682  11E8                     l6597:	
   683                           ;keyboard_and_mouse_in_a_glove.c: 76: TXIE = 0;
   684  11E8  120C               	bcf	(1124/8)^080h,(1124)&7
   685                           	line	77
   686                           	
   687  11E9                     l6599:	
   688                           ;keyboard_and_mouse_in_a_glove.c: 77: _delay((unsigned long)((500)*(4000000/4000.0)));
   689                           	opt asmopt_off
   690  11E9  3003               movlw  3
   691  11EA  1283               	bcf	status, 5	;RP0=0, select bank0
   692  11EB  1303               	bcf	status, 6	;RP1=0, select bank0
   693  11EC  00B5               movwf	((??_main+0)+0+2),f
   694  11ED  308A               movlw	138
   695  11EE  00B4               movwf	((??_main+0)+0+1),f
   696  11EF  3056               	movlw	86
   697  11F0  00B3               movwf	((??_main+0)+0),f
   698  11F1                     u11497:
   699  11F1  0BB3               	decfsz	((??_main+0)+0),f
   700  11F2  29F1               	goto	u11497
   701  11F3  0BB4               	decfsz	((??_main+0)+0+1),f
   702  11F4  29F1               	goto	u11497
   703  11F5  0BB5               	decfsz	((??_main+0)+0+2),f
   704  11F6  29F1               	goto	u11497
   705  11F7  29F8               	nop2
   706                           opt asmopt_on
   707                           
   708                           	line	80
   709                           	
   710  11F8                     l6601:	
   711                           ;keyboard_and_mouse_in_a_glove.c: 80: T1CKPS1 = 0;
   712  11F8  1283               	bcf	status, 5	;RP0=0, select bank0
   713  11F9  1303               	bcf	status, 6	;RP1=0, select bank0
   714  11FA  1290               	bcf	(133/8),(133)&7
   715                           	line	81
   716                           	
   717  11FB                     l6603:	
   718                           ;keyboard_and_mouse_in_a_glove.c: 81: T1CKPS0 = 1;
   719  11FB  1610               	bsf	(132/8),(132)&7
   720                           	line	82
   721                           	
   722  11FC                     l6605:	
   723                           ;keyboard_and_mouse_in_a_glove.c: 82: TMR1CS = 0;
   724  11FC  1090               	bcf	(129/8),(129)&7
   725                           	line	83
   726                           	
   727  11FD                     l6607:	
   728                           ;keyboard_and_mouse_in_a_glove.c: 83: TMR1ON = 1;
   729  11FD  1410               	bsf	(128/8),(128)&7
   730                           	line	84
   731                           	
   732  11FE                     l6609:	
   733                           ;keyboard_and_mouse_in_a_glove.c: 84: T1OSCEN = 0;
   734  11FE  1190               	bcf	(131/8),(131)&7
   735                           	line	85
   736                           	
   737  11FF                     l6611:	
   738                           ;keyboard_and_mouse_in_a_glove.c: 85: TMR1L = 0xB0;
   739  11FF  30B0               	movlw	(0B0h)
   740  1200  008E               	movwf	(14)	;volatile
   741                           	line	86
   742                           	
   743  1201                     l6613:	
   744                           ;keyboard_and_mouse_in_a_glove.c: 86: TMR1H = 60;
   745  1201  303C               	movlw	(03Ch)
   746  1202  008F               	movwf	(15)	;volatile
   747                           	line	87
   748                           	
   749  1203                     l6615:	
   750                           ;keyboard_and_mouse_in_a_glove.c: 87: TMR1IE = 1;
   751  1203  1683               	bsf	status, 5	;RP0=1, select bank1
   752  1204  1303               	bcf	status, 6	;RP1=0, select bank1
   753  1205  140C               	bsf	(1120/8)^080h,(1120)&7
   754                           	line	90
   755                           	
   756  1206                     l6617:	
   757                           ;keyboard_and_mouse_in_a_glove.c: 90: OPTION_REG =0b01111111 & OPTION_REG;
   758  1206  0801               	movf	(129)^080h,w
   759  1207  397F               	andlw	07Fh
   760  1208  0081               	movwf	(129)^080h	;volatile
   761                           	line	93
   762                           	
   763  1209                     l6619:	
   764                           ;keyboard_and_mouse_in_a_glove.c: 93: InterruptEn();
   765  1209  160A  158A  2693   	fcall	_InterruptEn
              160A  118A         
   766                           	line	96
   767                           	
   768  120E                     l6621:	
   769                           ;keyboard_and_mouse_in_a_glove.c: 96: MOUSE_SELECT = 0;
   770  120E  10F9               	bcf	(_MOUSE_SELECT/8),(_MOUSE_SELECT)&7
   771  120F  2A10               	goto	l6623
   772                           	line	98
   773                           ;keyboard_and_mouse_in_a_glove.c: 98: while(1){
   774                           	
   775  1210                     l721:	
   776                           	line	99
   777                           	
   778  1210                     l6623:	
   779                           ;keyboard_and_mouse_in_a_glove.c: 99: nop=1;
   780  1210  1579               	bsf	(_nop/8),(_nop)&7
   781                           	line	100
   782                           	
   783  1211                     l6625:	
   784                           ;keyboard_and_mouse_in_a_glove.c: 100: if (MOUSE_SELECT == 1){
   785  1211  1CF9               	btfss	(_MOUSE_SELECT/8),(_MOUSE_SELECT)&7
   786  1212  2A14               	goto	u8781
   787  1213  2A17               	goto	u8780
   788  1214                     u8781:
   789  1214  120A  118A  2E0E   	goto	l722
   790  1217                     u8780:
   791                           	line	102
   792                           	
   793  1217                     l6627:	
   794                           ;keyboard_and_mouse_in_a_glove.c: 102: a2d_read();
   795  1217  160A  118A  203C   	fcall	_a2d_read
              160A  118A         
   796                           	line	103
   797                           	
   798  121C                     l6629:	
   799                           ;keyboard_and_mouse_in_a_glove.c: 103: RC1 = 1;
   800  121C  1283               	bcf	status, 5	;RP0=0, select bank0
   801  121D  1303               	bcf	status, 6	;RP1=0, select bank0
   802  121E  1487               	bsf	(57/8),(57)&7
   803                           	line	104
   804                           ;keyboard_and_mouse_in_a_glove.c: 104: while(!TXIF);
   805  121F  2A20               	goto	l723
   806                           	
   807  1220                     l724:	
   808                           	
   809  1220                     l723:	
   810  1220  1E0C               	btfss	(100/8),(100)&7
   811  1221  2A23               	goto	u8791
   812  1222  2A24               	goto	u8790
   813  1223                     u8791:
   814  1223  2A20               	goto	l723
   815  1224                     u8790:
   816  1224  2A25               	goto	l6631
   817                           	
   818  1225                     l725:	
   819                           	line	105
   820                           	
   821  1225                     l6631:	
   822                           ;keyboard_and_mouse_in_a_glove.c: 105: TXREG = '%';
   823  1225  3025               	movlw	(025h)
   824  1226  0099               	movwf	(25)	;volatile
   825                           	line	106
   826                           ;keyboard_and_mouse_in_a_glove.c: 106: while(!TXIF);
   827  1227  2A28               	goto	l726
   828                           	
   829  1228                     l727:	
   830                           	
   831  1228                     l726:	
   832  1228  1E0C               	btfss	(100/8),(100)&7
   833  1229  2A2B               	goto	u8801
   834  122A  2A2C               	goto	u8800
   835  122B                     u8801:
   836  122B  2A28               	goto	l726
   837  122C                     u8800:
   838  122C  2A2D               	goto	l6633
   839                           	
   840  122D                     l728:	
   841                           	line	107
   842                           	
   843  122D                     l6633:	
   844                           ;keyboard_and_mouse_in_a_glove.c: 107: TXREG = 'X';
   845  122D  3058               	movlw	(058h)
   846  122E  0099               	movwf	(25)	;volatile
   847                           	line	108
   848                           ;keyboard_and_mouse_in_a_glove.c: 108: while(!TXIF);
   849  122F  2A30               	goto	l729
   850                           	
   851  1230                     l730:	
   852                           	
   853  1230                     l729:	
   854  1230  1E0C               	btfss	(100/8),(100)&7
   855  1231  2A33               	goto	u8811
   856  1232  2A34               	goto	u8810
   857  1233                     u8811:
   858  1233  2A30               	goto	l729
   859  1234                     u8810:
   860  1234  2A35               	goto	l6635
   861                           	
   862  1235                     l731:	
   863                           	line	109
   864                           	
   865  1235                     l6635:	
   866                           ;keyboard_and_mouse_in_a_glove.c: 109: TXREG = vblAccX/100 + 48;
   867  1235  3064               	movlw	064h
   868  1236  00A8               	movwf	(?___ltdiv)
   869  1237  3000               	movlw	0
   870  1238  00A9               	movwf	(?___ltdiv+1)
   871  1239  3000               	movlw	0
   872  123A  00AA               	movwf	(?___ltdiv+2)
   873  123B  0839               	movf	(_vblAccX),w
   874  123C  00AB               	movwf	0+(?___ltdiv)+03h
   875  123D  083A               	movf	(_vblAccX+1),w
   876  123E  00AC               	movwf	1+(?___ltdiv)+03h
   877  123F  083B               	movf	(_vblAccX+2),w
   878  1240  00AD               	movwf	2+(?___ltdiv)+03h
   879  1241  160A  158A  27A0   	fcall	___ltdiv
              160A  118A         
   880  1246  1283               	bcf	status, 5	;RP0=0, select bank0
   881  1247  1303               	bcf	status, 6	;RP1=0, select bank0
   882  1248  0828               	movf	(0+(?___ltdiv)),w
   883  1249  3E30               	addlw	030h
   884  124A  0099               	movwf	(25)	;volatile
   885                           	line	110
   886                           ;keyboard_and_mouse_in_a_glove.c: 110: while(!TXIF);
   887  124B  2A4C               	goto	l732
   888                           	
   889  124C                     l733:	
   890                           	
   891  124C                     l732:	
   892  124C  1E0C               	btfss	(100/8),(100)&7
   893  124D  2A4F               	goto	u8821
   894  124E  2A50               	goto	u8820
   895  124F                     u8821:
   896  124F  2A4C               	goto	l732
   897  1250                     u8820:
   898  1250  2A51               	goto	l6637
   899                           	
   900  1251                     l734:	
   901                           	line	111
   902                           	
   903  1251                     l6637:	
   904                           ;keyboard_and_mouse_in_a_glove.c: 111: TXREG = vblAccX%100/10 + 48;
   905  1251  300A               	movlw	0Ah
   906  1252  00A8               	movwf	(?___ltdiv)
   907  1253  3000               	movlw	0
   908  1254  00A9               	movwf	(?___ltdiv+1)
   909  1255  3000               	movlw	0
   910  1256  00AA               	movwf	(?___ltdiv+2)
   911  1257  0839               	movf	(_vblAccX),w
   912  1258  00A3               	movwf	0+(?___ltmod)+03h
   913  1259  083A               	movf	(_vblAccX+1),w
   914  125A  00A4               	movwf	1+(?___ltmod)+03h
   915  125B  083B               	movf	(_vblAccX+2),w
   916  125C  00A5               	movwf	2+(?___ltmod)+03h
   917  125D  3064               	movlw	064h
   918  125E  00A0               	movwf	(?___ltmod)
   919  125F  3000               	movlw	0
   920  1260  00A1               	movwf	(?___ltmod+1)
   921  1261  3000               	movlw	0
   922  1262  00A2               	movwf	(?___ltmod+2)
   923  1263  120A  118A  27A5   	fcall	___ltmod
              160A  118A         
   924  1268  1283               	bcf	status, 5	;RP0=0, select bank0
   925  1269  1303               	bcf	status, 6	;RP1=0, select bank0
   926  126A  0820               	movf	(0+(?___ltmod)),w
   927  126B  00AB               	movwf	0+(?___ltdiv)+03h
   928  126C  0821               	movf	(1+(?___ltmod)),w
   929  126D  00AC               	movwf	1+(?___ltdiv)+03h
   930  126E  0822               	movf	(2+(?___ltmod)),w
   931  126F  00AD               	movwf	2+(?___ltdiv)+03h
   932  1270  160A  158A  27A0   	fcall	___ltdiv
              160A  118A         
   933  1275  1283               	bcf	status, 5	;RP0=0, select bank0
   934  1276  1303               	bcf	status, 6	;RP1=0, select bank0
   935  1277  0828               	movf	(0+(?___ltdiv)),w
   936  1278  3E30               	addlw	030h
   937  1279  0099               	movwf	(25)	;volatile
   938                           	line	112
   939                           ;keyboard_and_mouse_in_a_glove.c: 112: while(!TXIF);
   940  127A  2A7B               	goto	l735
   941                           	
   942  127B                     l736:	
   943                           	
   944  127B                     l735:	
   945  127B  1E0C               	btfss	(100/8),(100)&7
   946  127C  2A7E               	goto	u8831
   947  127D  2A7F               	goto	u8830
   948  127E                     u8831:
   949  127E  2A7B               	goto	l735
   950  127F                     u8830:
   951  127F  2A80               	goto	l6639
   952                           	
   953  1280                     l737:	
   954                           	line	113
   955                           	
   956  1280                     l6639:	
   957                           ;keyboard_and_mouse_in_a_glove.c: 113: TXREG = vblAccX%100%10 + 48;
   958  1280  0839               	movf	(_vblAccX),w
   959  1281  00A3               	movwf	0+(?___ltmod)+03h
   960  1282  083A               	movf	(_vblAccX+1),w
   961  1283  00A4               	movwf	1+(?___ltmod)+03h
   962  1284  083B               	movf	(_vblAccX+2),w
   963  1285  00A5               	movwf	2+(?___ltmod)+03h
   964  1286  3064               	movlw	064h
   965  1287  00A0               	movwf	(?___ltmod)
   966  1288  3000               	movlw	0
   967  1289  00A1               	movwf	(?___ltmod+1)
   968  128A  3000               	movlw	0
   969  128B  00A2               	movwf	(?___ltmod+2)
   970  128C  120A  118A  27A5   	fcall	___ltmod
              160A  118A         
   971  1291  1283               	bcf	status, 5	;RP0=0, select bank0
   972  1292  1303               	bcf	status, 6	;RP1=0, select bank0
   973  1293  0820               	movf	(0+(?___ltmod)),w
   974  1294  00B6               	movwf	(_main$1976)
   975  1295  0821               	movf	(1+(?___ltmod)),w
   976  1296  00B7               	movwf	(_main$1976+1)
   977  1297  0822               	movf	(2+(?___ltmod)),w
   978  1298  00B8               	movwf	(_main$1976+2)
   979                           ;keyboard_and_mouse_in_a_glove.c: 113: TXREG = vblAccX%100%10 + 48;
   980  1299  300A               	movlw	0Ah
   981  129A  00A0               	movwf	(?___ltmod)
   982  129B  3000               	movlw	0
   983  129C  00A1               	movwf	(?___ltmod+1)
   984  129D  3000               	movlw	0
   985  129E  00A2               	movwf	(?___ltmod+2)
   986  129F  0836               	movf	(_main$1976),w
   987  12A0  00A3               	movwf	0+(?___ltmod)+03h
   988  12A1  0837               	movf	(_main$1976+1),w
   989  12A2  00A4               	movwf	1+(?___ltmod)+03h
   990  12A3  0838               	movf	(_main$1976+2),w
   991  12A4  00A5               	movwf	2+(?___ltmod)+03h
   992  12A5  120A  118A  27A5   	fcall	___ltmod
              160A  118A         
   993  12AA  1283               	bcf	status, 5	;RP0=0, select bank0
   994  12AB  1303               	bcf	status, 6	;RP1=0, select bank0
   995  12AC  0820               	movf	(0+(?___ltmod)),w
   996  12AD  3E30               	addlw	030h
   997  12AE  0099               	movwf	(25)	;volatile
   998                           	line	114
   999                           ;keyboard_and_mouse_in_a_glove.c: 114: while(!TXIF);
  1000  12AF  2AB0               	goto	l738
  1001                           	
  1002  12B0                     l739:	
  1003                           	
  1004  12B0                     l738:	
  1005  12B0  1E0C               	btfss	(100/8),(100)&7
  1006  12B1  2AB3               	goto	u8841
  1007  12B2  2AB4               	goto	u8840
  1008  12B3                     u8841:
  1009  12B3  2AB0               	goto	l738
  1010  12B4                     u8840:
  1011  12B4  2AB5               	goto	l6641
  1012                           	
  1013  12B5                     l740:	
  1014                           	line	115
  1015                           	
  1016  12B5                     l6641:	
  1017                           ;keyboard_and_mouse_in_a_glove.c: 115: TXREG = '?';
  1018  12B5  303F               	movlw	(03Fh)
  1019  12B6  0099               	movwf	(25)	;volatile
  1020                           	line	117
  1021                           ;keyboard_and_mouse_in_a_glove.c: 117: while(!TXIF);
  1022  12B7  2AB8               	goto	l741
  1023                           	
  1024  12B8                     l742:	
  1025                           	
  1026  12B8                     l741:	
  1027  12B8  1E0C               	btfss	(100/8),(100)&7
  1028  12B9  2ABB               	goto	u8851
  1029  12BA  2ABC               	goto	u8850
  1030  12BB                     u8851:
  1031  12BB  2AB8               	goto	l741
  1032  12BC                     u8850:
  1033  12BC  2ABD               	goto	l6643
  1034                           	
  1035  12BD                     l743:	
  1036                           	line	118
  1037                           	
  1038  12BD                     l6643:	
  1039                           ;keyboard_and_mouse_in_a_glove.c: 118: TXREG = '%';
  1040  12BD  3025               	movlw	(025h)
  1041  12BE  0099               	movwf	(25)	;volatile
  1042                           	line	119
  1043                           ;keyboard_and_mouse_in_a_glove.c: 119: while(!TXIF);
  1044  12BF  2AC0               	goto	l744
  1045                           	
  1046  12C0                     l745:	
  1047                           	
  1048  12C0                     l744:	
  1049  12C0  1E0C               	btfss	(100/8),(100)&7
  1050  12C1  2AC3               	goto	u8861
  1051  12C2  2AC4               	goto	u8860
  1052  12C3                     u8861:
  1053  12C3  2AC0               	goto	l744
  1054  12C4                     u8860:
  1055  12C4  160A  118A  2EF3   	goto	l6645
  1056                           	
  1057  16F3                     l746:	
  1058                           	line	120
  1059                           	
  1060  16F3                     l6645:	
  1061                           ;keyboard_and_mouse_in_a_glove.c: 120: TXREG = 'Y';
  1062  16F3  3059               	movlw	(059h)
  1063  16F4  0099               	movwf	(25)	;volatile
  1064                           	line	121
  1065                           ;keyboard_and_mouse_in_a_glove.c: 121: while(!TXIF);
  1066  16F5  2EF6               	goto	l747
  1067                           	
  1068  16F6                     l748:	
  1069                           	
  1070  16F6                     l747:	
  1071  16F6  1E0C               	btfss	(100/8),(100)&7
  1072  16F7  2EF9               	goto	u8871
  1073  16F8  2EFA               	goto	u8870
  1074  16F9                     u8871:
  1075  16F9  2EF6               	goto	l747
  1076  16FA                     u8870:
  1077  16FA  2EFB               	goto	l6647
  1078                           	
  1079  16FB                     l749:	
  1080                           	line	122
  1081                           	
  1082  16FB                     l6647:	
  1083                           ;keyboard_and_mouse_in_a_glove.c: 122: TXREG = vblAccY/100 + 48;
  1084  16FB  3064               	movlw	064h
  1085  16FC  00A8               	movwf	(?___ltdiv)
  1086  16FD  3000               	movlw	0
  1087  16FE  00A9               	movwf	(?___ltdiv+1)
  1088  16FF  3000               	movlw	0
  1089  1700  00AA               	movwf	(?___ltdiv+2)
  1090  1701  083C               	movf	(_vblAccY),w
  1091  1702  00AB               	movwf	0+(?___ltdiv)+03h
  1092  1703  083D               	movf	(_vblAccY+1),w
  1093  1704  00AC               	movwf	1+(?___ltdiv)+03h
  1094  1705  083E               	movf	(_vblAccY+2),w
  1095  1706  00AD               	movwf	2+(?___ltdiv)+03h
  1096  1707  160A  158A  27A0   	fcall	___ltdiv
              160A  118A         
  1097  170C  1283               	bcf	status, 5	;RP0=0, select bank0
  1098  170D  1303               	bcf	status, 6	;RP1=0, select bank0
  1099  170E  0828               	movf	(0+(?___ltdiv)),w
  1100  170F  3E30               	addlw	030h
  1101  1710  0099               	movwf	(25)	;volatile
  1102                           	line	123
  1103                           ;keyboard_and_mouse_in_a_glove.c: 123: while(!TXIF);
  1104  1711  2F12               	goto	l750
  1105                           	
  1106  1712                     l751:	
  1107                           	
  1108  1712                     l750:	
  1109  1712  1E0C               	btfss	(100/8),(100)&7
  1110  1713  2F15               	goto	u8881
  1111  1714  2F16               	goto	u8880
  1112  1715                     u8881:
  1113  1715  2F12               	goto	l750
  1114  1716                     u8880:
  1115  1716  2F17               	goto	l6649
  1116                           	
  1117  1717                     l752:	
  1118                           	line	124
  1119                           	
  1120  1717                     l6649:	
  1121                           ;keyboard_and_mouse_in_a_glove.c: 124: TXREG = vblAccY%100/10 + 48;
  1122  1717  300A               	movlw	0Ah
  1123  1718  00A8               	movwf	(?___ltdiv)
  1124  1719  3000               	movlw	0
  1125  171A  00A9               	movwf	(?___ltdiv+1)
  1126  171B  3000               	movlw	0
  1127  171C  00AA               	movwf	(?___ltdiv+2)
  1128  171D  083C               	movf	(_vblAccY),w
  1129  171E  00A3               	movwf	0+(?___ltmod)+03h
  1130  171F  083D               	movf	(_vblAccY+1),w
  1131  1720  00A4               	movwf	1+(?___ltmod)+03h
  1132  1721  083E               	movf	(_vblAccY+2),w
  1133  1722  00A5               	movwf	2+(?___ltmod)+03h
  1134  1723  3064               	movlw	064h
  1135  1724  00A0               	movwf	(?___ltmod)
  1136  1725  3000               	movlw	0
  1137  1726  00A1               	movwf	(?___ltmod+1)
  1138  1727  3000               	movlw	0
  1139  1728  00A2               	movwf	(?___ltmod+2)
  1140  1729  120A  118A  27A5   	fcall	___ltmod
              160A  118A         
  1141  172E  1283               	bcf	status, 5	;RP0=0, select bank0
  1142  172F  1303               	bcf	status, 6	;RP1=0, select bank0
  1143  1730  0820               	movf	(0+(?___ltmod)),w
  1144  1731  00AB               	movwf	0+(?___ltdiv)+03h
  1145  1732  0821               	movf	(1+(?___ltmod)),w
  1146  1733  00AC               	movwf	1+(?___ltdiv)+03h
  1147  1734  0822               	movf	(2+(?___ltmod)),w
  1148  1735  00AD               	movwf	2+(?___ltdiv)+03h
  1149  1736  160A  158A  27A0   	fcall	___ltdiv
              160A  118A         
  1150  173B  1283               	bcf	status, 5	;RP0=0, select bank0
  1151  173C  1303               	bcf	status, 6	;RP1=0, select bank0
  1152  173D  0828               	movf	(0+(?___ltdiv)),w
  1153  173E  3E30               	addlw	030h
  1154  173F  0099               	movwf	(25)	;volatile
  1155                           	line	125
  1156                           ;keyboard_and_mouse_in_a_glove.c: 125: while(!TXIF);
  1157  1740  2F41               	goto	l753
  1158                           	
  1159  1741                     l754:	
  1160                           	
  1161  1741                     l753:	
  1162  1741  1E0C               	btfss	(100/8),(100)&7
  1163  1742  2F44               	goto	u8891
  1164  1743  2F45               	goto	u8890
  1165  1744                     u8891:
  1166  1744  2F41               	goto	l753
  1167  1745                     u8890:
  1168  1745  2F46               	goto	l6651
  1169                           	
  1170  1746                     l755:	
  1171                           	line	126
  1172                           	
  1173  1746                     l6651:	
  1174                           ;keyboard_and_mouse_in_a_glove.c: 126: TXREG = vblAccY%100%10 + 48;
  1175  1746  083C               	movf	(_vblAccY),w
  1176  1747  00A3               	movwf	0+(?___ltmod)+03h
  1177  1748  083D               	movf	(_vblAccY+1),w
  1178  1749  00A4               	movwf	1+(?___ltmod)+03h
  1179  174A  083E               	movf	(_vblAccY+2),w
  1180  174B  00A5               	movwf	2+(?___ltmod)+03h
  1181  174C  3064               	movlw	064h
  1182  174D  00A0               	movwf	(?___ltmod)
  1183  174E  3000               	movlw	0
  1184  174F  00A1               	movwf	(?___ltmod+1)
  1185  1750  3000               	movlw	0
  1186  1751  00A2               	movwf	(?___ltmod+2)
  1187  1752  120A  118A  27A5   	fcall	___ltmod
              160A  118A         
  1188  1757  1283               	bcf	status, 5	;RP0=0, select bank0
  1189  1758  1303               	bcf	status, 6	;RP1=0, select bank0
  1190  1759  0820               	movf	(0+(?___ltmod)),w
  1191  175A  00B6               	movwf	(_main$1976)
  1192  175B  0821               	movf	(1+(?___ltmod)),w
  1193  175C  00B7               	movwf	(_main$1976+1)
  1194  175D  0822               	movf	(2+(?___ltmod)),w
  1195  175E  00B8               	movwf	(_main$1976+2)
  1196                           ;keyboard_and_mouse_in_a_glove.c: 126: TXREG = vblAccY%100%10 + 48;
  1197  175F  300A               	movlw	0Ah
  1198  1760  00A0               	movwf	(?___ltmod)
  1199  1761  3000               	movlw	0
  1200  1762  00A1               	movwf	(?___ltmod+1)
  1201  1763  3000               	movlw	0
  1202  1764  00A2               	movwf	(?___ltmod+2)
  1203  1765  0836               	movf	(_main$1976),w
  1204  1766  00A3               	movwf	0+(?___ltmod)+03h
  1205  1767  0837               	movf	(_main$1976+1),w
  1206  1768  00A4               	movwf	1+(?___ltmod)+03h
  1207  1769  0838               	movf	(_main$1976+2),w
  1208  176A  00A5               	movwf	2+(?___ltmod)+03h
  1209  176B  120A  118A  27A5   	fcall	___ltmod
              160A  118A         
  1210  1770  1283               	bcf	status, 5	;RP0=0, select bank0
  1211  1771  1303               	bcf	status, 6	;RP1=0, select bank0
  1212  1772  0820               	movf	(0+(?___ltmod)),w
  1213  1773  3E30               	addlw	030h
  1214  1774  0099               	movwf	(25)	;volatile
  1215                           	line	127
  1216                           ;keyboard_and_mouse_in_a_glove.c: 127: while(!TXIF);
  1217  1775  2F76               	goto	l756
  1218                           	
  1219  1776                     l757:	
  1220                           	
  1221  1776                     l756:	
  1222  1776  1E0C               	btfss	(100/8),(100)&7
  1223  1777  2F79               	goto	u8901
  1224  1778  2F7A               	goto	u8900
  1225  1779                     u8901:
  1226  1779  2F76               	goto	l756
  1227  177A                     u8900:
  1228  177A  2F7B               	goto	l6653
  1229                           	
  1230  177B                     l758:	
  1231                           	line	128
  1232                           	
  1233  177B                     l6653:	
  1234                           ;keyboard_and_mouse_in_a_glove.c: 128: TXREG = '?';
  1235  177B  303F               	movlw	(03Fh)
  1236  177C  0099               	movwf	(25)	;volatile
  1237                           	line	130
  1238                           ;keyboard_and_mouse_in_a_glove.c: 130: _delay((unsigned long)((30)*(4000000/4000.0)));
  1239                           	opt asmopt_off
  1240  177D  3027               movlw	39
  1241  177E  00B4               movwf	((??_main+0)+0+1),f
  1242  177F  30F5               	movlw	245
  1243  1780  00B3               movwf	((??_main+0)+0),f
  1244  1781                     u11507:
  1245  1781  0BB3               	decfsz	((??_main+0)+0),f
  1246  1782  2F81               	goto	u11507
  1247  1783  0BB4               	decfsz	((??_main+0)+0+1),f
  1248  1784  2F81               	goto	u11507
  1249                           opt asmopt_on
  1250                           
  1251                           	line	132
  1252                           	
  1253  1785                     l6655:	
  1254                           ;keyboard_and_mouse_in_a_glove.c: 132: if( RC5!=0 ){
  1255  1785  1283               	bcf	status, 5	;RP0=0, select bank0
  1256  1786  1303               	bcf	status, 6	;RP1=0, select bank0
  1257  1787  1E87               	btfss	(61/8),(61)&7
  1258  1788  2F8A               	goto	u8911
  1259  1789  2F8B               	goto	u8910
  1260  178A                     u8911:
  1261  178A  2FE6               	goto	l759
  1262  178B                     u8910:
  1263                           	line	135
  1264                           	
  1265  178B                     l6657:	
  1266                           ;keyboard_and_mouse_in_a_glove.c: 135: _delay((unsigned long)((50)*(4000000/4000.0))); w
                                 hile(RC4!=0); _delay((unsigned long)((30)*(4000000/4000.0))); while(RC4!=0); _delay((uns
                                 igned long)((30)*(4000000/4000.0))); while(RC4!=0); _delay((unsigned long)((30)*(4000000
                                 /4000.0))); while(RC4!=0)
  1267                           	opt asmopt_off
  1268  178B  3041               movlw	65
  1269  178C  00B4               movwf	((??_main+0)+0+1),f
  1270  178D  30EE               	movlw	238
  1271  178E  00B3               movwf	((??_main+0)+0),f
  1272  178F                     u11517:
  1273  178F  0BB3               	decfsz	((??_main+0)+0),f
  1274  1790  2F8F               	goto	u11517
  1275  1791  0BB4               	decfsz	((??_main+0)+0+1),f
  1276  1792  2F8F               	goto	u11517
  1277  1793  0064               	clrwdt
  1278                           opt asmopt_on
  1279                           
  1280  1794  2F95               	goto	l760
  1281                           	
  1282  1795                     l761:	
  1283                           	
  1284  1795                     l760:	
  1285  1795  1283               	bcf	status, 5	;RP0=0, select bank0
  1286  1796  1303               	bcf	status, 6	;RP1=0, select bank0
  1287  1797  1A07               	btfsc	(60/8),(60)&7
  1288  1798  2F9A               	goto	u8921
  1289  1799  2F9B               	goto	u8920
  1290  179A                     u8921:
  1291  179A  2F95               	goto	l760
  1292  179B                     u8920:
  1293  179B  2F9C               	goto	l6659
  1294                           	
  1295  179C                     l762:	
  1296                           	
  1297  179C                     l6659:	
  1298                           	opt asmopt_off
  1299  179C  3027               movlw	39
  1300  179D  00B4               movwf	((??_main+0)+0+1),f
  1301  179E  30F5               	movlw	245
  1302  179F  00B3               movwf	((??_main+0)+0),f
  1303  17A0                     u11527:
  1304  17A0  0BB3               	decfsz	((??_main+0)+0),f
  1305  17A1  2FA0               	goto	u11527
  1306  17A2  0BB4               	decfsz	((??_main+0)+0+1),f
  1307  17A3  2FA0               	goto	u11527
  1308                           opt asmopt_on
  1309                           
  1310  17A4  2FA5               	goto	l763
  1311                           	
  1312  17A5                     l764:	
  1313                           	
  1314  17A5                     l763:	
  1315  17A5  1283               	bcf	status, 5	;RP0=0, select bank0
  1316  17A6  1303               	bcf	status, 6	;RP1=0, select bank0
  1317  17A7  1A07               	btfsc	(60/8),(60)&7
  1318  17A8  2FAA               	goto	u8931
  1319  17A9  2FAB               	goto	u8930
  1320  17AA                     u8931:
  1321  17AA  2FA5               	goto	l763
  1322  17AB                     u8930:
  1323  17AB  2FAC               	goto	l6661
  1324                           	
  1325  17AC                     l765:	
  1326                           	
  1327  17AC                     l6661:	
  1328                           	opt asmopt_off
  1329  17AC  3027               movlw	39
  1330  17AD  00B4               movwf	((??_main+0)+0+1),f
  1331  17AE  30F5               	movlw	245
  1332  17AF  00B3               movwf	((??_main+0)+0),f
  1333  17B0                     u11537:
  1334  17B0  0BB3               	decfsz	((??_main+0)+0),f
  1335  17B1  2FB0               	goto	u11537
  1336  17B2  0BB4               	decfsz	((??_main+0)+0+1),f
  1337  17B3  2FB0               	goto	u11537
  1338                           opt asmopt_on
  1339                           
  1340  17B4  2FB5               	goto	l766
  1341                           	
  1342  17B5                     l767:	
  1343                           	
  1344  17B5                     l766:	
  1345  17B5  1283               	bcf	status, 5	;RP0=0, select bank0
  1346  17B6  1303               	bcf	status, 6	;RP1=0, select bank0
  1347  17B7  1A07               	btfsc	(60/8),(60)&7
  1348  17B8  2FBA               	goto	u8941
  1349  17B9  2FBB               	goto	u8940
  1350  17BA                     u8941:
  1351  17BA  2FB5               	goto	l766
  1352  17BB                     u8940:
  1353  17BB  2FBC               	goto	l6663
  1354                           	
  1355  17BC                     l768:	
  1356                           	
  1357  17BC                     l6663:	
  1358                           	opt asmopt_off
  1359  17BC  3027               movlw	39
  1360  17BD  00B4               movwf	((??_main+0)+0+1),f
  1361  17BE  30F5               	movlw	245
  1362  17BF  00B3               movwf	((??_main+0)+0),f
  1363  17C0                     u11547:
  1364  17C0  0BB3               	decfsz	((??_main+0)+0),f
  1365  17C1  2FC0               	goto	u11547
  1366  17C2  0BB4               	decfsz	((??_main+0)+0+1),f
  1367  17C3  2FC0               	goto	u11547
  1368                           opt asmopt_on
  1369                           
  1370  17C4  2FC5               	goto	l769
  1371                           	
  1372  17C5                     l770:	
  1373                           	
  1374  17C5                     l769:	
  1375  17C5  1283               	bcf	status, 5	;RP0=0, select bank0
  1376  17C6  1303               	bcf	status, 6	;RP1=0, select bank0
  1377  17C7  1A07               	btfsc	(60/8),(60)&7
  1378  17C8  2FCA               	goto	u8951
  1379  17C9  2FCB               	goto	u8950
  1380  17CA                     u8951:
  1381  17CA  2FC5               	goto	l769
  1382  17CB                     u8950:
  1383  17CB  2FCC               	goto	l6665
  1384                           	
  1385  17CC                     l771:	
  1386                           	line	136
  1387                           	
  1388  17CC                     l6665:	
  1389                           ;keyboard_and_mouse_in_a_glove.c: 136: KeySend(' ');
  1390  17CC  3020               	movlw	(020h)
  1391  17CD  160A  118A  2008   	fcall	_KeySend
              160A  118A         
  1392                           	line	137
  1393                           ;keyboard_and_mouse_in_a_glove.c: 137: KeySend(' ');
  1394  17D2  3020               	movlw	(020h)
  1395  17D3  160A  118A  2008   	fcall	_KeySend
              160A  118A         
  1396                           	line	138
  1397                           	
  1398  17D8                     l6667:	
  1399                           ;keyboard_and_mouse_in_a_glove.c: 138: MOUSE_SELECT = 0;
  1400  17D8  10F9               	bcf	(_MOUSE_SELECT/8),(_MOUSE_SELECT)&7
  1401                           	line	139
  1402                           	
  1403  17D9                     l6669:	
  1404                           ;keyboard_and_mouse_in_a_glove.c: 139: RC1 = MOUSE_SELECT;
  1405  17D9  18F9               	btfsc	(_MOUSE_SELECT/8),(_MOUSE_SELECT)&7
  1406  17DA  2FDC               	goto	u8961
  1407  17DB  2FE0               	goto	u8960
  1408                           	
  1409  17DC                     u8961:
  1410  17DC  1283               	bcf	status, 5	;RP0=0, select bank0
  1411  17DD  1303               	bcf	status, 6	;RP1=0, select bank0
  1412  17DE  1487               	bsf	(57/8),(57)&7
  1413  17DF  2FE3               	goto	u8974
  1414  17E0                     u8960:
  1415  17E0  1283               	bcf	status, 5	;RP0=0, select bank0
  1416  17E1  1303               	bcf	status, 6	;RP1=0, select bank0
  1417  17E2  1087               	bcf	(57/8),(57)&7
  1418  17E3                     u8974:
  1419                           	line	140
  1420                           ;keyboard_and_mouse_in_a_glove.c: 140: }
  1421  17E3  120A  158A  2FF8   	goto	l7865
  1422                           	line	141
  1423                           	
  1424  17E6                     l759:	
  1425                           ;keyboard_and_mouse_in_a_glove.c: 141: else if( RD3!=0 ){
  1426  17E6  1D88               	btfss	(67/8),(67)&7
  1427  17E7  2FE9               	goto	u8981
  1428  17E8  2FEC               	goto	u8980
  1429  17E9                     u8981:
  1430  17E9  120A  118A  2DBD   	goto	l773
  1431  17EC                     u8980:
  1432                           	line	142
  1433                           	
  1434  17EC                     l6671:	
  1435                           ;keyboard_and_mouse_in_a_glove.c: 142: nop=1;
  1436  17EC  1579               	bsf	(_nop/8),(_nop)&7
  1437                           	line	145
  1438                           	
  1439  17ED                     l6673:	
  1440                           ;keyboard_and_mouse_in_a_glove.c: 145: _delay((unsigned long)((50)*(4000000/4000.0))); w
                                 hile(RC4!=0); _delay((unsigned long)((30)*(4000000/4000.0))); while(RC4!=0); _delay((uns
                                 igned long)((30)*(4000000/4000.0))); while(RC4!=0); _delay((unsigned long)((30)*(4000000
                                 /4000.0))); while(RC4!=0)
  1441                           	opt asmopt_off
  1442  17ED  3041               movlw	65
  1443  17EE  00B4               movwf	((??_main+0)+0+1),f
  1444  17EF  30EE               	movlw	238
  1445  17F0  00B3               movwf	((??_main+0)+0),f
  1446  17F1                     u11557:
  1447  17F1  0BB3               	decfsz	((??_main+0)+0),f
  1448  17F2  2FF1               	goto	u11557
  1449  17F3  0BB4               	decfsz	((??_main+0)+0+1),f
  1450  17F4  2FF1               	goto	u11557
  1451  17F5  0064               	clrwdt
  1452                           opt asmopt_on
  1453                           
  1454  17F6  2FF7               	goto	l774
  1455                           	
  1456  17F7                     l775:	
  1457                           	
  1458  17F7                     l774:	
  1459  17F7  1283               	bcf	status, 5	;RP0=0, select bank0
  1460  17F8  1303               	bcf	status, 6	;RP1=0, select bank0
  1461  17F9  1A07               	btfsc	(60/8),(60)&7
  1462  17FA  2FFC               	goto	u8991
  1463  17FB  2FFD               	goto	u8990
  1464  17FC                     u8991:
  1465  17FC  2FF7               	goto	l774
  1466  17FD                     u8990:
  1467  17FD  120A  118A  2D87   	goto	l6675
  1468                           	
  1469  0587                     l776:	
  1470                           	
  1471  0587                     l6675:	
  1472                           	opt asmopt_off
  1473  0587  3027               movlw	39
  1474  0588  00B4               movwf	((??_main+0)+0+1),f
  1475  0589  30F5               	movlw	245
  1476  058A  00B3               movwf	((??_main+0)+0),f
  1477  058B                     u11567:
  1478  058B  0BB3               	decfsz	((??_main+0)+0),f
  1479  058C  2D8B               	goto	u11567
  1480  058D  0BB4               	decfsz	((??_main+0)+0+1),f
  1481  058E  2D8B               	goto	u11567
  1482                           opt asmopt_on
  1483                           
  1484  058F  2D90               	goto	l777
  1485                           	
  1486  0590                     l778:	
  1487                           	
  1488  0590                     l777:	
  1489  0590  1283               	bcf	status, 5	;RP0=0, select bank0
  1490  0591  1303               	bcf	status, 6	;RP1=0, select bank0
  1491  0592  1A07               	btfsc	(60/8),(60)&7
  1492  0593  2D95               	goto	u9001
  1493  0594  2D96               	goto	u9000
  1494  0595                     u9001:
  1495  0595  2D90               	goto	l777
  1496  0596                     u9000:
  1497  0596  2D97               	goto	l6677
  1498                           	
  1499  0597                     l779:	
  1500                           	
  1501  0597                     l6677:	
  1502                           	opt asmopt_off
  1503  0597  3027               movlw	39
  1504  0598  00B4               movwf	((??_main+0)+0+1),f
  1505  0599  30F5               	movlw	245
  1506  059A  00B3               movwf	((??_main+0)+0),f
  1507  059B                     u11577:
  1508  059B  0BB3               	decfsz	((??_main+0)+0),f
  1509  059C  2D9B               	goto	u11577
  1510  059D  0BB4               	decfsz	((??_main+0)+0+1),f
  1511  059E  2D9B               	goto	u11577
  1512                           opt asmopt_on
  1513                           
  1514  059F  2DA0               	goto	l780
  1515                           	
  1516  05A0                     l781:	
  1517                           	
  1518  05A0                     l780:	
  1519  05A0  1283               	bcf	status, 5	;RP0=0, select bank0
  1520  05A1  1303               	bcf	status, 6	;RP1=0, select bank0
  1521  05A2  1A07               	btfsc	(60/8),(60)&7
  1522  05A3  2DA5               	goto	u9011
  1523  05A4  2DA6               	goto	u9010
  1524  05A5                     u9011:
  1525  05A5  2DA0               	goto	l780
  1526  05A6                     u9010:
  1527  05A6  2DA7               	goto	l6679
  1528                           	
  1529  05A7                     l782:	
  1530                           	
  1531  05A7                     l6679:	
  1532                           	opt asmopt_off
  1533  05A7  3027               movlw	39
  1534  05A8  00B4               movwf	((??_main+0)+0+1),f
  1535  05A9  30F5               	movlw	245
  1536  05AA  00B3               movwf	((??_main+0)+0),f
  1537  05AB                     u11587:
  1538  05AB  0BB3               	decfsz	((??_main+0)+0),f
  1539  05AC  2DAB               	goto	u11587
  1540  05AD  0BB4               	decfsz	((??_main+0)+0+1),f
  1541  05AE  2DAB               	goto	u11587
  1542                           opt asmopt_on
  1543                           
  1544  05AF  2DB0               	goto	l783
  1545                           	
  1546  05B0                     l784:	
  1547                           	
  1548  05B0                     l783:	
  1549  05B0  1283               	bcf	status, 5	;RP0=0, select bank0
  1550  05B1  1303               	bcf	status, 6	;RP1=0, select bank0
  1551  05B2  1A07               	btfsc	(60/8),(60)&7
  1552  05B3  2DB5               	goto	u9021
  1553  05B4  2DB6               	goto	u9020
  1554  05B5                     u9021:
  1555  05B5  2DB0               	goto	l783
  1556  05B6                     u9020:
  1557  05B6  2DB7               	goto	l6681
  1558                           	
  1559  05B7                     l785:	
  1560                           	line	146
  1561                           	
  1562  05B7                     l6681:	
  1563                           ;keyboard_and_mouse_in_a_glove.c: 146: MouseSendLC();
  1564  05B7  160A  158A  26A6   	fcall	_MouseSendLC
              120A  118A         
  1565                           	line	147
  1566                           ;keyboard_and_mouse_in_a_glove.c: 147: }
  1567  05BC  2DC0               	goto	l7865
  1568                           	line	148
  1569                           	
  1570  05BD                     l773:	
  1571                           ;keyboard_and_mouse_in_a_glove.c: 148: else if( RB4!=0 ){
  1572  05BD  1E06               	btfss	(52/8),(52)&7
  1573  05BE  2DC0               	goto	u9031
  1574  05BF  2DC3               	goto	u9030
  1575  05C0                     u9031:
  1576  05C0  120A  158A  2FF8   	goto	l7865
  1577  05C3                     u9030:
  1578                           	line	149
  1579                           	
  1580  05C3                     l6683:	
  1581                           ;keyboard_and_mouse_in_a_glove.c: 149: nop=1;
  1582  05C3  1579               	bsf	(_nop/8),(_nop)&7
  1583                           	line	152
  1584                           	
  1585  05C4                     l6685:	
  1586                           ;keyboard_and_mouse_in_a_glove.c: 152: _delay((unsigned long)((50)*(4000000/4000.0))); w
                                 hile(RC4!=0); _delay((unsigned long)((30)*(4000000/4000.0))); while(RC4!=0); _delay((uns
                                 igned long)((30)*(4000000/4000.0))); while(RC4!=0); _delay((unsigned long)((30)*(4000000
                                 /4000.0))); while(RC4!=0)
  1587                           	opt asmopt_off
  1588  05C4  3041               movlw	65
  1589  05C5  00B4               movwf	((??_main+0)+0+1),f
  1590  05C6  30EE               	movlw	238
  1591  05C7  00B3               movwf	((??_main+0)+0),f
  1592  05C8                     u11597:
  1593  05C8  0BB3               	decfsz	((??_main+0)+0),f
  1594  05C9  2DC8               	goto	u11597
  1595  05CA  0BB4               	decfsz	((??_main+0)+0+1),f
  1596  05CB  2DC8               	goto	u11597
  1597  05CC  0064               	clrwdt
  1598                           opt asmopt_on
  1599                           
  1600  05CD  2DCE               	goto	l788
  1601                           	
  1602  05CE                     l789:	
  1603                           	
  1604  05CE                     l788:	
  1605  05CE  1283               	bcf	status, 5	;RP0=0, select bank0
  1606  05CF  1303               	bcf	status, 6	;RP1=0, select bank0
  1607  05D0  1A07               	btfsc	(60/8),(60)&7
  1608  05D1  2DD3               	goto	u9041
  1609  05D2  2DD4               	goto	u9040
  1610  05D3                     u9041:
  1611  05D3  2DCE               	goto	l788
  1612  05D4                     u9040:
  1613  05D4  2DD5               	goto	l6687
  1614                           	
  1615  05D5                     l790:	
  1616                           	
  1617  05D5                     l6687:	
  1618                           	opt asmopt_off
  1619  05D5  3027               movlw	39
  1620  05D6  00B4               movwf	((??_main+0)+0+1),f
  1621  05D7  30F5               	movlw	245
  1622  05D8  00B3               movwf	((??_main+0)+0),f
  1623  05D9                     u11607:
  1624  05D9  0BB3               	decfsz	((??_main+0)+0),f
  1625  05DA  2DD9               	goto	u11607
  1626  05DB  0BB4               	decfsz	((??_main+0)+0+1),f
  1627  05DC  2DD9               	goto	u11607
  1628                           opt asmopt_on
  1629                           
  1630  05DD  2DDE               	goto	l791
  1631                           	
  1632  05DE                     l792:	
  1633                           	
  1634  05DE                     l791:	
  1635  05DE  1283               	bcf	status, 5	;RP0=0, select bank0
  1636  05DF  1303               	bcf	status, 6	;RP1=0, select bank0
  1637  05E0  1A07               	btfsc	(60/8),(60)&7
  1638  05E1  2DE3               	goto	u9051
  1639  05E2  2DE4               	goto	u9050
  1640  05E3                     u9051:
  1641  05E3  2DDE               	goto	l791
  1642  05E4                     u9050:
  1643  05E4  2DE5               	goto	l6689
  1644                           	
  1645  05E5                     l793:	
  1646                           	
  1647  05E5                     l6689:	
  1648                           	opt asmopt_off
  1649  05E5  3027               movlw	39
  1650  05E6  00B4               movwf	((??_main+0)+0+1),f
  1651  05E7  30F5               	movlw	245
  1652  05E8  00B3               movwf	((??_main+0)+0),f
  1653  05E9                     u11617:
  1654  05E9  0BB3               	decfsz	((??_main+0)+0),f
  1655  05EA  2DE9               	goto	u11617
  1656  05EB  0BB4               	decfsz	((??_main+0)+0+1),f
  1657  05EC  2DE9               	goto	u11617
  1658                           opt asmopt_on
  1659                           
  1660  05ED  2DEE               	goto	l794
  1661                           	
  1662  05EE                     l795:	
  1663                           	
  1664  05EE                     l794:	
  1665  05EE  1283               	bcf	status, 5	;RP0=0, select bank0
  1666  05EF  1303               	bcf	status, 6	;RP1=0, select bank0
  1667  05F0  1A07               	btfsc	(60/8),(60)&7
  1668  05F1  2DF3               	goto	u9061
  1669  05F2  2DF4               	goto	u9060
  1670  05F3                     u9061:
  1671  05F3  2DEE               	goto	l794
  1672  05F4                     u9060:
  1673  05F4  2DF5               	goto	l6691
  1674                           	
  1675  05F5                     l796:	
  1676                           	
  1677  05F5                     l6691:	
  1678                           	opt asmopt_off
  1679  05F5  3027               movlw	39
  1680  05F6  00B4               movwf	((??_main+0)+0+1),f
  1681  05F7  30F5               	movlw	245
  1682  05F8  00B3               movwf	((??_main+0)+0),f
  1683  05F9                     u11627:
  1684  05F9  0BB3               	decfsz	((??_main+0)+0),f
  1685  05FA  2DF9               	goto	u11627
  1686  05FB  0BB4               	decfsz	((??_main+0)+0+1),f
  1687  05FC  2DF9               	goto	u11627
  1688                           opt asmopt_on
  1689                           
  1690  05FD  2DFE               	goto	l797
  1691                           	
  1692  05FE                     l798:	
  1693                           	
  1694  05FE                     l797:	
  1695  05FE  1283               	bcf	status, 5	;RP0=0, select bank0
  1696  05FF  1303               	bcf	status, 6	;RP1=0, select bank0
  1697  0600  1A07               	btfsc	(60/8),(60)&7
  1698  0601  2E03               	goto	u9071
  1699  0602  2E04               	goto	u9070
  1700  0603                     u9071:
  1701  0603  2DFE               	goto	l797
  1702  0604                     u9070:
  1703  0604  2E05               	goto	l6693
  1704                           	
  1705  0605                     l799:	
  1706                           	line	153
  1707                           	
  1708  0605                     l6693:	
  1709                           ;keyboard_and_mouse_in_a_glove.c: 153: MouseSendRC();
  1710  0605  160A  158A  26D9   	fcall	_MouseSendRC
              120A  118A         
  1711  060A  2DC0               	goto	l7865
  1712                           	line	154
  1713                           	
  1714  060B                     l787:	
  1715  060B  2DC0               	goto	l7865
  1716                           	line	155
  1717                           	
  1718  060C                     l786:	
  1719  060C  2DC0               	goto	l7865
  1720                           	
  1721  060D                     l772:	
  1722                           ;keyboard_and_mouse_in_a_glove.c: 154: }
  1723                           ;keyboard_and_mouse_in_a_glove.c: 155: }
  1724  060D  2DC0               	goto	l7865
  1725                           	line	156
  1726                           	
  1727  060E                     l722:	
  1728                           	line	158
  1729                           ;keyboard_and_mouse_in_a_glove.c: 156: else
  1730                           ;keyboard_and_mouse_in_a_glove.c: 157: {
  1731                           ;keyboard_and_mouse_in_a_glove.c: 158: RC1 = 0;
  1732  060E  1283               	bcf	status, 5	;RP0=0, select bank0
  1733  060F  1303               	bcf	status, 6	;RP1=0, select bank0
  1734  0610  1087               	bcf	(57/8),(57)&7
  1735                           	line	159
  1736                           ;keyboard_and_mouse_in_a_glove.c: 159: if(CAPSLOCK == 1){
  1737  0611  1C79               	btfss	(_CAPSLOCK/8),(_CAPSLOCK)&7
  1738  0612  2E14               	goto	u9081
  1739  0613  2E17               	goto	u9080
  1740  0614                     u9081:
  1741  0614  120A  118A  2841   	goto	l801
  1742  0617                     u9080:
  1743                           	line	160
  1744                           	
  1745  0617                     l6695:	
  1746                           ;keyboard_and_mouse_in_a_glove.c: 160: RC2 = 1;
  1747  0617  1507               	bsf	(58/8),(58)&7
  1748                           	line	161
  1749                           ;keyboard_and_mouse_in_a_glove.c: 161: if( RC4!=0 ){
  1750  0618  1E07               	btfss	(60/8),(60)&7
  1751  0619  2E1B               	goto	u9091
  1752  061A  2E1E               	goto	u9090
  1753  061B                     u9091:
  1754  061B  120A  118A  29B4   	goto	l802
  1755  061E                     u9090:
  1756                           	line	162
  1757                           	
  1758  061E                     l6697:	
  1759                           ;keyboard_and_mouse_in_a_glove.c: 162: nop=1;
  1760  061E  1579               	bsf	(_nop/8),(_nop)&7
  1761                           	line	165
  1762                           	
  1763  061F                     l6699:	
  1764                           ;keyboard_and_mouse_in_a_glove.c: 165: _delay((unsigned long)((50)*(4000000/4000.0))); w
                                 hile(RC4!=0); _delay((unsigned long)((30)*(4000000/4000.0))); while(RC4!=0); _delay((uns
                                 igned long)((30)*(4000000/4000.0))); while(RC4!=0); _delay((unsigned long)((30)*(4000000
                                 /4000.0))); while(RC4!=0)
  1765                           	opt asmopt_off
  1766  061F  3041               movlw	65
  1767  0620  00B4               movwf	((??_main+0)+0+1),f
  1768  0621  30EE               	movlw	238
  1769  0622  00B3               movwf	((??_main+0)+0),f
  1770  0623                     u11637:
  1771  0623  0BB3               	decfsz	((??_main+0)+0),f
  1772  0624  2E23               	goto	u11637
  1773  0625  0BB4               	decfsz	((??_main+0)+0+1),f
  1774  0626  2E23               	goto	u11637
  1775  0627  0064               	clrwdt
  1776                           opt asmopt_on
  1777                           
  1778  0628  2E29               	goto	l803
  1779                           	
  1780  0629                     l804:	
  1781                           	
  1782  0629                     l803:	
  1783  0629  1283               	bcf	status, 5	;RP0=0, select bank0
  1784  062A  1303               	bcf	status, 6	;RP1=0, select bank0
  1785  062B  1A07               	btfsc	(60/8),(60)&7
  1786  062C  2E2E               	goto	u9101
  1787  062D  2E2F               	goto	u9100
  1788  062E                     u9101:
  1789  062E  2E29               	goto	l803
  1790  062F                     u9100:
  1791  062F  2E30               	goto	l6701
  1792                           	
  1793  0630                     l805:	
  1794                           	
  1795  0630                     l6701:	
  1796                           	opt asmopt_off
  1797  0630  3027               movlw	39
  1798  0631  00B4               movwf	((??_main+0)+0+1),f
  1799  0632  30F5               	movlw	245
  1800  0633  00B3               movwf	((??_main+0)+0),f
  1801  0634                     u11647:
  1802  0634  0BB3               	decfsz	((??_main+0)+0),f
  1803  0635  2E34               	goto	u11647
  1804  0636  0BB4               	decfsz	((??_main+0)+0+1),f
  1805  0637  2E34               	goto	u11647
  1806                           opt asmopt_on
  1807                           
  1808  0638  2E39               	goto	l806
  1809                           	
  1810  0639                     l807:	
  1811                           	
  1812  0639                     l806:	
  1813  0639  1283               	bcf	status, 5	;RP0=0, select bank0
  1814  063A  1303               	bcf	status, 6	;RP1=0, select bank0
  1815  063B  1A07               	btfsc	(60/8),(60)&7
  1816  063C  2E3E               	goto	u9111
  1817  063D  2E3F               	goto	u9110
  1818  063E                     u9111:
  1819  063E  2E39               	goto	l806
  1820  063F                     u9110:
  1821  063F  2E40               	goto	l6703
  1822                           	
  1823  0640                     l808:	
  1824                           	
  1825  0640                     l6703:	
  1826                           	opt asmopt_off
  1827  0640  3027               movlw	39
  1828  0641  00B4               movwf	((??_main+0)+0+1),f
  1829  0642  30F5               	movlw	245
  1830  0643  00B3               movwf	((??_main+0)+0),f
  1831  0644                     u11657:
  1832  0644  0BB3               	decfsz	((??_main+0)+0),f
  1833  0645  2E44               	goto	u11657
  1834  0646  0BB4               	decfsz	((??_main+0)+0+1),f
  1835  0647  2E44               	goto	u11657
  1836                           opt asmopt_on
  1837                           
  1838  0648  2E49               	goto	l809
  1839                           	
  1840  0649                     l810:	
  1841                           	
  1842  0649                     l809:	
  1843  0649  1283               	bcf	status, 5	;RP0=0, select bank0
  1844  064A  1303               	bcf	status, 6	;RP1=0, select bank0
  1845  064B  1A07               	btfsc	(60/8),(60)&7
  1846  064C  2E4E               	goto	u9121
  1847  064D  2E4F               	goto	u9120
  1848  064E                     u9121:
  1849  064E  2E49               	goto	l809
  1850  064F                     u9120:
  1851  064F  2E50               	goto	l6705
  1852                           	
  1853  0650                     l811:	
  1854                           	
  1855  0650                     l6705:	
  1856                           	opt asmopt_off
  1857  0650  3027               movlw	39
  1858  0651  00B4               movwf	((??_main+0)+0+1),f
  1859  0652  30F5               	movlw	245
  1860  0653  00B3               movwf	((??_main+0)+0),f
  1861  0654                     u11667:
  1862  0654  0BB3               	decfsz	((??_main+0)+0),f
  1863  0655  2E54               	goto	u11667
  1864  0656  0BB4               	decfsz	((??_main+0)+0+1),f
  1865  0657  2E54               	goto	u11667
  1866                           opt asmopt_on
  1867                           
  1868  0658  2E59               	goto	l812
  1869                           	
  1870  0659                     l813:	
  1871                           	
  1872  0659                     l812:	
  1873  0659  1283               	bcf	status, 5	;RP0=0, select bank0
  1874  065A  1303               	bcf	status, 6	;RP1=0, select bank0
  1875  065B  1A07               	btfsc	(60/8),(60)&7
  1876  065C  2E5E               	goto	u9131
  1877  065D  2E5F               	goto	u9130
  1878  065E                     u9131:
  1879  065E  2E59               	goto	l812
  1880  065F                     u9130:
  1881  065F  2E60               	goto	l6707
  1882                           	
  1883  0660                     l814:	
  1884                           	line	168
  1885                           	
  1886  0660                     l6707:	
  1887                           ;keyboard_and_mouse_in_a_glove.c: 168: if ( counter==0 ){ KeySend('1'); prevChar='1'; co
                                 unter = 10; }
  1888  0660  0840               	movf	((_counter+1)),w
  1889  0661  043F               	iorwf	((_counter)),w
  1890  0662  1D03               	skipz
  1891  0663  2E65               	goto	u9141
  1892  0664  2E66               	goto	u9140
  1893  0665                     u9141:
  1894  0665  2E77               	goto	l6715
  1895  0666                     u9140:
  1896                           	
  1897  0666                     l6709:	
  1898  0666  3031               	movlw	(031h)
  1899  0667  160A  118A  2008   	fcall	_KeySend
              120A  118A         
  1900                           	
  1901  066C                     l6711:	
  1902  066C  3031               	movlw	(031h)
  1903  066D  1283               	bcf	status, 5	;RP0=0, select bank0
  1904  066E  1303               	bcf	status, 6	;RP1=0, select bank0
  1905  066F  00B3               	movwf	(??_main+0)+0
  1906  0670  0833               	movf	(??_main+0)+0,w
  1907  0671  00C1               	movwf	(_prevChar)
  1908                           	
  1909  0672                     l6713:	
  1910  0672  300A               	movlw	low(0Ah)
  1911  0673  00BF               	movwf	(_counter)
  1912  0674  3000               	movlw	high(0Ah)
  1913  0675  00C0               	movwf	((_counter))+1
  1914  0676  2DC0               	goto	l7865
  1915                           	line	169
  1916                           	
  1917  0677                     l815:	
  1918                           	
  1919  0677                     l6715:	
  1920                           ;keyboard_and_mouse_in_a_glove.c: 169: else if( prevChar=='1' ){ KeySend('^'); KeySend('
                                 .'); prevChar='.'; counter = 10; }
  1921  0677  0841               	movf	(_prevChar),w
  1922  0678  3A31               	xorlw	031h
  1923  0679  1D03               	skipz
  1924  067A  2E7C               	goto	u9151
  1925  067B  2E7F               	goto	u9150
  1926  067C                     u9151:
  1927  067C  120A  118A  2938   	goto	l6723
  1928  067F                     u9150:
  1929                           	
  1930  067F                     l6717:	
  1931  067F  305E               	movlw	(05Eh)
  1932  0680  160A  118A  2008   	fcall	_KeySend
              120A  118A         
  1933  0685  302E               	movlw	(02Eh)
  1934  0686  160A  118A  2008   	fcall	_KeySend
              120A  118A         
  1935                           	
  1936  068B                     l6719:	
  1937  068B  302E               	movlw	(02Eh)
  1938  068C  1283               	bcf	status, 5	;RP0=0, select bank0
  1939  068D  1303               	bcf	status, 6	;RP1=0, select bank0
  1940  068E  00B3               	movwf	(??_main+0)+0
  1941  068F  0833               	movf	(??_main+0)+0,w
  1942  0690  00C1               	movwf	(_prevChar)
  1943                           	
  1944  0691                     l6721:	
  1945  0691  300A               	movlw	low(0Ah)
  1946  0692  00BF               	movwf	(_counter)
  1947  0693  3000               	movlw	high(0Ah)
  1948  0694  00C0               	movwf	((_counter))+1
  1949  0695  2DC0               	goto	l7865
  1950                           	line	170
  1951                           	
  1952  0138                     l817:	
  1953                           	
  1954  0138                     l6723:	
  1955                           ;keyboard_and_mouse_in_a_glove.c: 170: else if( prevChar=='.' ){ KeySend('^'); KeySend('
                                 ,'); prevChar=','; counter = 10; }
  1956  0138  0841               	movf	(_prevChar),w
  1957  0139  3A2E               	xorlw	02Eh
  1958  013A  1D03               	skipz
  1959  013B  293D               	goto	u9161
  1960  013C  293E               	goto	u9160
  1961  013D                     u9161:
  1962  013D  2955               	goto	l6731
  1963  013E                     u9160:
  1964                           	
  1965  013E                     l6725:	
  1966  013E  305E               	movlw	(05Eh)
  1967  013F  160A  118A  2008   	fcall	_KeySend
              120A  118A         
  1968  0144  302C               	movlw	(02Ch)
  1969  0145  160A  118A  2008   	fcall	_KeySend
              120A  118A         
  1970                           	
  1971  014A                     l6727:	
  1972  014A  302C               	movlw	(02Ch)
  1973  014B  1283               	bcf	status, 5	;RP0=0, select bank0
  1974  014C  1303               	bcf	status, 6	;RP1=0, select bank0
  1975  014D  00B3               	movwf	(??_main+0)+0
  1976  014E  0833               	movf	(??_main+0)+0,w
  1977  014F  00C1               	movwf	(_prevChar)
  1978                           	
  1979  0150                     l6729:	
  1980  0150  300A               	movlw	low(0Ah)
  1981  0151  00BF               	movwf	(_counter)
  1982  0152  3000               	movlw	high(0Ah)
  1983  0153  00C0               	movwf	((_counter))+1
  1984  0154  2994               	goto	l7865
  1985                           	line	171
  1986                           	
  1987  0155                     l819:	
  1988                           	
  1989  0155                     l6731:	
  1990                           ;keyboard_and_mouse_in_a_glove.c: 171: else if( prevChar==',' ){ KeySend('^'); KeySend('
                                 ('); prevChar='('; counter = 10; }
  1991  0155  0841               	movf	(_prevChar),w
  1992  0156  3A2C               	xorlw	02Ch
  1993  0157  1D03               	skipz
  1994  0158  295A               	goto	u9171
  1995  0159  295B               	goto	u9170
  1996  015A                     u9171:
  1997  015A  2972               	goto	l6739
  1998  015B                     u9170:
  1999                           	
  2000  015B                     l6733:	
  2001  015B  305E               	movlw	(05Eh)
  2002  015C  160A  118A  2008   	fcall	_KeySend
              120A  118A         
  2003  0161  3028               	movlw	(028h)
  2004  0162  160A  118A  2008   	fcall	_KeySend
              120A  118A         
  2005                           	
  2006  0167                     l6735:	
  2007  0167  3028               	movlw	(028h)
  2008  0168  1283               	bcf	status, 5	;RP0=0, select bank0
  2009  0169  1303               	bcf	status, 6	;RP1=0, select bank0
  2010  016A  00B3               	movwf	(??_main+0)+0
  2011  016B  0833               	movf	(??_main+0)+0,w
  2012  016C  00C1               	movwf	(_prevChar)
  2013                           	
  2014  016D                     l6737:	
  2015  016D  300A               	movlw	low(0Ah)
  2016  016E  00BF               	movwf	(_counter)
  2017  016F  3000               	movlw	high(0Ah)
  2018  0170  00C0               	movwf	((_counter))+1
  2019  0171  2994               	goto	l7865
  2020                           	line	172
  2021                           	
  2022  0172                     l821:	
  2023                           	
  2024  0172                     l6739:	
  2025                           ;keyboard_and_mouse_in_a_glove.c: 172: else if( prevChar=='(' ){ KeySend('^'); KeySend('
                                 )'); prevChar=')'; counter = 10; }
  2026  0172  0841               	movf	(_prevChar),w
  2027  0173  3A28               	xorlw	028h
  2028  0174  1D03               	skipz
  2029  0175  2977               	goto	u9181
  2030  0176  2978               	goto	u9180
  2031  0177                     u9181:
  2032  0177  298F               	goto	l6747
  2033  0178                     u9180:
  2034                           	
  2035  0178                     l6741:	
  2036  0178  305E               	movlw	(05Eh)
  2037  0179  160A  118A  2008   	fcall	_KeySend
              120A  118A         
  2038  017E  3029               	movlw	(029h)
  2039  017F  160A  118A  2008   	fcall	_KeySend
              120A  118A         
  2040                           	
  2041  0184                     l6743:	
  2042  0184  3029               	movlw	(029h)
  2043  0185  1283               	bcf	status, 5	;RP0=0, select bank0
  2044  0186  1303               	bcf	status, 6	;RP1=0, select bank0
  2045  0187  00B3               	movwf	(??_main+0)+0
  2046  0188  0833               	movf	(??_main+0)+0,w
  2047  0189  00C1               	movwf	(_prevChar)
  2048                           	
  2049  018A                     l6745:	
  2050  018A  300A               	movlw	low(0Ah)
  2051  018B  00BF               	movwf	(_counter)
  2052  018C  3000               	movlw	high(0Ah)
  2053  018D  00C0               	movwf	((_counter))+1
  2054  018E  2994               	goto	l7865
  2055                           	line	173
  2056                           	
  2057  018F                     l823:	
  2058                           	
  2059  018F                     l6747:	
  2060                           ;keyboard_and_mouse_in_a_glove.c: 173: else if( prevChar==')' ){ KeySend('^'); KeySend('
                                 1'); prevChar='1'; counter = 10; }
  2061  018F  0841               	movf	(_prevChar),w
  2062  0190  3A29               	xorlw	029h
  2063  0191  1D03               	skipz
  2064  0192  2994               	goto	u9191
  2065  0193  2997               	goto	u9190
  2066  0194                     u9191:
  2067  0194  120A  158A  2FF8   	goto	l7865
  2068  0197                     u9190:
  2069                           	
  2070  0197                     l6749:	
  2071  0197  305E               	movlw	(05Eh)
  2072  0198  160A  118A  2008   	fcall	_KeySend
              120A  118A         
  2073  019D  3031               	movlw	(031h)
  2074  019E  160A  118A  2008   	fcall	_KeySend
              120A  118A         
  2075                           	
  2076  01A3                     l6751:	
  2077  01A3  3031               	movlw	(031h)
  2078  01A4  1283               	bcf	status, 5	;RP0=0, select bank0
  2079  01A5  1303               	bcf	status, 6	;RP1=0, select bank0
  2080  01A6  00B3               	movwf	(??_main+0)+0
  2081  01A7  0833               	movf	(??_main+0)+0,w
  2082  01A8  00C1               	movwf	(_prevChar)
  2083                           	
  2084  01A9                     l6753:	
  2085  01A9  300A               	movlw	low(0Ah)
  2086  01AA  00BF               	movwf	(_counter)
  2087  01AB  3000               	movlw	high(0Ah)
  2088  01AC  00C0               	movwf	((_counter))+1
  2089  01AD  2994               	goto	l7865
  2090                           	
  2091  01AE                     l825:	
  2092  01AE  2994               	goto	l7865
  2093                           	line	175
  2094                           	
  2095  01AF                     l824:	
  2096  01AF  2994               	goto	l7865
  2097                           	
  2098  01B0                     l822:	
  2099  01B0  2994               	goto	l7865
  2100                           	
  2101  01B1                     l820:	
  2102  01B1  2994               	goto	l7865
  2103                           	
  2104  01B2                     l818:	
  2105  01B2  2994               	goto	l7865
  2106                           	
  2107  01B3                     l816:	
  2108                           ;keyboard_and_mouse_in_a_glove.c: 175: }
  2109  01B3  2994               	goto	l7865
  2110                           	line	176
  2111                           	
  2112  01B4                     l802:	
  2113                           ;keyboard_and_mouse_in_a_glove.c: 176: else if( RD3!=0 ){
  2114  01B4  1D88               	btfss	(67/8),(67)&7
  2115  01B5  29B7               	goto	u9201
  2116  01B6  29BA               	goto	u9200
  2117  01B7                     u9201:
  2118  01B7  160A  118A  2C23   	goto	l827
  2119  01BA                     u9200:
  2120                           	line	177
  2121                           	
  2122  01BA                     l6755:	
  2123                           ;keyboard_and_mouse_in_a_glove.c: 177: nop=1;
  2124  01BA  1579               	bsf	(_nop/8),(_nop)&7
  2125                           	line	180
  2126                           	
  2127  01BB                     l6757:	
  2128                           ;keyboard_and_mouse_in_a_glove.c: 180: _delay((unsigned long)((50)*(4000000/4000.0))); w
                                 hile(RC4!=0); _delay((unsigned long)((30)*(4000000/4000.0))); while(RC4!=0); _delay((uns
                                 igned long)((30)*(4000000/4000.0))); while(RC4!=0); _delay((unsigned long)((30)*(4000000
                                 /4000.0))); while(RC4!=0)
  2129                           	opt asmopt_off
  2130  01BB  3041               movlw	65
  2131  01BC  00B4               movwf	((??_main+0)+0+1),f
  2132  01BD  30EE               	movlw	238
  2133  01BE  00B3               movwf	((??_main+0)+0),f
  2134  01BF                     u11677:
  2135  01BF  0BB3               	decfsz	((??_main+0)+0),f
  2136  01C0  29BF               	goto	u11677
  2137  01C1  0BB4               	decfsz	((??_main+0)+0+1),f
  2138  01C2  29BF               	goto	u11677
  2139  01C3  0064               	clrwdt
  2140                           opt asmopt_on
  2141                           
  2142  01C4  29C5               	goto	l828
  2143                           	
  2144  01C5                     l829:	
  2145                           	
  2146  01C5                     l828:	
  2147  01C5  1283               	bcf	status, 5	;RP0=0, select bank0
  2148  01C6  1303               	bcf	status, 6	;RP1=0, select bank0
  2149  01C7  1A07               	btfsc	(60/8),(60)&7
  2150  01C8  29CA               	goto	u9211
  2151  01C9  29CB               	goto	u9210
  2152  01CA                     u9211:
  2153  01CA  29C5               	goto	l828
  2154  01CB                     u9210:
  2155  01CB  29CC               	goto	l6759
  2156                           	
  2157  01CC                     l830:	
  2158                           	
  2159  01CC                     l6759:	
  2160                           	opt asmopt_off
  2161  01CC  3027               movlw	39
  2162  01CD  00B4               movwf	((??_main+0)+0+1),f
  2163  01CE  30F5               	movlw	245
  2164  01CF  00B3               movwf	((??_main+0)+0),f
  2165  01D0                     u11687:
  2166  01D0  0BB3               	decfsz	((??_main+0)+0),f
  2167  01D1  29D0               	goto	u11687
  2168  01D2  0BB4               	decfsz	((??_main+0)+0+1),f
  2169  01D3  29D0               	goto	u11687
  2170                           opt asmopt_on
  2171                           
  2172  01D4  29D5               	goto	l831
  2173                           	
  2174  01D5                     l832:	
  2175                           	
  2176  01D5                     l831:	
  2177  01D5  1283               	bcf	status, 5	;RP0=0, select bank0
  2178  01D6  1303               	bcf	status, 6	;RP1=0, select bank0
  2179  01D7  1A07               	btfsc	(60/8),(60)&7
  2180  01D8  29DA               	goto	u9221
  2181  01D9  29DB               	goto	u9220
  2182  01DA                     u9221:
  2183  01DA  29D5               	goto	l831
  2184  01DB                     u9220:
  2185  01DB  29DC               	goto	l6761
  2186                           	
  2187  01DC                     l833:	
  2188                           	
  2189  01DC                     l6761:	
  2190                           	opt asmopt_off
  2191  01DC  3027               movlw	39
  2192  01DD  00B4               movwf	((??_main+0)+0+1),f
  2193  01DE  30F5               	movlw	245
  2194  01DF  00B3               movwf	((??_main+0)+0),f
  2195  01E0                     u11697:
  2196  01E0  0BB3               	decfsz	((??_main+0)+0),f
  2197  01E1  29E0               	goto	u11697
  2198  01E2  0BB4               	decfsz	((??_main+0)+0+1),f
  2199  01E3  29E0               	goto	u11697
  2200                           opt asmopt_on
  2201                           
  2202  01E4  29E5               	goto	l834
  2203                           	
  2204  01E5                     l835:	
  2205                           	
  2206  01E5                     l834:	
  2207  01E5  1283               	bcf	status, 5	;RP0=0, select bank0
  2208  01E6  1303               	bcf	status, 6	;RP1=0, select bank0
  2209  01E7  1A07               	btfsc	(60/8),(60)&7
  2210  01E8  29EA               	goto	u9231
  2211  01E9  29EB               	goto	u9230
  2212  01EA                     u9231:
  2213  01EA  29E5               	goto	l834
  2214  01EB                     u9230:
  2215  01EB  29EC               	goto	l6763
  2216                           	
  2217  01EC                     l836:	
  2218                           	
  2219  01EC                     l6763:	
  2220                           	opt asmopt_off
  2221  01EC  3027               movlw	39
  2222  01ED  00B4               movwf	((??_main+0)+0+1),f
  2223  01EE  30F5               	movlw	245
  2224  01EF  00B3               movwf	((??_main+0)+0),f
  2225  01F0                     u11707:
  2226  01F0  0BB3               	decfsz	((??_main+0)+0),f
  2227  01F1  29F0               	goto	u11707
  2228  01F2  0BB4               	decfsz	((??_main+0)+0+1),f
  2229  01F3  29F0               	goto	u11707
  2230                           opt asmopt_on
  2231                           
  2232  01F4  29F5               	goto	l837
  2233                           	
  2234  01F5                     l838:	
  2235                           	
  2236  01F5                     l837:	
  2237  01F5  1283               	bcf	status, 5	;RP0=0, select bank0
  2238  01F6  1303               	bcf	status, 6	;RP1=0, select bank0
  2239  01F7  1A07               	btfsc	(60/8),(60)&7
  2240  01F8  29FA               	goto	u9241
  2241  01F9  29FB               	goto	u9240
  2242  01FA                     u9241:
  2243  01FA  29F5               	goto	l837
  2244  01FB                     u9240:
  2245  01FB  29FC               	goto	l6765
  2246                           	
  2247  01FC                     l839:	
  2248                           	line	183
  2249                           	
  2250  01FC                     l6765:	
  2251                           ;keyboard_and_mouse_in_a_glove.c: 183: if ( counter==0 ){ KeySend('A'); prevChar='A'; co
                                 unter = 10; }
  2252  01FC  0840               	movf	((_counter+1)),w
  2253  01FD  043F               	iorwf	((_counter)),w
  2254  01FE  1D03               	skipz
  2255  01FF  2A01               	goto	u9251
  2256  0200  2A02               	goto	u9250
  2257  0201                     u9251:
  2258  0201  2A13               	goto	l6773
  2259  0202                     u9250:
  2260                           	
  2261  0202                     l6767:	
  2262  0202  3041               	movlw	(041h)
  2263  0203  160A  118A  2008   	fcall	_KeySend
              120A  118A         
  2264                           	
  2265  0208                     l6769:	
  2266  0208  3041               	movlw	(041h)
  2267  0209  1283               	bcf	status, 5	;RP0=0, select bank0
  2268  020A  1303               	bcf	status, 6	;RP1=0, select bank0
  2269  020B  00B3               	movwf	(??_main+0)+0
  2270  020C  0833               	movf	(??_main+0)+0,w
  2271  020D  00C1               	movwf	(_prevChar)
  2272                           	
  2273  020E                     l6771:	
  2274  020E  300A               	movlw	low(0Ah)
  2275  020F  00BF               	movwf	(_counter)
  2276  0210  3000               	movlw	high(0Ah)
  2277  0211  00C0               	movwf	((_counter))+1
  2278  0212  2994               	goto	l7865
  2279                           	line	184
  2280                           	
  2281  0213                     l840:	
  2282                           	
  2283  0213                     l6773:	
  2284                           ;keyboard_and_mouse_in_a_glove.c: 184: else if( prevChar=='A' ){ KeySend('^'); KeySend('
                                 B'); prevChar='B'; counter = 10; }
  2285  0213  0841               	movf	(_prevChar),w
  2286  0214  3A41               	xorlw	041h
  2287  0215  1D03               	skipz
  2288  0216  2A18               	goto	u9261
  2289  0217  2A19               	goto	u9260
  2290  0218                     u9261:
  2291  0218  2A30               	goto	l6781
  2292  0219                     u9260:
  2293                           	
  2294  0219                     l6775:	
  2295  0219  305E               	movlw	(05Eh)
  2296  021A  160A  118A  2008   	fcall	_KeySend
              120A  118A         
  2297  021F  3042               	movlw	(042h)
  2298  0220  160A  118A  2008   	fcall	_KeySend
              120A  118A         
  2299                           	
  2300  0225                     l6777:	
  2301  0225  3042               	movlw	(042h)
  2302  0226  1283               	bcf	status, 5	;RP0=0, select bank0
  2303  0227  1303               	bcf	status, 6	;RP1=0, select bank0
  2304  0228  00B3               	movwf	(??_main+0)+0
  2305  0229  0833               	movf	(??_main+0)+0,w
  2306  022A  00C1               	movwf	(_prevChar)
  2307                           	
  2308  022B                     l6779:	
  2309  022B  300A               	movlw	low(0Ah)
  2310  022C  00BF               	movwf	(_counter)
  2311  022D  3000               	movlw	high(0Ah)
  2312  022E  00C0               	movwf	((_counter))+1
  2313  022F  2994               	goto	l7865
  2314                           	line	185
  2315                           	
  2316  0230                     l842:	
  2317                           	
  2318  0230                     l6781:	
  2319                           ;keyboard_and_mouse_in_a_glove.c: 185: else if( prevChar=='B' ){ KeySend('^'); KeySend('
                                 C'); prevChar='C'; counter = 10; }
  2320  0230  0841               	movf	(_prevChar),w
  2321  0231  3A42               	xorlw	042h
  2322  0232  1D03               	skipz
  2323  0233  2A35               	goto	u9271
  2324  0234  2A38               	goto	u9270
  2325  0235                     u9271:
  2326  0235  160A  118A  2BD1   	goto	l6789
  2327  0238                     u9270:
  2328                           	
  2329  0238                     l6783:	
  2330  0238  305E               	movlw	(05Eh)
  2331  0239  160A  118A  2008   	fcall	_KeySend
              120A  118A         
  2332  023E  3043               	movlw	(043h)
  2333  023F  160A  118A  2008   	fcall	_KeySend
              120A  118A         
  2334                           	
  2335  0244                     l6785:	
  2336  0244  3043               	movlw	(043h)
  2337  0245  1283               	bcf	status, 5	;RP0=0, select bank0
  2338  0246  1303               	bcf	status, 6	;RP1=0, select bank0
  2339  0247  00B3               	movwf	(??_main+0)+0
  2340  0248  0833               	movf	(??_main+0)+0,w
  2341  0249  00C1               	movwf	(_prevChar)
  2342                           	
  2343  024A                     l6787:	
  2344  024A  300A               	movlw	low(0Ah)
  2345  024B  00BF               	movwf	(_counter)
  2346  024C  3000               	movlw	high(0Ah)
  2347  024D  00C0               	movwf	((_counter))+1
  2348  024E  2994               	goto	l7865
  2349                           	line	186
  2350                           	
  2351  13D1                     l844:	
  2352                           	
  2353  13D1                     l6789:	
  2354                           ;keyboard_and_mouse_in_a_glove.c: 186: else if( prevChar=='C' ){ KeySend('^'); KeySend('
                                 2'); prevChar='2'; counter = 10; }
  2355  13D1  0841               	movf	(_prevChar),w
  2356  13D2  3A43               	xorlw	043h
  2357  13D3  1D03               	skipz
  2358  13D4  2BD6               	goto	u9281
  2359  13D5  2BD7               	goto	u9280
  2360  13D6                     u9281:
  2361  13D6  2BEE               	goto	l6797
  2362  13D7                     u9280:
  2363                           	
  2364  13D7                     l6791:	
  2365  13D7  305E               	movlw	(05Eh)
  2366  13D8  160A  118A  2008   	fcall	_KeySend
              160A  118A         
  2367  13DD  3032               	movlw	(032h)
  2368  13DE  160A  118A  2008   	fcall	_KeySend
              160A  118A         
  2369                           	
  2370  13E3                     l6793:	
  2371  13E3  3032               	movlw	(032h)
  2372  13E4  1283               	bcf	status, 5	;RP0=0, select bank0
  2373  13E5  1303               	bcf	status, 6	;RP1=0, select bank0
  2374  13E6  00B3               	movwf	(??_main+0)+0
  2375  13E7  0833               	movf	(??_main+0)+0,w
  2376  13E8  00C1               	movwf	(_prevChar)
  2377                           	
  2378  13E9                     l6795:	
  2379  13E9  300A               	movlw	low(0Ah)
  2380  13EA  00BF               	movwf	(_counter)
  2381  13EB  3000               	movlw	high(0Ah)
  2382  13EC  00C0               	movwf	((_counter))+1
  2383  13ED  2C1C               	goto	l7865
  2384                           	line	187
  2385                           	
  2386  13EE                     l846:	
  2387                           	
  2388  13EE                     l6797:	
  2389                           ;keyboard_and_mouse_in_a_glove.c: 187: else if( prevChar=='2' ){ KeySend('^'); KeySend('
                                 A'); prevChar='A'; counter = 10; }
  2390  13EE  0841               	movf	(_prevChar),w
  2391  13EF  3A32               	xorlw	032h
  2392  13F0  1D03               	skipz
  2393  13F1  2BF3               	goto	u9291
  2394  13F2  2BF4               	goto	u9290
  2395  13F3                     u9291:
  2396  13F3  2C0B               	goto	l6805
  2397  13F4                     u9290:
  2398                           	
  2399  13F4                     l6799:	
  2400  13F4  305E               	movlw	(05Eh)
  2401  13F5  160A  118A  2008   	fcall	_KeySend
              160A  118A         
  2402  13FA  3041               	movlw	(041h)
  2403  13FB  160A  118A  2008   	fcall	_KeySend
              160A  118A         
  2404                           	
  2405  1400                     l6801:	
  2406  1400  3041               	movlw	(041h)
  2407  1401  1283               	bcf	status, 5	;RP0=0, select bank0
  2408  1402  1303               	bcf	status, 6	;RP1=0, select bank0
  2409  1403  00B3               	movwf	(??_main+0)+0
  2410  1404  0833               	movf	(??_main+0)+0,w
  2411  1405  00C1               	movwf	(_prevChar)
  2412                           	
  2413  1406                     l6803:	
  2414  1406  300A               	movlw	low(0Ah)
  2415  1407  00BF               	movwf	(_counter)
  2416  1408  3000               	movlw	high(0Ah)
  2417  1409  00C0               	movwf	((_counter))+1
  2418  140A  2C1C               	goto	l7865
  2419                           	line	188
  2420                           	
  2421  140B                     l848:	
  2422                           	
  2423  140B                     l6805:	
  2424                           ;keyboard_and_mouse_in_a_glove.c: 188: else { KeySend('A'); prevChar='A'; counter = 10; 
                                 }
  2425  140B  3041               	movlw	(041h)
  2426  140C  160A  118A  2008   	fcall	_KeySend
              160A  118A         
  2427                           	
  2428  1411                     l6807:	
  2429  1411  3041               	movlw	(041h)
  2430  1412  1283               	bcf	status, 5	;RP0=0, select bank0
  2431  1413  1303               	bcf	status, 6	;RP1=0, select bank0
  2432  1414  00B3               	movwf	(??_main+0)+0
  2433  1415  0833               	movf	(??_main+0)+0,w
  2434  1416  00C1               	movwf	(_prevChar)
  2435                           	
  2436  1417                     l6809:	
  2437  1417  300A               	movlw	low(0Ah)
  2438  1418  00BF               	movwf	(_counter)
  2439  1419  3000               	movlw	high(0Ah)
  2440  141A  00C0               	movwf	((_counter))+1
  2441  141B  2C1C               	goto	l7865
  2442                           	
  2443  141C                     l849:	
  2444  141C  120A  158A  2FF8   	goto	l7865
  2445                           	
  2446  141F                     l847:	
  2447  141F  2C1C               	goto	l7865
  2448                           	
  2449  1420                     l845:	
  2450  1420  2C1C               	goto	l7865
  2451                           	
  2452  1421                     l843:	
  2453  1421  2C1C               	goto	l7865
  2454                           	
  2455  1422                     l841:	
  2456                           	line	189
  2457                           ;keyboard_and_mouse_in_a_glove.c: 189: }
  2458  1422  2C1C               	goto	l7865
  2459                           	line	191
  2460                           	
  2461  1423                     l827:	
  2462                           ;keyboard_and_mouse_in_a_glove.c: 191: else if( RB4!=0 ){
  2463  1423  1E06               	btfss	(52/8),(52)&7
  2464  1424  2C26               	goto	u9301
  2465  1425  2C29               	goto	u9300
  2466  1426                     u9301:
  2467  1426  160A  118A  2AFC   	goto	l851
  2468  1429                     u9300:
  2469                           	line	192
  2470                           	
  2471  1429                     l6811:	
  2472                           ;keyboard_and_mouse_in_a_glove.c: 192: nop=1;
  2473  1429  1579               	bsf	(_nop/8),(_nop)&7
  2474                           	line	195
  2475                           	
  2476  142A                     l6813:	
  2477                           ;keyboard_and_mouse_in_a_glove.c: 195: _delay((unsigned long)((50)*(4000000/4000.0))); w
                                 hile(RC4!=0); _delay((unsigned long)((30)*(4000000/4000.0))); while(RC4!=0); _delay((uns
                                 igned long)((30)*(4000000/4000.0))); while(RC4!=0); _delay((unsigned long)((30)*(4000000
                                 /4000.0))); while(RC4!=0)
  2478                           	opt asmopt_off
  2479  142A  3041               movlw	65
  2480  142B  00B4               movwf	((??_main+0)+0+1),f
  2481  142C  30EE               	movlw	238
  2482  142D  00B3               movwf	((??_main+0)+0),f
  2483  142E                     u11717:
  2484  142E  0BB3               	decfsz	((??_main+0)+0),f
  2485  142F  2C2E               	goto	u11717
  2486  1430  0BB4               	decfsz	((??_main+0)+0+1),f
  2487  1431  2C2E               	goto	u11717
  2488  1432  0064               	clrwdt
  2489                           opt asmopt_on
  2490                           
  2491  1433  2C34               	goto	l852
  2492                           	
  2493  1434                     l853:	
  2494                           	
  2495  1434                     l852:	
  2496  1434  1283               	bcf	status, 5	;RP0=0, select bank0
  2497  1435  1303               	bcf	status, 6	;RP1=0, select bank0
  2498  1436  1A07               	btfsc	(60/8),(60)&7
  2499  1437  2C39               	goto	u9311
  2500  1438  2C3A               	goto	u9310
  2501  1439                     u9311:
  2502  1439  2C34               	goto	l852
  2503  143A                     u9310:
  2504  143A  2C3B               	goto	l6815
  2505                           	
  2506  143B                     l854:	
  2507                           	
  2508  143B                     l6815:	
  2509                           	opt asmopt_off
  2510  143B  3027               movlw	39
  2511  143C  00B4               movwf	((??_main+0)+0+1),f
  2512  143D  30F5               	movlw	245
  2513  143E  00B3               movwf	((??_main+0)+0),f
  2514  143F                     u11727:
  2515  143F  0BB3               	decfsz	((??_main+0)+0),f
  2516  1440  2C3F               	goto	u11727
  2517  1441  0BB4               	decfsz	((??_main+0)+0+1),f
  2518  1442  2C3F               	goto	u11727
  2519                           opt asmopt_on
  2520                           
  2521  1443  2C44               	goto	l855
  2522                           	
  2523  1444                     l856:	
  2524                           	
  2525  1444                     l855:	
  2526  1444  1283               	bcf	status, 5	;RP0=0, select bank0
  2527  1445  1303               	bcf	status, 6	;RP1=0, select bank0
  2528  1446  1A07               	btfsc	(60/8),(60)&7
  2529  1447  2C49               	goto	u9321
  2530  1448  2C4A               	goto	u9320
  2531  1449                     u9321:
  2532  1449  2C44               	goto	l855
  2533  144A                     u9320:
  2534  144A  2C4B               	goto	l6817
  2535                           	
  2536  144B                     l857:	
  2537                           	
  2538  144B                     l6817:	
  2539                           	opt asmopt_off
  2540  144B  3027               movlw	39
  2541  144C  00B4               movwf	((??_main+0)+0+1),f
  2542  144D  30F5               	movlw	245
  2543  144E  00B3               movwf	((??_main+0)+0),f
  2544  144F                     u11737:
  2545  144F  0BB3               	decfsz	((??_main+0)+0),f
  2546  1450  2C4F               	goto	u11737
  2547  1451  0BB4               	decfsz	((??_main+0)+0+1),f
  2548  1452  2C4F               	goto	u11737
  2549                           opt asmopt_on
  2550                           
  2551  1453  2C54               	goto	l858
  2552                           	
  2553  1454                     l859:	
  2554                           	
  2555  1454                     l858:	
  2556  1454  1283               	bcf	status, 5	;RP0=0, select bank0
  2557  1455  1303               	bcf	status, 6	;RP1=0, select bank0
  2558  1456  1A07               	btfsc	(60/8),(60)&7
  2559  1457  2C59               	goto	u9331
  2560  1458  2C5A               	goto	u9330
  2561  1459                     u9331:
  2562  1459  2C54               	goto	l858
  2563  145A                     u9330:
  2564  145A  2C5B               	goto	l6819
  2565                           	
  2566  145B                     l860:	
  2567                           	
  2568  145B                     l6819:	
  2569                           	opt asmopt_off
  2570  145B  3027               movlw	39
  2571  145C  00B4               movwf	((??_main+0)+0+1),f
  2572  145D  30F5               	movlw	245
  2573  145E  00B3               movwf	((??_main+0)+0),f
  2574  145F                     u11747:
  2575  145F  0BB3               	decfsz	((??_main+0)+0),f
  2576  1460  2C5F               	goto	u11747
  2577  1461  0BB4               	decfsz	((??_main+0)+0+1),f
  2578  1462  2C5F               	goto	u11747
  2579                           opt asmopt_on
  2580                           
  2581  1463  2C64               	goto	l861
  2582                           	
  2583  1464                     l862:	
  2584                           	
  2585  1464                     l861:	
  2586  1464  1283               	bcf	status, 5	;RP0=0, select bank0
  2587  1465  1303               	bcf	status, 6	;RP1=0, select bank0
  2588  1466  1A07               	btfsc	(60/8),(60)&7
  2589  1467  2C69               	goto	u9341
  2590  1468  2C6A               	goto	u9340
  2591  1469                     u9341:
  2592  1469  2C64               	goto	l861
  2593  146A                     u9340:
  2594  146A  2C6B               	goto	l6821
  2595                           	
  2596  146B                     l863:	
  2597                           	line	198
  2598                           	
  2599  146B                     l6821:	
  2600                           ;keyboard_and_mouse_in_a_glove.c: 198: if ( counter==0 ){ KeySend('D'); prevChar='D'; co
                                 unter = 10; }
  2601  146B  0840               	movf	((_counter+1)),w
  2602  146C  043F               	iorwf	((_counter)),w
  2603  146D  1D03               	skipz
  2604  146E  2C70               	goto	u9351
  2605  146F  2C71               	goto	u9350
  2606  1470                     u9351:
  2607  1470  2C82               	goto	l6829
  2608  1471                     u9350:
  2609                           	
  2610  1471                     l6823:	
  2611  1471  3044               	movlw	(044h)
  2612  1472  160A  118A  2008   	fcall	_KeySend
              160A  118A         
  2613                           	
  2614  1477                     l6825:	
  2615  1477  3044               	movlw	(044h)
  2616  1478  1283               	bcf	status, 5	;RP0=0, select bank0
  2617  1479  1303               	bcf	status, 6	;RP1=0, select bank0
  2618  147A  00B3               	movwf	(??_main+0)+0
  2619  147B  0833               	movf	(??_main+0)+0,w
  2620  147C  00C1               	movwf	(_prevChar)
  2621                           	
  2622  147D                     l6827:	
  2623  147D  300A               	movlw	low(0Ah)
  2624  147E  00BF               	movwf	(_counter)
  2625  147F  3000               	movlw	high(0Ah)
  2626  1480  00C0               	movwf	((_counter))+1
  2627  1481  2C1C               	goto	l7865
  2628                           	line	199
  2629                           	
  2630  1482                     l864:	
  2631                           	
  2632  1482                     l6829:	
  2633                           ;keyboard_and_mouse_in_a_glove.c: 199: else if( prevChar=='D' ){ KeySend('^'); KeySend('
                                 E'); prevChar='E'; counter = 10; }
  2634  1482  0841               	movf	(_prevChar),w
  2635  1483  3A44               	xorlw	044h
  2636  1484  1D03               	skipz
  2637  1485  2C87               	goto	u9361
  2638  1486  2C88               	goto	u9360
  2639  1487                     u9361:
  2640  1487  2C9F               	goto	l6837
  2641  1488                     u9360:
  2642                           	
  2643  1488                     l6831:	
  2644  1488  305E               	movlw	(05Eh)
  2645  1489  160A  118A  2008   	fcall	_KeySend
              160A  118A         
  2646  148E  3045               	movlw	(045h)
  2647  148F  160A  118A  2008   	fcall	_KeySend
              160A  118A         
  2648                           	
  2649  1494                     l6833:	
  2650  1494  3045               	movlw	(045h)
  2651  1495  1283               	bcf	status, 5	;RP0=0, select bank0
  2652  1496  1303               	bcf	status, 6	;RP1=0, select bank0
  2653  1497  00B3               	movwf	(??_main+0)+0
  2654  1498  0833               	movf	(??_main+0)+0,w
  2655  1499  00C1               	movwf	(_prevChar)
  2656                           	
  2657  149A                     l6835:	
  2658  149A  300A               	movlw	low(0Ah)
  2659  149B  00BF               	movwf	(_counter)
  2660  149C  3000               	movlw	high(0Ah)
  2661  149D  00C0               	movwf	((_counter))+1
  2662  149E  2C1C               	goto	l7865
  2663                           	line	200
  2664                           	
  2665  149F                     l866:	
  2666                           	
  2667  149F                     l6837:	
  2668                           ;keyboard_and_mouse_in_a_glove.c: 200: else if( prevChar=='E' ){ KeySend('^'); KeySend('
                                 F'); prevChar='F'; counter = 10; }
  2669  149F  0841               	movf	(_prevChar),w
  2670  14A0  3A45               	xorlw	045h
  2671  14A1  1D03               	skipz
  2672  14A2  2CA4               	goto	u9371
  2673  14A3  2CA5               	goto	u9370
  2674  14A4                     u9371:
  2675  14A4  2CBC               	goto	l6845
  2676  14A5                     u9370:
  2677                           	
  2678  14A5                     l6839:	
  2679  14A5  305E               	movlw	(05Eh)
  2680  14A6  160A  118A  2008   	fcall	_KeySend
              160A  118A         
  2681  14AB  3046               	movlw	(046h)
  2682  14AC  160A  118A  2008   	fcall	_KeySend
              160A  118A         
  2683                           	
  2684  14B1                     l6841:	
  2685  14B1  3046               	movlw	(046h)
  2686  14B2  1283               	bcf	status, 5	;RP0=0, select bank0
  2687  14B3  1303               	bcf	status, 6	;RP1=0, select bank0
  2688  14B4  00B3               	movwf	(??_main+0)+0
  2689  14B5  0833               	movf	(??_main+0)+0,w
  2690  14B6  00C1               	movwf	(_prevChar)
  2691                           	
  2692  14B7                     l6843:	
  2693  14B7  300A               	movlw	low(0Ah)
  2694  14B8  00BF               	movwf	(_counter)
  2695  14B9  3000               	movlw	high(0Ah)
  2696  14BA  00C0               	movwf	((_counter))+1
  2697  14BB  2C1C               	goto	l7865
  2698                           	line	201
  2699                           	
  2700  14BC                     l868:	
  2701                           	
  2702  14BC                     l6845:	
  2703                           ;keyboard_and_mouse_in_a_glove.c: 201: else if( prevChar=='F' ){ KeySend('^'); KeySend('
                                 3'); prevChar='3'; counter = 10; }
  2704  14BC  0841               	movf	(_prevChar),w
  2705  14BD  3A46               	xorlw	046h
  2706  14BE  1D03               	skipz
  2707  14BF  2CC1               	goto	u9381
  2708  14C0  2CC4               	goto	u9380
  2709  14C1                     u9381:
  2710  14C1  160A  118A  2AC7   	goto	l6853
  2711  14C4                     u9380:
  2712                           	
  2713  14C4                     l6847:	
  2714  14C4  305E               	movlw	(05Eh)
  2715  14C5  160A  118A  2008   	fcall	_KeySend
              160A  118A         
  2716  14CA  3033               	movlw	(033h)
  2717  14CB  160A  118A  2008   	fcall	_KeySend
              160A  118A         
  2718                           	
  2719  14D0                     l6849:	
  2720  14D0  3033               	movlw	(033h)
  2721  14D1  1283               	bcf	status, 5	;RP0=0, select bank0
  2722  14D2  1303               	bcf	status, 6	;RP1=0, select bank0
  2723  14D3  00B3               	movwf	(??_main+0)+0
  2724  14D4  0833               	movf	(??_main+0)+0,w
  2725  14D5  00C1               	movwf	(_prevChar)
  2726                           	
  2727  14D6                     l6851:	
  2728  14D6  300A               	movlw	low(0Ah)
  2729  14D7  00BF               	movwf	(_counter)
  2730  14D8  3000               	movlw	high(0Ah)
  2731  14D9  00C0               	movwf	((_counter))+1
  2732  14DA  2C1C               	goto	l7865
  2733                           	line	202
  2734                           	
  2735  12C7                     l870:	
  2736                           	
  2737  12C7                     l6853:	
  2738                           ;keyboard_and_mouse_in_a_glove.c: 202: else if( prevChar=='3' ){ KeySend('^'); KeySend('
                                 D'); prevChar='D'; counter = 10; }
  2739  12C7  0841               	movf	(_prevChar),w
  2740  12C8  3A33               	xorlw	033h
  2741  12C9  1D03               	skipz
  2742  12CA  2ACC               	goto	u9391
  2743  12CB  2ACD               	goto	u9390
  2744  12CC                     u9391:
  2745  12CC  2AE4               	goto	l6861
  2746  12CD                     u9390:
  2747                           	
  2748  12CD                     l6855:	
  2749  12CD  305E               	movlw	(05Eh)
  2750  12CE  160A  118A  2008   	fcall	_KeySend
              160A  118A         
  2751  12D3  3044               	movlw	(044h)
  2752  12D4  160A  118A  2008   	fcall	_KeySend
              160A  118A         
  2753                           	
  2754  12D9                     l6857:	
  2755  12D9  3044               	movlw	(044h)
  2756  12DA  1283               	bcf	status, 5	;RP0=0, select bank0
  2757  12DB  1303               	bcf	status, 6	;RP1=0, select bank0
  2758  12DC  00B3               	movwf	(??_main+0)+0
  2759  12DD  0833               	movf	(??_main+0)+0,w
  2760  12DE  00C1               	movwf	(_prevChar)
  2761                           	
  2762  12DF                     l6859:	
  2763  12DF  300A               	movlw	low(0Ah)
  2764  12E0  00BF               	movwf	(_counter)
  2765  12E1  3000               	movlw	high(0Ah)
  2766  12E2  00C0               	movwf	((_counter))+1
  2767  12E3  2AF5               	goto	l7865
  2768                           	line	203
  2769                           	
  2770  12E4                     l872:	
  2771                           	
  2772  12E4                     l6861:	
  2773                           ;keyboard_and_mouse_in_a_glove.c: 203: else { KeySend('D'); prevChar='D'; counter = 10; 
                                 }
  2774  12E4  3044               	movlw	(044h)
  2775  12E5  160A  118A  2008   	fcall	_KeySend
              160A  118A         
  2776                           	
  2777  12EA                     l6863:	
  2778  12EA  3044               	movlw	(044h)
  2779  12EB  1283               	bcf	status, 5	;RP0=0, select bank0
  2780  12EC  1303               	bcf	status, 6	;RP1=0, select bank0
  2781  12ED  00B3               	movwf	(??_main+0)+0
  2782  12EE  0833               	movf	(??_main+0)+0,w
  2783  12EF  00C1               	movwf	(_prevChar)
  2784                           	
  2785  12F0                     l6865:	
  2786  12F0  300A               	movlw	low(0Ah)
  2787  12F1  00BF               	movwf	(_counter)
  2788  12F2  3000               	movlw	high(0Ah)
  2789  12F3  00C0               	movwf	((_counter))+1
  2790  12F4  2AF5               	goto	l7865
  2791                           	
  2792  12F5                     l873:	
  2793  12F5  120A  158A  2FF8   	goto	l7865
  2794                           	
  2795  12F8                     l871:	
  2796  12F8  2AF5               	goto	l7865
  2797                           	
  2798  12F9                     l869:	
  2799  12F9  2AF5               	goto	l7865
  2800                           	
  2801  12FA                     l867:	
  2802  12FA  2AF5               	goto	l7865
  2803                           	
  2804  12FB                     l865:	
  2805                           	line	204
  2806                           ;keyboard_and_mouse_in_a_glove.c: 204: }
  2807  12FB  2AF5               	goto	l7865
  2808                           	line	206
  2809                           	
  2810  12FC                     l851:	
  2811                           ;keyboard_and_mouse_in_a_glove.c: 206: else if( RB0!=0 ){
  2812  12FC  1C06               	btfss	(48/8),(48)&7
  2813  12FD  2AFF               	goto	u9401
  2814  12FE  2B02               	goto	u9400
  2815  12FF                     u9401:
  2816  12FF  160A  118A  28D0   	goto	l875
  2817  1302                     u9400:
  2818                           	line	207
  2819                           	
  2820  1302                     l6867:	
  2821                           ;keyboard_and_mouse_in_a_glove.c: 207: nop=1;
  2822  1302  1579               	bsf	(_nop/8),(_nop)&7
  2823                           	line	210
  2824                           	
  2825  1303                     l6869:	
  2826                           ;keyboard_and_mouse_in_a_glove.c: 210: _delay((unsigned long)((50)*(4000000/4000.0))); w
                                 hile(RC4!=0); _delay((unsigned long)((30)*(4000000/4000.0))); while(RC4!=0); _delay((uns
                                 igned long)((30)*(4000000/4000.0))); while(RC4!=0); _delay((unsigned long)((30)*(4000000
                                 /4000.0))); while(RC4!=0)
  2827                           	opt asmopt_off
  2828  1303  3041               movlw	65
  2829  1304  00B4               movwf	((??_main+0)+0+1),f
  2830  1305  30EE               	movlw	238
  2831  1306  00B3               movwf	((??_main+0)+0),f
  2832  1307                     u11757:
  2833  1307  0BB3               	decfsz	((??_main+0)+0),f
  2834  1308  2B07               	goto	u11757
  2835  1309  0BB4               	decfsz	((??_main+0)+0+1),f
  2836  130A  2B07               	goto	u11757
  2837  130B  0064               	clrwdt
  2838                           opt asmopt_on
  2839                           
  2840  130C  2B0D               	goto	l876
  2841                           	
  2842  130D                     l877:	
  2843                           	
  2844  130D                     l876:	
  2845  130D  1283               	bcf	status, 5	;RP0=0, select bank0
  2846  130E  1303               	bcf	status, 6	;RP1=0, select bank0
  2847  130F  1A07               	btfsc	(60/8),(60)&7
  2848  1310  2B12               	goto	u9411
  2849  1311  2B13               	goto	u9410
  2850  1312                     u9411:
  2851  1312  2B0D               	goto	l876
  2852  1313                     u9410:
  2853  1313  2B14               	goto	l6871
  2854                           	
  2855  1314                     l878:	
  2856                           	
  2857  1314                     l6871:	
  2858                           	opt asmopt_off
  2859  1314  3027               movlw	39
  2860  1315  00B4               movwf	((??_main+0)+0+1),f
  2861  1316  30F5               	movlw	245
  2862  1317  00B3               movwf	((??_main+0)+0),f
  2863  1318                     u11767:
  2864  1318  0BB3               	decfsz	((??_main+0)+0),f
  2865  1319  2B18               	goto	u11767
  2866  131A  0BB4               	decfsz	((??_main+0)+0+1),f
  2867  131B  2B18               	goto	u11767
  2868                           opt asmopt_on
  2869                           
  2870  131C  2B1D               	goto	l879
  2871                           	
  2872  131D                     l880:	
  2873                           	
  2874  131D                     l879:	
  2875  131D  1283               	bcf	status, 5	;RP0=0, select bank0
  2876  131E  1303               	bcf	status, 6	;RP1=0, select bank0
  2877  131F  1A07               	btfsc	(60/8),(60)&7
  2878  1320  2B22               	goto	u9421
  2879  1321  2B23               	goto	u9420
  2880  1322                     u9421:
  2881  1322  2B1D               	goto	l879
  2882  1323                     u9420:
  2883  1323  2B24               	goto	l6873
  2884                           	
  2885  1324                     l881:	
  2886                           	
  2887  1324                     l6873:	
  2888                           	opt asmopt_off
  2889  1324  3027               movlw	39
  2890  1325  00B4               movwf	((??_main+0)+0+1),f
  2891  1326  30F5               	movlw	245
  2892  1327  00B3               movwf	((??_main+0)+0),f
  2893  1328                     u11777:
  2894  1328  0BB3               	decfsz	((??_main+0)+0),f
  2895  1329  2B28               	goto	u11777
  2896  132A  0BB4               	decfsz	((??_main+0)+0+1),f
  2897  132B  2B28               	goto	u11777
  2898                           opt asmopt_on
  2899                           
  2900  132C  2B2D               	goto	l882
  2901                           	
  2902  132D                     l883:	
  2903                           	
  2904  132D                     l882:	
  2905  132D  1283               	bcf	status, 5	;RP0=0, select bank0
  2906  132E  1303               	bcf	status, 6	;RP1=0, select bank0
  2907  132F  1A07               	btfsc	(60/8),(60)&7
  2908  1330  2B32               	goto	u9431
  2909  1331  2B33               	goto	u9430
  2910  1332                     u9431:
  2911  1332  2B2D               	goto	l882
  2912  1333                     u9430:
  2913  1333  2B34               	goto	l6875
  2914                           	
  2915  1334                     l884:	
  2916                           	
  2917  1334                     l6875:	
  2918                           	opt asmopt_off
  2919  1334  3027               movlw	39
  2920  1335  00B4               movwf	((??_main+0)+0+1),f
  2921  1336  30F5               	movlw	245
  2922  1337  00B3               movwf	((??_main+0)+0),f
  2923  1338                     u11787:
  2924  1338  0BB3               	decfsz	((??_main+0)+0),f
  2925  1339  2B38               	goto	u11787
  2926  133A  0BB4               	decfsz	((??_main+0)+0+1),f
  2927  133B  2B38               	goto	u11787
  2928                           opt asmopt_on
  2929                           
  2930  133C  2B3D               	goto	l885
  2931                           	
  2932  133D                     l886:	
  2933                           	
  2934  133D                     l885:	
  2935  133D  1283               	bcf	status, 5	;RP0=0, select bank0
  2936  133E  1303               	bcf	status, 6	;RP1=0, select bank0
  2937  133F  1A07               	btfsc	(60/8),(60)&7
  2938  1340  2B42               	goto	u9441
  2939  1341  2B43               	goto	u9440
  2940  1342                     u9441:
  2941  1342  2B3D               	goto	l885
  2942  1343                     u9440:
  2943  1343  2B44               	goto	l6877
  2944                           	
  2945  1344                     l887:	
  2946                           	line	213
  2947                           	
  2948  1344                     l6877:	
  2949                           ;keyboard_and_mouse_in_a_glove.c: 213: if ( counter==0 ){ KeySend('G'); prevChar='G'; co
                                 unter = 10; }
  2950  1344  0840               	movf	((_counter+1)),w
  2951  1345  043F               	iorwf	((_counter)),w
  2952  1346  1D03               	skipz
  2953  1347  2B49               	goto	u9451
  2954  1348  2B4A               	goto	u9450
  2955  1349                     u9451:
  2956  1349  2B5B               	goto	l6885
  2957  134A                     u9450:
  2958                           	
  2959  134A                     l6879:	
  2960  134A  3047               	movlw	(047h)
  2961  134B  160A  118A  2008   	fcall	_KeySend
              160A  118A         
  2962                           	
  2963  1350                     l6881:	
  2964  1350  3047               	movlw	(047h)
  2965  1351  1283               	bcf	status, 5	;RP0=0, select bank0
  2966  1352  1303               	bcf	status, 6	;RP1=0, select bank0
  2967  1353  00B3               	movwf	(??_main+0)+0
  2968  1354  0833               	movf	(??_main+0)+0,w
  2969  1355  00C1               	movwf	(_prevChar)
  2970                           	
  2971  1356                     l6883:	
  2972  1356  300A               	movlw	low(0Ah)
  2973  1357  00BF               	movwf	(_counter)
  2974  1358  3000               	movlw	high(0Ah)
  2975  1359  00C0               	movwf	((_counter))+1
  2976  135A  2AF5               	goto	l7865
  2977                           	line	214
  2978                           	
  2979  135B                     l888:	
  2980                           	
  2981  135B                     l6885:	
  2982                           ;keyboard_and_mouse_in_a_glove.c: 214: else if( prevChar=='G' ){ KeySend('^'); KeySend('
                                 H'); prevChar='H'; counter = 10; }
  2983  135B  0841               	movf	(_prevChar),w
  2984  135C  3A47               	xorlw	047h
  2985  135D  1D03               	skipz
  2986  135E  2B60               	goto	u9461
  2987  135F  2B61               	goto	u9460
  2988  1360                     u9461:
  2989  1360  2B78               	goto	l6893
  2990  1361                     u9460:
  2991                           	
  2992  1361                     l6887:	
  2993  1361  305E               	movlw	(05Eh)
  2994  1362  160A  118A  2008   	fcall	_KeySend
              160A  118A         
  2995  1367  3048               	movlw	(048h)
  2996  1368  160A  118A  2008   	fcall	_KeySend
              160A  118A         
  2997                           	
  2998  136D                     l6889:	
  2999  136D  3048               	movlw	(048h)
  3000  136E  1283               	bcf	status, 5	;RP0=0, select bank0
  3001  136F  1303               	bcf	status, 6	;RP1=0, select bank0
  3002  1370  00B3               	movwf	(??_main+0)+0
  3003  1371  0833               	movf	(??_main+0)+0,w
  3004  1372  00C1               	movwf	(_prevChar)
  3005                           	
  3006  1373                     l6891:	
  3007  1373  300A               	movlw	low(0Ah)
  3008  1374  00BF               	movwf	(_counter)
  3009  1375  3000               	movlw	high(0Ah)
  3010  1376  00C0               	movwf	((_counter))+1
  3011  1377  2AF5               	goto	l7865
  3012                           	line	215
  3013                           	
  3014  1378                     l890:	
  3015                           	
  3016  1378                     l6893:	
  3017                           ;keyboard_and_mouse_in_a_glove.c: 215: else if( prevChar=='H' ){ KeySend('^'); KeySend('
                                 I'); prevChar='I'; counter = 10; }
  3018  1378  0841               	movf	(_prevChar),w
  3019  1379  3A48               	xorlw	048h
  3020  137A  1D03               	skipz
  3021  137B  2B7D               	goto	u9471
  3022  137C  2B7E               	goto	u9470
  3023  137D                     u9471:
  3024  137D  2B95               	goto	l6901
  3025  137E                     u9470:
  3026                           	
  3027  137E                     l6895:	
  3028  137E  305E               	movlw	(05Eh)
  3029  137F  160A  118A  2008   	fcall	_KeySend
              160A  118A         
  3030  1384  3049               	movlw	(049h)
  3031  1385  160A  118A  2008   	fcall	_KeySend
              160A  118A         
  3032                           	
  3033  138A                     l6897:	
  3034  138A  3049               	movlw	(049h)
  3035  138B  1283               	bcf	status, 5	;RP0=0, select bank0
  3036  138C  1303               	bcf	status, 6	;RP1=0, select bank0
  3037  138D  00B3               	movwf	(??_main+0)+0
  3038  138E  0833               	movf	(??_main+0)+0,w
  3039  138F  00C1               	movwf	(_prevChar)
  3040                           	
  3041  1390                     l6899:	
  3042  1390  300A               	movlw	low(0Ah)
  3043  1391  00BF               	movwf	(_counter)
  3044  1392  3000               	movlw	high(0Ah)
  3045  1393  00C0               	movwf	((_counter))+1
  3046  1394  2AF5               	goto	l7865
  3047                           	line	216
  3048                           	
  3049  1395                     l892:	
  3050                           	
  3051  1395                     l6901:	
  3052                           ;keyboard_and_mouse_in_a_glove.c: 216: else if( prevChar=='I' ){ KeySend('^'); KeySend('
                                 4'); prevChar='4'; counter = 10; }
  3053  1395  0841               	movf	(_prevChar),w
  3054  1396  3A49               	xorlw	049h
  3055  1397  1D03               	skipz
  3056  1398  2B9A               	goto	u9481
  3057  1399  2B9B               	goto	u9480
  3058  139A                     u9481:
  3059  139A  2BB2               	goto	l6909
  3060  139B                     u9480:
  3061                           	
  3062  139B                     l6903:	
  3063  139B  305E               	movlw	(05Eh)
  3064  139C  160A  118A  2008   	fcall	_KeySend
              160A  118A         
  3065  13A1  3034               	movlw	(034h)
  3066  13A2  160A  118A  2008   	fcall	_KeySend
              160A  118A         
  3067                           	
  3068  13A7                     l6905:	
  3069  13A7  3034               	movlw	(034h)
  3070  13A8  1283               	bcf	status, 5	;RP0=0, select bank0
  3071  13A9  1303               	bcf	status, 6	;RP1=0, select bank0
  3072  13AA  00B3               	movwf	(??_main+0)+0
  3073  13AB  0833               	movf	(??_main+0)+0,w
  3074  13AC  00C1               	movwf	(_prevChar)
  3075                           	
  3076  13AD                     l6907:	
  3077  13AD  300A               	movlw	low(0Ah)
  3078  13AE  00BF               	movwf	(_counter)
  3079  13AF  3000               	movlw	high(0Ah)
  3080  13B0  00C0               	movwf	((_counter))+1
  3081  13B1  2AF5               	goto	l7865
  3082                           	line	217
  3083                           	
  3084  13B2                     l894:	
  3085                           	
  3086  13B2                     l6909:	
  3087                           ;keyboard_and_mouse_in_a_glove.c: 217: else if( prevChar=='4' ){ KeySend('^'); KeySend('
                                 G'); prevChar='G'; counter = 10; }
  3088  13B2  0841               	movf	(_prevChar),w
  3089  13B3  3A34               	xorlw	034h
  3090  13B4  1D03               	skipz
  3091  13B5  2BB7               	goto	u9491
  3092  13B6  2BBA               	goto	u9490
  3093  13B7                     u9491:
  3094  13B7  160A  118A  28B8   	goto	l6917
  3095  13BA                     u9490:
  3096                           	
  3097  13BA                     l6911:	
  3098  13BA  305E               	movlw	(05Eh)
  3099  13BB  160A  118A  2008   	fcall	_KeySend
              160A  118A         
  3100  13C0  3047               	movlw	(047h)
  3101  13C1  160A  118A  2008   	fcall	_KeySend
              160A  118A         
  3102                           	
  3103  13C6                     l6913:	
  3104  13C6  3047               	movlw	(047h)
  3105  13C7  1283               	bcf	status, 5	;RP0=0, select bank0
  3106  13C8  1303               	bcf	status, 6	;RP1=0, select bank0
  3107  13C9  00B3               	movwf	(??_main+0)+0
  3108  13CA  0833               	movf	(??_main+0)+0,w
  3109  13CB  00C1               	movwf	(_prevChar)
  3110                           	
  3111  13CC                     l6915:	
  3112  13CC  300A               	movlw	low(0Ah)
  3113  13CD  00BF               	movwf	(_counter)
  3114  13CE  3000               	movlw	high(0Ah)
  3115  13CF  00C0               	movwf	((_counter))+1
  3116  13D0  2AF5               	goto	l7865
  3117                           	line	218
  3118                           	
  3119  10B8                     l896:	
  3120                           	
  3121  10B8                     l6917:	
  3122                           ;keyboard_and_mouse_in_a_glove.c: 218: else { KeySend('G'); prevChar='G'; counter = 10; 
                                 }
  3123  10B8  3047               	movlw	(047h)
  3124  10B9  160A  118A  2008   	fcall	_KeySend
              160A  118A         
  3125                           	
  3126  10BE                     l6919:	
  3127  10BE  3047               	movlw	(047h)
  3128  10BF  1283               	bcf	status, 5	;RP0=0, select bank0
  3129  10C0  1303               	bcf	status, 6	;RP1=0, select bank0
  3130  10C1  00B3               	movwf	(??_main+0)+0
  3131  10C2  0833               	movf	(??_main+0)+0,w
  3132  10C3  00C1               	movwf	(_prevChar)
  3133                           	
  3134  10C4                     l6921:	
  3135  10C4  300A               	movlw	low(0Ah)
  3136  10C5  00BF               	movwf	(_counter)
  3137  10C6  3000               	movlw	high(0Ah)
  3138  10C7  00C0               	movwf	((_counter))+1
  3139  10C8  28C9               	goto	l7865
  3140                           	
  3141  10C9                     l897:	
  3142  10C9  120A  158A  2FF8   	goto	l7865
  3143                           	
  3144  10CC                     l895:	
  3145  10CC  28C9               	goto	l7865
  3146                           	
  3147  10CD                     l893:	
  3148  10CD  28C9               	goto	l7865
  3149                           	
  3150  10CE                     l891:	
  3151  10CE  28C9               	goto	l7865
  3152                           	
  3153  10CF                     l889:	
  3154                           	line	219
  3155                           ;keyboard_and_mouse_in_a_glove.c: 219: }
  3156  10CF  28C9               	goto	l7865
  3157                           	line	221
  3158                           	
  3159  10D0                     l875:	
  3160                           ;keyboard_and_mouse_in_a_glove.c: 221: else if( RD4!=0){
  3161  10D0  1E08               	btfss	(68/8),(68)&7
  3162  10D1  28D3               	goto	u9501
  3163  10D2  28D4               	goto	u9500
  3164  10D3                     u9501:
  3165  10D3  29B7               	goto	l899
  3166  10D4                     u9500:
  3167                           	line	222
  3168                           	
  3169  10D4                     l6923:	
  3170                           ;keyboard_and_mouse_in_a_glove.c: 222: nop=1;
  3171  10D4  1579               	bsf	(_nop/8),(_nop)&7
  3172                           	line	225
  3173                           	
  3174  10D5                     l6925:	
  3175                           ;keyboard_and_mouse_in_a_glove.c: 225: _delay((unsigned long)((50)*(4000000/4000.0))); w
                                 hile(RC4!=0); _delay((unsigned long)((30)*(4000000/4000.0))); while(RC4!=0); _delay((uns
                                 igned long)((30)*(4000000/4000.0))); while(RC4!=0); _delay((unsigned long)((30)*(4000000
                                 /4000.0))); while(RC4!=0)
  3176                           	opt asmopt_off
  3177  10D5  3041               movlw	65
  3178  10D6  00B4               movwf	((??_main+0)+0+1),f
  3179  10D7  30EE               	movlw	238
  3180  10D8  00B3               movwf	((??_main+0)+0),f
  3181  10D9                     u11797:
  3182  10D9  0BB3               	decfsz	((??_main+0)+0),f
  3183  10DA  28D9               	goto	u11797
  3184  10DB  0BB4               	decfsz	((??_main+0)+0+1),f
  3185  10DC  28D9               	goto	u11797
  3186  10DD  0064               	clrwdt
  3187                           opt asmopt_on
  3188                           
  3189  10DE  28DF               	goto	l900
  3190                           	
  3191  10DF                     l901:	
  3192                           	
  3193  10DF                     l900:	
  3194  10DF  1283               	bcf	status, 5	;RP0=0, select bank0
  3195  10E0  1303               	bcf	status, 6	;RP1=0, select bank0
  3196  10E1  1A07               	btfsc	(60/8),(60)&7
  3197  10E2  28E4               	goto	u9511
  3198  10E3  28E5               	goto	u9510
  3199  10E4                     u9511:
  3200  10E4  28DF               	goto	l900
  3201  10E5                     u9510:
  3202  10E5  28E6               	goto	l6927
  3203                           	
  3204  10E6                     l902:	
  3205                           	
  3206  10E6                     l6927:	
  3207                           	opt asmopt_off
  3208  10E6  3027               movlw	39
  3209  10E7  00B4               movwf	((??_main+0)+0+1),f
  3210  10E8  30F5               	movlw	245
  3211  10E9  00B3               movwf	((??_main+0)+0),f
  3212  10EA                     u11807:
  3213  10EA  0BB3               	decfsz	((??_main+0)+0),f
  3214  10EB  28EA               	goto	u11807
  3215  10EC  0BB4               	decfsz	((??_main+0)+0+1),f
  3216  10ED  28EA               	goto	u11807
  3217                           opt asmopt_on
  3218                           
  3219  10EE  28EF               	goto	l903
  3220                           	
  3221  10EF                     l904:	
  3222                           	
  3223  10EF                     l903:	
  3224  10EF  1283               	bcf	status, 5	;RP0=0, select bank0
  3225  10F0  1303               	bcf	status, 6	;RP1=0, select bank0
  3226  10F1  1A07               	btfsc	(60/8),(60)&7
  3227  10F2  28F4               	goto	u9521
  3228  10F3  28F5               	goto	u9520
  3229  10F4                     u9521:
  3230  10F4  28EF               	goto	l903
  3231  10F5                     u9520:
  3232  10F5  28F6               	goto	l6929
  3233                           	
  3234  10F6                     l905:	
  3235                           	
  3236  10F6                     l6929:	
  3237                           	opt asmopt_off
  3238  10F6  3027               movlw	39
  3239  10F7  00B4               movwf	((??_main+0)+0+1),f
  3240  10F8  30F5               	movlw	245
  3241  10F9  00B3               movwf	((??_main+0)+0),f
  3242  10FA                     u11817:
  3243  10FA  0BB3               	decfsz	((??_main+0)+0),f
  3244  10FB  28FA               	goto	u11817
  3245  10FC  0BB4               	decfsz	((??_main+0)+0+1),f
  3246  10FD  28FA               	goto	u11817
  3247                           opt asmopt_on
  3248                           
  3249  10FE  28FF               	goto	l906
  3250                           	
  3251  10FF                     l907:	
  3252                           	
  3253  10FF                     l906:	
  3254  10FF  1283               	bcf	status, 5	;RP0=0, select bank0
  3255  1100  1303               	bcf	status, 6	;RP1=0, select bank0
  3256  1101  1A07               	btfsc	(60/8),(60)&7
  3257  1102  2904               	goto	u9531
  3258  1103  2905               	goto	u9530
  3259  1104                     u9531:
  3260  1104  28FF               	goto	l906
  3261  1105                     u9530:
  3262  1105  2906               	goto	l6931
  3263                           	
  3264  1106                     l908:	
  3265                           	
  3266  1106                     l6931:	
  3267                           	opt asmopt_off
  3268  1106  3027               movlw	39
  3269  1107  00B4               movwf	((??_main+0)+0+1),f
  3270  1108  30F5               	movlw	245
  3271  1109  00B3               movwf	((??_main+0)+0),f
  3272  110A                     u11827:
  3273  110A  0BB3               	decfsz	((??_main+0)+0),f
  3274  110B  290A               	goto	u11827
  3275  110C  0BB4               	decfsz	((??_main+0)+0+1),f
  3276  110D  290A               	goto	u11827
  3277                           opt asmopt_on
  3278                           
  3279  110E  290F               	goto	l909
  3280                           	
  3281  110F                     l910:	
  3282                           	
  3283  110F                     l909:	
  3284  110F  1283               	bcf	status, 5	;RP0=0, select bank0
  3285  1110  1303               	bcf	status, 6	;RP1=0, select bank0
  3286  1111  1A07               	btfsc	(60/8),(60)&7
  3287  1112  2914               	goto	u9541
  3288  1113  2915               	goto	u9540
  3289  1114                     u9541:
  3290  1114  290F               	goto	l909
  3291  1115                     u9540:
  3292  1115  2916               	goto	l6933
  3293                           	
  3294  1116                     l911:	
  3295                           	line	228
  3296                           	
  3297  1116                     l6933:	
  3298                           ;keyboard_and_mouse_in_a_glove.c: 228: if ( counter==0 ){ KeySend('J'); prevChar='J'; co
                                 unter = 10; }
  3299  1116  0840               	movf	((_counter+1)),w
  3300  1117  043F               	iorwf	((_counter)),w
  3301  1118  1D03               	skipz
  3302  1119  291B               	goto	u9551
  3303  111A  291C               	goto	u9550
  3304  111B                     u9551:
  3305  111B  292D               	goto	l6941
  3306  111C                     u9550:
  3307                           	
  3308  111C                     l6935:	
  3309  111C  304A               	movlw	(04Ah)
  3310  111D  160A  118A  2008   	fcall	_KeySend
              160A  118A         
  3311                           	
  3312  1122                     l6937:	
  3313  1122  304A               	movlw	(04Ah)
  3314  1123  1283               	bcf	status, 5	;RP0=0, select bank0
  3315  1124  1303               	bcf	status, 6	;RP1=0, select bank0
  3316  1125  00B3               	movwf	(??_main+0)+0
  3317  1126  0833               	movf	(??_main+0)+0,w
  3318  1127  00C1               	movwf	(_prevChar)
  3319                           	
  3320  1128                     l6939:	
  3321  1128  300A               	movlw	low(0Ah)
  3322  1129  00BF               	movwf	(_counter)
  3323  112A  3000               	movlw	high(0Ah)
  3324  112B  00C0               	movwf	((_counter))+1
  3325  112C  28C9               	goto	l7865
  3326                           	line	229
  3327                           	
  3328  112D                     l912:	
  3329                           	
  3330  112D                     l6941:	
  3331                           ;keyboard_and_mouse_in_a_glove.c: 229: else if( prevChar=='J' ){ KeySend('^'); KeySend('
                                 K'); prevChar='K'; counter = 10; }
  3332  112D  0841               	movf	(_prevChar),w
  3333  112E  3A4A               	xorlw	04Ah
  3334  112F  1D03               	skipz
  3335  1130  2932               	goto	u9561
  3336  1131  2933               	goto	u9560
  3337  1132                     u9561:
  3338  1132  294A               	goto	l6949
  3339  1133                     u9560:
  3340                           	
  3341  1133                     l6943:	
  3342  1133  305E               	movlw	(05Eh)
  3343  1134  160A  118A  2008   	fcall	_KeySend
              160A  118A         
  3344  1139  304B               	movlw	(04Bh)
  3345  113A  160A  118A  2008   	fcall	_KeySend
              160A  118A         
  3346                           	
  3347  113F                     l6945:	
  3348  113F  304B               	movlw	(04Bh)
  3349  1140  1283               	bcf	status, 5	;RP0=0, select bank0
  3350  1141  1303               	bcf	status, 6	;RP1=0, select bank0
  3351  1142  00B3               	movwf	(??_main+0)+0
  3352  1143  0833               	movf	(??_main+0)+0,w
  3353  1144  00C1               	movwf	(_prevChar)
  3354                           	
  3355  1145                     l6947:	
  3356  1145  300A               	movlw	low(0Ah)
  3357  1146  00BF               	movwf	(_counter)
  3358  1147  3000               	movlw	high(0Ah)
  3359  1148  00C0               	movwf	((_counter))+1
  3360  1149  28C9               	goto	l7865
  3361                           	line	230
  3362                           	
  3363  114A                     l914:	
  3364                           	
  3365  114A                     l6949:	
  3366                           ;keyboard_and_mouse_in_a_glove.c: 230: else if( prevChar=='K' ){ KeySend('^'); KeySend('
                                 L'); prevChar='L'; counter = 10; }
  3367  114A  0841               	movf	(_prevChar),w
  3368  114B  3A4B               	xorlw	04Bh
  3369  114C  1D03               	skipz
  3370  114D  294F               	goto	u9571
  3371  114E  2950               	goto	u9570
  3372  114F                     u9571:
  3373  114F  2967               	goto	l6957
  3374  1150                     u9570:
  3375                           	
  3376  1150                     l6951:	
  3377  1150  305E               	movlw	(05Eh)
  3378  1151  160A  118A  2008   	fcall	_KeySend
              160A  118A         
  3379  1156  304C               	movlw	(04Ch)
  3380  1157  160A  118A  2008   	fcall	_KeySend
              160A  118A         
  3381                           	
  3382  115C                     l6953:	
  3383  115C  304C               	movlw	(04Ch)
  3384  115D  1283               	bcf	status, 5	;RP0=0, select bank0
  3385  115E  1303               	bcf	status, 6	;RP1=0, select bank0
  3386  115F  00B3               	movwf	(??_main+0)+0
  3387  1160  0833               	movf	(??_main+0)+0,w
  3388  1161  00C1               	movwf	(_prevChar)
  3389                           	
  3390  1162                     l6955:	
  3391  1162  300A               	movlw	low(0Ah)
  3392  1163  00BF               	movwf	(_counter)
  3393  1164  3000               	movlw	high(0Ah)
  3394  1165  00C0               	movwf	((_counter))+1
  3395  1166  28C9               	goto	l7865
  3396                           	line	231
  3397                           	
  3398  1167                     l916:	
  3399                           	
  3400  1167                     l6957:	
  3401                           ;keyboard_and_mouse_in_a_glove.c: 231: else if( prevChar=='L' ){ KeySend('^'); KeySend('
                                 5'); prevChar='5'; counter = 10; }
  3402  1167  0841               	movf	(_prevChar),w
  3403  1168  3A4C               	xorlw	04Ch
  3404  1169  1D03               	skipz
  3405  116A  296C               	goto	u9581
  3406  116B  296D               	goto	u9580
  3407  116C                     u9581:
  3408  116C  2984               	goto	l6965
  3409  116D                     u9580:
  3410                           	
  3411  116D                     l6959:	
  3412  116D  305E               	movlw	(05Eh)
  3413  116E  160A  118A  2008   	fcall	_KeySend
              160A  118A         
  3414  1173  3035               	movlw	(035h)
  3415  1174  160A  118A  2008   	fcall	_KeySend
              160A  118A         
  3416                           	
  3417  1179                     l6961:	
  3418  1179  3035               	movlw	(035h)
  3419  117A  1283               	bcf	status, 5	;RP0=0, select bank0
  3420  117B  1303               	bcf	status, 6	;RP1=0, select bank0
  3421  117C  00B3               	movwf	(??_main+0)+0
  3422  117D  0833               	movf	(??_main+0)+0,w
  3423  117E  00C1               	movwf	(_prevChar)
  3424                           	
  3425  117F                     l6963:	
  3426  117F  300A               	movlw	low(0Ah)
  3427  1180  00BF               	movwf	(_counter)
  3428  1181  3000               	movlw	high(0Ah)
  3429  1182  00C0               	movwf	((_counter))+1
  3430  1183  28C9               	goto	l7865
  3431                           	line	232
  3432                           	
  3433  1184                     l918:	
  3434                           	
  3435  1184                     l6965:	
  3436                           ;keyboard_and_mouse_in_a_glove.c: 232: else if( prevChar=='5' ){ KeySend('^'); KeySend('
                                 J'); prevChar='J'; counter = 10; }
  3437  1184  0841               	movf	(_prevChar),w
  3438  1185  3A35               	xorlw	035h
  3439  1186  1D03               	skipz
  3440  1187  2989               	goto	u9591
  3441  1188  298A               	goto	u9590
  3442  1189                     u9591:
  3443  1189  29A1               	goto	l6973
  3444  118A                     u9590:
  3445                           	
  3446  118A                     l6967:	
  3447  118A  305E               	movlw	(05Eh)
  3448  118B  160A  118A  2008   	fcall	_KeySend
              160A  118A         
  3449  1190  304A               	movlw	(04Ah)
  3450  1191  160A  118A  2008   	fcall	_KeySend
              160A  118A         
  3451                           	
  3452  1196                     l6969:	
  3453  1196  304A               	movlw	(04Ah)
  3454  1197  1283               	bcf	status, 5	;RP0=0, select bank0
  3455  1198  1303               	bcf	status, 6	;RP1=0, select bank0
  3456  1199  00B3               	movwf	(??_main+0)+0
  3457  119A  0833               	movf	(??_main+0)+0,w
  3458  119B  00C1               	movwf	(_prevChar)
  3459                           	
  3460  119C                     l6971:	
  3461  119C  300A               	movlw	low(0Ah)
  3462  119D  00BF               	movwf	(_counter)
  3463  119E  3000               	movlw	high(0Ah)
  3464  119F  00C0               	movwf	((_counter))+1
  3465  11A0  28C9               	goto	l7865
  3466                           	line	233
  3467                           	
  3468  11A1                     l920:	
  3469                           	
  3470  11A1                     l6973:	
  3471                           ;keyboard_and_mouse_in_a_glove.c: 233: else { KeySend('J'); prevChar='J'; counter = 10; 
                                 }
  3472  11A1  304A               	movlw	(04Ah)
  3473  11A2  160A  118A  2008   	fcall	_KeySend
              160A  118A         
  3474                           	
  3475  11A7                     l6975:	
  3476  11A7  304A               	movlw	(04Ah)
  3477  11A8  1283               	bcf	status, 5	;RP0=0, select bank0
  3478  11A9  1303               	bcf	status, 6	;RP1=0, select bank0
  3479  11AA  00B3               	movwf	(??_main+0)+0
  3480  11AB  0833               	movf	(??_main+0)+0,w
  3481  11AC  00C1               	movwf	(_prevChar)
  3482                           	
  3483  11AD                     l6977:	
  3484  11AD  300A               	movlw	low(0Ah)
  3485  11AE  00BF               	movwf	(_counter)
  3486  11AF  3000               	movlw	high(0Ah)
  3487  11B0  00C0               	movwf	((_counter))+1
  3488  11B1  28C9               	goto	l7865
  3489                           	
  3490  11B2                     l921:	
  3491  11B2  28C9               	goto	l7865
  3492                           	
  3493  11B3                     l919:	
  3494  11B3  28C9               	goto	l7865
  3495                           	
  3496  11B4                     l917:	
  3497  11B4  28C9               	goto	l7865
  3498                           	
  3499  11B5                     l915:	
  3500  11B5  28C9               	goto	l7865
  3501                           	
  3502  11B6                     l913:	
  3503                           	line	234
  3504                           ;keyboard_and_mouse_in_a_glove.c: 234: }
  3505  11B6  28C9               	goto	l7865
  3506                           	line	237
  3507                           	
  3508  11B7                     l899:	
  3509                           ;keyboard_and_mouse_in_a_glove.c: 237: else if( RB2!=0){
  3510  11B7  1D06               	btfss	(50/8),(50)&7
  3511  11B8  29BC               	goto	u9601
  3512  11B9  120A  118A  2E96   	goto	u9600
  3513  11BC                     u9601:
  3514  11BC  120A  118A  2F7B   	goto	l923
  3515  0696                     u9600:
  3516                           	line	238
  3517                           	
  3518  0696                     l6979:	
  3519                           ;keyboard_and_mouse_in_a_glove.c: 238: nop=1;
  3520  0696  1579               	bsf	(_nop/8),(_nop)&7
  3521                           	line	241
  3522                           	
  3523  0697                     l6981:	
  3524                           ;keyboard_and_mouse_in_a_glove.c: 241: _delay((unsigned long)((50)*(4000000/4000.0))); w
                                 hile(RC4!=0); _delay((unsigned long)((30)*(4000000/4000.0))); while(RC4!=0); _delay((uns
                                 igned long)((30)*(4000000/4000.0))); while(RC4!=0); _delay((unsigned long)((30)*(4000000
                                 /4000.0))); while(RC4!=0)
  3525                           	opt asmopt_off
  3526  0697  3041               movlw	65
  3527  0698  00B4               movwf	((??_main+0)+0+1),f
  3528  0699  30EE               	movlw	238
  3529  069A  00B3               movwf	((??_main+0)+0),f
  3530  069B                     u11837:
  3531  069B  0BB3               	decfsz	((??_main+0)+0),f
  3532  069C  2E9B               	goto	u11837
  3533  069D  0BB4               	decfsz	((??_main+0)+0+1),f
  3534  069E  2E9B               	goto	u11837
  3535  069F  0064               	clrwdt
  3536                           opt asmopt_on
  3537                           
  3538  06A0  2EA1               	goto	l924
  3539                           	
  3540  06A1                     l925:	
  3541                           	
  3542  06A1                     l924:	
  3543  06A1  1283               	bcf	status, 5	;RP0=0, select bank0
  3544  06A2  1303               	bcf	status, 6	;RP1=0, select bank0
  3545  06A3  1A07               	btfsc	(60/8),(60)&7
  3546  06A4  2EA6               	goto	u9611
  3547  06A5  2EA7               	goto	u9610
  3548  06A6                     u9611:
  3549  06A6  2EA1               	goto	l924
  3550  06A7                     u9610:
  3551  06A7  2EA8               	goto	l6983
  3552                           	
  3553  06A8                     l926:	
  3554                           	
  3555  06A8                     l6983:	
  3556                           	opt asmopt_off
  3557  06A8  3027               movlw	39
  3558  06A9  00B4               movwf	((??_main+0)+0+1),f
  3559  06AA  30F5               	movlw	245
  3560  06AB  00B3               movwf	((??_main+0)+0),f
  3561  06AC                     u11847:
  3562  06AC  0BB3               	decfsz	((??_main+0)+0),f
  3563  06AD  2EAC               	goto	u11847
  3564  06AE  0BB4               	decfsz	((??_main+0)+0+1),f
  3565  06AF  2EAC               	goto	u11847
  3566                           opt asmopt_on
  3567                           
  3568  06B0  2EB1               	goto	l927
  3569                           	
  3570  06B1                     l928:	
  3571                           	
  3572  06B1                     l927:	
  3573  06B1  1283               	bcf	status, 5	;RP0=0, select bank0
  3574  06B2  1303               	bcf	status, 6	;RP1=0, select bank0
  3575  06B3  1A07               	btfsc	(60/8),(60)&7
  3576  06B4  2EB6               	goto	u9621
  3577  06B5  2EB7               	goto	u9620
  3578  06B6                     u9621:
  3579  06B6  2EB1               	goto	l927
  3580  06B7                     u9620:
  3581  06B7  2EB8               	goto	l6985
  3582                           	
  3583  06B8                     l929:	
  3584                           	
  3585  06B8                     l6985:	
  3586                           	opt asmopt_off
  3587  06B8  3027               movlw	39
  3588  06B9  00B4               movwf	((??_main+0)+0+1),f
  3589  06BA  30F5               	movlw	245
  3590  06BB  00B3               movwf	((??_main+0)+0),f
  3591  06BC                     u11857:
  3592  06BC  0BB3               	decfsz	((??_main+0)+0),f
  3593  06BD  2EBC               	goto	u11857
  3594  06BE  0BB4               	decfsz	((??_main+0)+0+1),f
  3595  06BF  2EBC               	goto	u11857
  3596                           opt asmopt_on
  3597                           
  3598  06C0  2EC1               	goto	l930
  3599                           	
  3600  06C1                     l931:	
  3601                           	
  3602  06C1                     l930:	
  3603  06C1  1283               	bcf	status, 5	;RP0=0, select bank0
  3604  06C2  1303               	bcf	status, 6	;RP1=0, select bank0
  3605  06C3  1A07               	btfsc	(60/8),(60)&7
  3606  06C4  2EC6               	goto	u9631
  3607  06C5  2EC7               	goto	u9630
  3608  06C6                     u9631:
  3609  06C6  2EC1               	goto	l930
  3610  06C7                     u9630:
  3611  06C7  2EC8               	goto	l6987
  3612                           	
  3613  06C8                     l932:	
  3614                           	
  3615  06C8                     l6987:	
  3616                           	opt asmopt_off
  3617  06C8  3027               movlw	39
  3618  06C9  00B4               movwf	((??_main+0)+0+1),f
  3619  06CA  30F5               	movlw	245
  3620  06CB  00B3               movwf	((??_main+0)+0),f
  3621  06CC                     u11867:
  3622  06CC  0BB3               	decfsz	((??_main+0)+0),f
  3623  06CD  2ECC               	goto	u11867
  3624  06CE  0BB4               	decfsz	((??_main+0)+0+1),f
  3625  06CF  2ECC               	goto	u11867
  3626                           opt asmopt_on
  3627                           
  3628  06D0  2ED1               	goto	l933
  3629                           	
  3630  06D1                     l934:	
  3631                           	
  3632  06D1                     l933:	
  3633  06D1  1283               	bcf	status, 5	;RP0=0, select bank0
  3634  06D2  1303               	bcf	status, 6	;RP1=0, select bank0
  3635  06D3  1A07               	btfsc	(60/8),(60)&7
  3636  06D4  2ED6               	goto	u9641
  3637  06D5  2ED7               	goto	u9640
  3638  06D6                     u9641:
  3639  06D6  2ED1               	goto	l933
  3640  06D7                     u9640:
  3641  06D7  2ED8               	goto	l6989
  3642                           	
  3643  06D8                     l935:	
  3644                           	line	244
  3645                           	
  3646  06D8                     l6989:	
  3647                           ;keyboard_and_mouse_in_a_glove.c: 244: if ( counter==0 ){ KeySend('M'); prevChar='M'; co
                                 unter = 10; }
  3648  06D8  0840               	movf	((_counter+1)),w
  3649  06D9  043F               	iorwf	((_counter)),w
  3650  06DA  1D03               	skipz
  3651  06DB  2EDD               	goto	u9651
  3652  06DC  2EDE               	goto	u9650
  3653  06DD                     u9651:
  3654  06DD  2EEF               	goto	l6997
  3655  06DE                     u9650:
  3656                           	
  3657  06DE                     l6991:	
  3658  06DE  304D               	movlw	(04Dh)
  3659  06DF  160A  118A  2008   	fcall	_KeySend
              120A  118A         
  3660                           	
  3661  06E4                     l6993:	
  3662  06E4  304D               	movlw	(04Dh)
  3663  06E5  1283               	bcf	status, 5	;RP0=0, select bank0
  3664  06E6  1303               	bcf	status, 6	;RP1=0, select bank0
  3665  06E7  00B3               	movwf	(??_main+0)+0
  3666  06E8  0833               	movf	(??_main+0)+0,w
  3667  06E9  00C1               	movwf	(_prevChar)
  3668                           	
  3669  06EA                     l6995:	
  3670  06EA  300A               	movlw	low(0Ah)
  3671  06EB  00BF               	movwf	(_counter)
  3672  06EC  3000               	movlw	high(0Ah)
  3673  06ED  00C0               	movwf	((_counter))+1
  3674  06EE  2F74               	goto	l7865
  3675                           	line	245
  3676                           	
  3677  06EF                     l936:	
  3678                           	
  3679  06EF                     l6997:	
  3680                           ;keyboard_and_mouse_in_a_glove.c: 245: else if( prevChar=='M' ){ KeySend('^'); KeySend('
                                 N'); prevChar='N'; counter = 10; }
  3681  06EF  0841               	movf	(_prevChar),w
  3682  06F0  3A4D               	xorlw	04Dh
  3683  06F1  1D03               	skipz
  3684  06F2  2EF4               	goto	u9661
  3685  06F3  2EF5               	goto	u9660
  3686  06F4                     u9661:
  3687  06F4  2F0C               	goto	l7005
  3688  06F5                     u9660:
  3689                           	
  3690  06F5                     l6999:	
  3691  06F5  305E               	movlw	(05Eh)
  3692  06F6  160A  118A  2008   	fcall	_KeySend
              120A  118A         
  3693  06FB  304E               	movlw	(04Eh)
  3694  06FC  160A  118A  2008   	fcall	_KeySend
              120A  118A         
  3695                           	
  3696  0701                     l7001:	
  3697  0701  304E               	movlw	(04Eh)
  3698  0702  1283               	bcf	status, 5	;RP0=0, select bank0
  3699  0703  1303               	bcf	status, 6	;RP1=0, select bank0
  3700  0704  00B3               	movwf	(??_main+0)+0
  3701  0705  0833               	movf	(??_main+0)+0,w
  3702  0706  00C1               	movwf	(_prevChar)
  3703                           	
  3704  0707                     l7003:	
  3705  0707  300A               	movlw	low(0Ah)
  3706  0708  00BF               	movwf	(_counter)
  3707  0709  3000               	movlw	high(0Ah)
  3708  070A  00C0               	movwf	((_counter))+1
  3709  070B  2F74               	goto	l7865
  3710                           	line	246
  3711                           	
  3712  070C                     l938:	
  3713                           	
  3714  070C                     l7005:	
  3715                           ;keyboard_and_mouse_in_a_glove.c: 246: else if( prevChar=='N' ){ KeySend('^'); KeySend('
                                 O'); prevChar='O'; counter = 10; }
  3716  070C  0841               	movf	(_prevChar),w
  3717  070D  3A4E               	xorlw	04Eh
  3718  070E  1D03               	skipz
  3719  070F  2F11               	goto	u9671
  3720  0710  2F12               	goto	u9670
  3721  0711                     u9671:
  3722  0711  2F29               	goto	l7013
  3723  0712                     u9670:
  3724                           	
  3725  0712                     l7007:	
  3726  0712  305E               	movlw	(05Eh)
  3727  0713  160A  118A  2008   	fcall	_KeySend
              120A  118A         
  3728  0718  304F               	movlw	(04Fh)
  3729  0719  160A  118A  2008   	fcall	_KeySend
              120A  118A         
  3730                           	
  3731  071E                     l7009:	
  3732  071E  304F               	movlw	(04Fh)
  3733  071F  1283               	bcf	status, 5	;RP0=0, select bank0
  3734  0720  1303               	bcf	status, 6	;RP1=0, select bank0
  3735  0721  00B3               	movwf	(??_main+0)+0
  3736  0722  0833               	movf	(??_main+0)+0,w
  3737  0723  00C1               	movwf	(_prevChar)
  3738                           	
  3739  0724                     l7011:	
  3740  0724  300A               	movlw	low(0Ah)
  3741  0725  00BF               	movwf	(_counter)
  3742  0726  3000               	movlw	high(0Ah)
  3743  0727  00C0               	movwf	((_counter))+1
  3744  0728  2F74               	goto	l7865
  3745                           	line	247
  3746                           	
  3747  0729                     l940:	
  3748                           	
  3749  0729                     l7013:	
  3750                           ;keyboard_and_mouse_in_a_glove.c: 247: else if( prevChar=='O' ){ KeySend('^'); KeySend('
                                 6'); prevChar='6'; counter = 10; }
  3751  0729  0841               	movf	(_prevChar),w
  3752  072A  3A4F               	xorlw	04Fh
  3753  072B  1D03               	skipz
  3754  072C  2F2E               	goto	u9681
  3755  072D  2F2F               	goto	u9680
  3756  072E                     u9681:
  3757  072E  2F46               	goto	l7021
  3758  072F                     u9680:
  3759                           	
  3760  072F                     l7015:	
  3761  072F  305E               	movlw	(05Eh)
  3762  0730  160A  118A  2008   	fcall	_KeySend
              120A  118A         
  3763  0735  3036               	movlw	(036h)
  3764  0736  160A  118A  2008   	fcall	_KeySend
              120A  118A         
  3765                           	
  3766  073B                     l7017:	
  3767  073B  3036               	movlw	(036h)
  3768  073C  1283               	bcf	status, 5	;RP0=0, select bank0
  3769  073D  1303               	bcf	status, 6	;RP1=0, select bank0
  3770  073E  00B3               	movwf	(??_main+0)+0
  3771  073F  0833               	movf	(??_main+0)+0,w
  3772  0740  00C1               	movwf	(_prevChar)
  3773                           	
  3774  0741                     l7019:	
  3775  0741  300A               	movlw	low(0Ah)
  3776  0742  00BF               	movwf	(_counter)
  3777  0743  3000               	movlw	high(0Ah)
  3778  0744  00C0               	movwf	((_counter))+1
  3779  0745  2F74               	goto	l7865
  3780                           	line	248
  3781                           	
  3782  0746                     l942:	
  3783                           	
  3784  0746                     l7021:	
  3785                           ;keyboard_and_mouse_in_a_glove.c: 248: else if( prevChar=='6' ){ KeySend('^'); KeySend('
                                 M'); prevChar='M'; counter = 10; }
  3786  0746  0841               	movf	(_prevChar),w
  3787  0747  3A36               	xorlw	036h
  3788  0748  1D03               	skipz
  3789  0749  2F4B               	goto	u9691
  3790  074A  2F4C               	goto	u9690
  3791  074B                     u9691:
  3792  074B  2F63               	goto	l7029
  3793  074C                     u9690:
  3794                           	
  3795  074C                     l7023:	
  3796  074C  305E               	movlw	(05Eh)
  3797  074D  160A  118A  2008   	fcall	_KeySend
              120A  118A         
  3798  0752  304D               	movlw	(04Dh)
  3799  0753  160A  118A  2008   	fcall	_KeySend
              120A  118A         
  3800                           	
  3801  0758                     l7025:	
  3802  0758  304D               	movlw	(04Dh)
  3803  0759  1283               	bcf	status, 5	;RP0=0, select bank0
  3804  075A  1303               	bcf	status, 6	;RP1=0, select bank0
  3805  075B  00B3               	movwf	(??_main+0)+0
  3806  075C  0833               	movf	(??_main+0)+0,w
  3807  075D  00C1               	movwf	(_prevChar)
  3808                           	
  3809  075E                     l7027:	
  3810  075E  300A               	movlw	low(0Ah)
  3811  075F  00BF               	movwf	(_counter)
  3812  0760  3000               	movlw	high(0Ah)
  3813  0761  00C0               	movwf	((_counter))+1
  3814  0762  2F74               	goto	l7865
  3815                           	line	249
  3816                           	
  3817  0763                     l944:	
  3818                           	
  3819  0763                     l7029:	
  3820                           ;keyboard_and_mouse_in_a_glove.c: 249: else { KeySend('M'); prevChar='M'; counter = 10; 
                                 }
  3821  0763  304D               	movlw	(04Dh)
  3822  0764  160A  118A  2008   	fcall	_KeySend
              120A  118A         
  3823                           	
  3824  0769                     l7031:	
  3825  0769  304D               	movlw	(04Dh)
  3826  076A  1283               	bcf	status, 5	;RP0=0, select bank0
  3827  076B  1303               	bcf	status, 6	;RP1=0, select bank0
  3828  076C  00B3               	movwf	(??_main+0)+0
  3829  076D  0833               	movf	(??_main+0)+0,w
  3830  076E  00C1               	movwf	(_prevChar)
  3831                           	
  3832  076F                     l7033:	
  3833  076F  300A               	movlw	low(0Ah)
  3834  0770  00BF               	movwf	(_counter)
  3835  0771  3000               	movlw	high(0Ah)
  3836  0772  00C0               	movwf	((_counter))+1
  3837  0773  2F74               	goto	l7865
  3838                           	
  3839  0774                     l945:	
  3840  0774  120A  158A  2FF8   	goto	l7865
  3841                           	
  3842  0777                     l943:	
  3843  0777  2F74               	goto	l7865
  3844                           	
  3845  0778                     l941:	
  3846  0778  2F74               	goto	l7865
  3847                           	
  3848  0779                     l939:	
  3849  0779  2F74               	goto	l7865
  3850                           	
  3851  077A                     l937:	
  3852                           	line	250
  3853                           ;keyboard_and_mouse_in_a_glove.c: 250: }
  3854  077A  2F74               	goto	l7865
  3855                           	line	252
  3856                           	
  3857  077B                     l923:	
  3858                           ;keyboard_and_mouse_in_a_glove.c: 252: else if( RB3!=0){
  3859  077B  1D86               	btfss	(51/8),(51)&7
  3860  077C  2F7E               	goto	u9701
  3861  077D  2F81               	goto	u9700
  3862  077E                     u9701:
  3863  077E  160A  118A  2DBC   	goto	l947
  3864  0781                     u9700:
  3865                           	line	253
  3866                           	
  3867  0781                     l7035:	
  3868                           ;keyboard_and_mouse_in_a_glove.c: 253: nop=1;
  3869  0781  1579               	bsf	(_nop/8),(_nop)&7
  3870                           	line	256
  3871                           	
  3872  0782                     l7037:	
  3873                           ;keyboard_and_mouse_in_a_glove.c: 256: _delay((unsigned long)((50)*(4000000/4000.0))); w
                                 hile(RC4!=0); _delay((unsigned long)((30)*(4000000/4000.0))); while(RC4!=0); _delay((uns
                                 igned long)((30)*(4000000/4000.0))); while(RC4!=0); _delay((unsigned long)((30)*(4000000
                                 /4000.0))); while(RC4!=0)
  3874                           	opt asmopt_off
  3875  0782  3041               movlw	65
  3876  0783  00B4               movwf	((??_main+0)+0+1),f
  3877  0784  30EE               	movlw	238
  3878  0785  00B3               movwf	((??_main+0)+0),f
  3879  0786                     u11877:
  3880  0786  0BB3               	decfsz	((??_main+0)+0),f
  3881  0787  2F86               	goto	u11877
  3882  0788  0BB4               	decfsz	((??_main+0)+0+1),f
  3883  0789  2F86               	goto	u11877
  3884  078A  0064               	clrwdt
  3885                           opt asmopt_on
  3886                           
  3887  078B  2F8C               	goto	l948
  3888                           	
  3889  078C                     l949:	
  3890                           	
  3891  078C                     l948:	
  3892  078C  1283               	bcf	status, 5	;RP0=0, select bank0
  3893  078D  1303               	bcf	status, 6	;RP1=0, select bank0
  3894  078E  1A07               	btfsc	(60/8),(60)&7
  3895  078F  2F91               	goto	u9711
  3896  0790  2F92               	goto	u9710
  3897  0791                     u9711:
  3898  0791  2F8C               	goto	l948
  3899  0792                     u9710:
  3900  0792  2F93               	goto	l7039
  3901                           	
  3902  0793                     l950:	
  3903                           	
  3904  0793                     l7039:	
  3905                           	opt asmopt_off
  3906  0793  3027               movlw	39
  3907  0794  00B4               movwf	((??_main+0)+0+1),f
  3908  0795  30F5               	movlw	245
  3909  0796  00B3               movwf	((??_main+0)+0),f
  3910  0797                     u11887:
  3911  0797  0BB3               	decfsz	((??_main+0)+0),f
  3912  0798  2F97               	goto	u11887
  3913  0799  0BB4               	decfsz	((??_main+0)+0+1),f
  3914  079A  2F97               	goto	u11887
  3915                           opt asmopt_on
  3916                           
  3917  079B  2F9C               	goto	l951
  3918                           	
  3919  079C                     l952:	
  3920                           	
  3921  079C                     l951:	
  3922  079C  1283               	bcf	status, 5	;RP0=0, select bank0
  3923  079D  1303               	bcf	status, 6	;RP1=0, select bank0
  3924  079E  1A07               	btfsc	(60/8),(60)&7
  3925  079F  2FA1               	goto	u9721
  3926  07A0  2FA2               	goto	u9720
  3927  07A1                     u9721:
  3928  07A1  2F9C               	goto	l951
  3929  07A2                     u9720:
  3930  07A2  160A  118A  2CDB   	goto	l7041
  3931                           	
  3932  14DB                     l953:	
  3933                           	
  3934  14DB                     l7041:	
  3935                           	opt asmopt_off
  3936  14DB  3027               movlw	39
  3937  14DC  00B4               movwf	((??_main+0)+0+1),f
  3938  14DD  30F5               	movlw	245
  3939  14DE  00B3               movwf	((??_main+0)+0),f
  3940  14DF                     u11897:
  3941  14DF  0BB3               	decfsz	((??_main+0)+0),f
  3942  14E0  2CDF               	goto	u11897
  3943  14E1  0BB4               	decfsz	((??_main+0)+0+1),f
  3944  14E2  2CDF               	goto	u11897
  3945                           opt asmopt_on
  3946                           
  3947  14E3  2CE4               	goto	l954
  3948                           	
  3949  14E4                     l955:	
  3950                           	
  3951  14E4                     l954:	
  3952  14E4  1283               	bcf	status, 5	;RP0=0, select bank0
  3953  14E5  1303               	bcf	status, 6	;RP1=0, select bank0
  3954  14E6  1A07               	btfsc	(60/8),(60)&7
  3955  14E7  2CE9               	goto	u9731
  3956  14E8  2CEA               	goto	u9730
  3957  14E9                     u9731:
  3958  14E9  2CE4               	goto	l954
  3959  14EA                     u9730:
  3960  14EA  2CEB               	goto	l7043
  3961                           	
  3962  14EB                     l956:	
  3963                           	
  3964  14EB                     l7043:	
  3965                           	opt asmopt_off
  3966  14EB  3027               movlw	39
  3967  14EC  00B4               movwf	((??_main+0)+0+1),f
  3968  14ED  30F5               	movlw	245
  3969  14EE  00B3               movwf	((??_main+0)+0),f
  3970  14EF                     u11907:
  3971  14EF  0BB3               	decfsz	((??_main+0)+0),f
  3972  14F0  2CEF               	goto	u11907
  3973  14F1  0BB4               	decfsz	((??_main+0)+0+1),f
  3974  14F2  2CEF               	goto	u11907
  3975                           opt asmopt_on
  3976                           
  3977  14F3  2CF4               	goto	l957
  3978                           	
  3979  14F4                     l958:	
  3980                           	
  3981  14F4                     l957:	
  3982  14F4  1283               	bcf	status, 5	;RP0=0, select bank0
  3983  14F5  1303               	bcf	status, 6	;RP1=0, select bank0
  3984  14F6  1A07               	btfsc	(60/8),(60)&7
  3985  14F7  2CF9               	goto	u9741
  3986  14F8  2CFA               	goto	u9740
  3987  14F9                     u9741:
  3988  14F9  2CF4               	goto	l957
  3989  14FA                     u9740:
  3990  14FA  2CFB               	goto	l7045
  3991                           	
  3992  14FB                     l959:	
  3993                           	line	259
  3994                           	
  3995  14FB                     l7045:	
  3996                           ;keyboard_and_mouse_in_a_glove.c: 259: if ( counter==0 ){ KeySend('P'); prevChar='P'; co
                                 unter = 10; }
  3997  14FB  0840               	movf	((_counter+1)),w
  3998  14FC  043F               	iorwf	((_counter)),w
  3999  14FD  1D03               	skipz
  4000  14FE  2D00               	goto	u9751
  4001  14FF  2D01               	goto	u9750
  4002  1500                     u9751:
  4003  1500  2D12               	goto	l7053
  4004  1501                     u9750:
  4005                           	
  4006  1501                     l7047:	
  4007  1501  3050               	movlw	(050h)
  4008  1502  160A  118A  2008   	fcall	_KeySend
              160A  118A         
  4009                           	
  4010  1507                     l7049:	
  4011  1507  3050               	movlw	(050h)
  4012  1508  1283               	bcf	status, 5	;RP0=0, select bank0
  4013  1509  1303               	bcf	status, 6	;RP1=0, select bank0
  4014  150A  00B3               	movwf	(??_main+0)+0
  4015  150B  0833               	movf	(??_main+0)+0,w
  4016  150C  00C1               	movwf	(_prevChar)
  4017                           	
  4018  150D                     l7051:	
  4019  150D  300A               	movlw	low(0Ah)
  4020  150E  00BF               	movwf	(_counter)
  4021  150F  3000               	movlw	high(0Ah)
  4022  1510  00C0               	movwf	((_counter))+1
  4023  1511  2DB4               	goto	l7865
  4024                           	line	260
  4025                           	
  4026  1512                     l960:	
  4027                           	
  4028  1512                     l7053:	
  4029                           ;keyboard_and_mouse_in_a_glove.c: 260: else if( prevChar=='P' ){ KeySend('^'); KeySend('
                                 Q'); prevChar='Q'; counter = 10; }
  4030  1512  0841               	movf	(_prevChar),w
  4031  1513  3A50               	xorlw	050h
  4032  1514  1D03               	skipz
  4033  1515  2D17               	goto	u9761
  4034  1516  2D18               	goto	u9760
  4035  1517                     u9761:
  4036  1517  2D2F               	goto	l7061
  4037  1518                     u9760:
  4038                           	
  4039  1518                     l7055:	
  4040  1518  305E               	movlw	(05Eh)
  4041  1519  160A  118A  2008   	fcall	_KeySend
              160A  118A         
  4042  151E  3051               	movlw	(051h)
  4043  151F  160A  118A  2008   	fcall	_KeySend
              160A  118A         
  4044                           	
  4045  1524                     l7057:	
  4046  1524  3051               	movlw	(051h)
  4047  1525  1283               	bcf	status, 5	;RP0=0, select bank0
  4048  1526  1303               	bcf	status, 6	;RP1=0, select bank0
  4049  1527  00B3               	movwf	(??_main+0)+0
  4050  1528  0833               	movf	(??_main+0)+0,w
  4051  1529  00C1               	movwf	(_prevChar)
  4052                           	
  4053  152A                     l7059:	
  4054  152A  300A               	movlw	low(0Ah)
  4055  152B  00BF               	movwf	(_counter)
  4056  152C  3000               	movlw	high(0Ah)
  4057  152D  00C0               	movwf	((_counter))+1
  4058  152E  2DB4               	goto	l7865
  4059                           	line	261
  4060                           	
  4061  152F                     l962:	
  4062                           	
  4063  152F                     l7061:	
  4064                           ;keyboard_and_mouse_in_a_glove.c: 261: else if( prevChar=='Q' ){ KeySend('^'); KeySend('
                                 R'); prevChar='R'; counter = 10; }
  4065  152F  0841               	movf	(_prevChar),w
  4066  1530  3A51               	xorlw	051h
  4067  1531  1D03               	skipz
  4068  1532  2D34               	goto	u9771
  4069  1533  2D35               	goto	u9770
  4070  1534                     u9771:
  4071  1534  2D4C               	goto	l7069
  4072  1535                     u9770:
  4073                           	
  4074  1535                     l7063:	
  4075  1535  305E               	movlw	(05Eh)
  4076  1536  160A  118A  2008   	fcall	_KeySend
              160A  118A         
  4077  153B  3052               	movlw	(052h)
  4078  153C  160A  118A  2008   	fcall	_KeySend
              160A  118A         
  4079                           	
  4080  1541                     l7065:	
  4081  1541  3052               	movlw	(052h)
  4082  1542  1283               	bcf	status, 5	;RP0=0, select bank0
  4083  1543  1303               	bcf	status, 6	;RP1=0, select bank0
  4084  1544  00B3               	movwf	(??_main+0)+0
  4085  1545  0833               	movf	(??_main+0)+0,w
  4086  1546  00C1               	movwf	(_prevChar)
  4087                           	
  4088  1547                     l7067:	
  4089  1547  300A               	movlw	low(0Ah)
  4090  1548  00BF               	movwf	(_counter)
  4091  1549  3000               	movlw	high(0Ah)
  4092  154A  00C0               	movwf	((_counter))+1
  4093  154B  2DB4               	goto	l7865
  4094                           	line	262
  4095                           	
  4096  154C                     l964:	
  4097                           	
  4098  154C                     l7069:	
  4099                           ;keyboard_and_mouse_in_a_glove.c: 262: else if( prevChar=='R' ){ KeySend('^'); KeySend('
                                 S'); prevChar='S'; counter = 10; }
  4100  154C  0841               	movf	(_prevChar),w
  4101  154D  3A52               	xorlw	052h
  4102  154E  1D03               	skipz
  4103  154F  2D51               	goto	u9781
  4104  1550  2D52               	goto	u9780
  4105  1551                     u9781:
  4106  1551  2D69               	goto	l7077
  4107  1552                     u9780:
  4108                           	
  4109  1552                     l7071:	
  4110  1552  305E               	movlw	(05Eh)
  4111  1553  160A  118A  2008   	fcall	_KeySend
              160A  118A         
  4112  1558  3053               	movlw	(053h)
  4113  1559  160A  118A  2008   	fcall	_KeySend
              160A  118A         
  4114                           	
  4115  155E                     l7073:	
  4116  155E  3053               	movlw	(053h)
  4117  155F  1283               	bcf	status, 5	;RP0=0, select bank0
  4118  1560  1303               	bcf	status, 6	;RP1=0, select bank0
  4119  1561  00B3               	movwf	(??_main+0)+0
  4120  1562  0833               	movf	(??_main+0)+0,w
  4121  1563  00C1               	movwf	(_prevChar)
  4122                           	
  4123  1564                     l7075:	
  4124  1564  300A               	movlw	low(0Ah)
  4125  1565  00BF               	movwf	(_counter)
  4126  1566  3000               	movlw	high(0Ah)
  4127  1567  00C0               	movwf	((_counter))+1
  4128  1568  2DB4               	goto	l7865
  4129                           	line	263
  4130                           	
  4131  1569                     l966:	
  4132                           	
  4133  1569                     l7077:	
  4134                           ;keyboard_and_mouse_in_a_glove.c: 263: else if( prevChar=='S' ){ KeySend('^'); KeySend('
                                 7'); prevChar='7'; counter = 10; }
  4135  1569  0841               	movf	(_prevChar),w
  4136  156A  3A53               	xorlw	053h
  4137  156B  1D03               	skipz
  4138  156C  2D6E               	goto	u9791
  4139  156D  2D6F               	goto	u9790
  4140  156E                     u9791:
  4141  156E  2D86               	goto	l7085
  4142  156F                     u9790:
  4143                           	
  4144  156F                     l7079:	
  4145  156F  305E               	movlw	(05Eh)
  4146  1570  160A  118A  2008   	fcall	_KeySend
              160A  118A         
  4147  1575  3037               	movlw	(037h)
  4148  1576  160A  118A  2008   	fcall	_KeySend
              160A  118A         
  4149                           	
  4150  157B                     l7081:	
  4151  157B  3037               	movlw	(037h)
  4152  157C  1283               	bcf	status, 5	;RP0=0, select bank0
  4153  157D  1303               	bcf	status, 6	;RP1=0, select bank0
  4154  157E  00B3               	movwf	(??_main+0)+0
  4155  157F  0833               	movf	(??_main+0)+0,w
  4156  1580  00C1               	movwf	(_prevChar)
  4157                           	
  4158  1581                     l7083:	
  4159  1581  300A               	movlw	low(0Ah)
  4160  1582  00BF               	movwf	(_counter)
  4161  1583  3000               	movlw	high(0Ah)
  4162  1584  00C0               	movwf	((_counter))+1
  4163  1585  2DB4               	goto	l7865
  4164                           	line	264
  4165                           	
  4166  1586                     l968:	
  4167                           	
  4168  1586                     l7085:	
  4169                           ;keyboard_and_mouse_in_a_glove.c: 264: else if( prevChar=='7' ){ KeySend('^'); KeySend('
                                 P'); prevChar='P'; counter = 10; }
  4170  1586  0841               	movf	(_prevChar),w
  4171  1587  3A37               	xorlw	037h
  4172  1588  1D03               	skipz
  4173  1589  2D8B               	goto	u9801
  4174  158A  2D8C               	goto	u9800
  4175  158B                     u9801:
  4176  158B  2DA3               	goto	l7093
  4177  158C                     u9800:
  4178                           	
  4179  158C                     l7087:	
  4180  158C  305E               	movlw	(05Eh)
  4181  158D  160A  118A  2008   	fcall	_KeySend
              160A  118A         
  4182  1592  3050               	movlw	(050h)
  4183  1593  160A  118A  2008   	fcall	_KeySend
              160A  118A         
  4184                           	
  4185  1598                     l7089:	
  4186  1598  3050               	movlw	(050h)
  4187  1599  1283               	bcf	status, 5	;RP0=0, select bank0
  4188  159A  1303               	bcf	status, 6	;RP1=0, select bank0
  4189  159B  00B3               	movwf	(??_main+0)+0
  4190  159C  0833               	movf	(??_main+0)+0,w
  4191  159D  00C1               	movwf	(_prevChar)
  4192                           	
  4193  159E                     l7091:	
  4194  159E  300A               	movlw	low(0Ah)
  4195  159F  00BF               	movwf	(_counter)
  4196  15A0  3000               	movlw	high(0Ah)
  4197  15A1  00C0               	movwf	((_counter))+1
  4198  15A2  2DB4               	goto	l7865
  4199                           	line	265
  4200                           	
  4201  15A3                     l970:	
  4202                           	
  4203  15A3                     l7093:	
  4204                           ;keyboard_and_mouse_in_a_glove.c: 265: else { KeySend('P'); prevChar='P'; counter = 10; 
                                 }
  4205  15A3  3050               	movlw	(050h)
  4206  15A4  160A  118A  2008   	fcall	_KeySend
              160A  118A         
  4207                           	
  4208  15A9                     l7095:	
  4209  15A9  3050               	movlw	(050h)
  4210  15AA  1283               	bcf	status, 5	;RP0=0, select bank0
  4211  15AB  1303               	bcf	status, 6	;RP1=0, select bank0
  4212  15AC  00B3               	movwf	(??_main+0)+0
  4213  15AD  0833               	movf	(??_main+0)+0,w
  4214  15AE  00C1               	movwf	(_prevChar)
  4215                           	
  4216  15AF                     l7097:	
  4217  15AF  300A               	movlw	low(0Ah)
  4218  15B0  00BF               	movwf	(_counter)
  4219  15B1  3000               	movlw	high(0Ah)
  4220  15B2  00C0               	movwf	((_counter))+1
  4221  15B3  2DB4               	goto	l7865
  4222                           	
  4223  15B4                     l971:	
  4224  15B4  120A  158A  2FF8   	goto	l7865
  4225                           	
  4226  15B7                     l969:	
  4227  15B7  2DB4               	goto	l7865
  4228                           	
  4229  15B8                     l967:	
  4230  15B8  2DB4               	goto	l7865
  4231                           	
  4232  15B9                     l965:	
  4233  15B9  2DB4               	goto	l7865
  4234                           	
  4235  15BA                     l963:	
  4236  15BA  2DB4               	goto	l7865
  4237                           	
  4238  15BB                     l961:	
  4239                           	line	266
  4240                           ;keyboard_and_mouse_in_a_glove.c: 266: }
  4241  15BB  2DB4               	goto	l7865
  4242                           	line	268
  4243                           	
  4244  15BC                     l947:	
  4245                           ;keyboard_and_mouse_in_a_glove.c: 268: else if( RD5!=0){
  4246  15BC  1E88               	btfss	(69/8),(69)&7
  4247  15BD  2DBF               	goto	u9811
  4248  15BE  2DC2               	goto	u9810
  4249  15BF                     u9811:
  4250  15BF  160A  118A  2EA9   	goto	l973
  4251  15C2                     u9810:
  4252                           	line	269
  4253                           	
  4254  15C2                     l7099:	
  4255                           ;keyboard_and_mouse_in_a_glove.c: 269: nop=1;
  4256  15C2  1579               	bsf	(_nop/8),(_nop)&7
  4257                           	line	272
  4258                           	
  4259  15C3                     l7101:	
  4260                           ;keyboard_and_mouse_in_a_glove.c: 272: _delay((unsigned long)((50)*(4000000/4000.0))); w
                                 hile(RC4!=0); _delay((unsigned long)((30)*(4000000/4000.0))); while(RC4!=0); _delay((uns
                                 igned long)((30)*(4000000/4000.0))); while(RC4!=0); _delay((unsigned long)((30)*(4000000
                                 /4000.0))); while(RC4!=0)
  4261                           	opt asmopt_off
  4262  15C3  3041               movlw	65
  4263  15C4  00B4               movwf	((??_main+0)+0+1),f
  4264  15C5  30EE               	movlw	238
  4265  15C6  00B3               movwf	((??_main+0)+0),f
  4266  15C7                     u11917:
  4267  15C7  0BB3               	decfsz	((??_main+0)+0),f
  4268  15C8  2DC7               	goto	u11917
  4269  15C9  0BB4               	decfsz	((??_main+0)+0+1),f
  4270  15CA  2DC7               	goto	u11917
  4271  15CB  0064               	clrwdt
  4272                           opt asmopt_on
  4273                           
  4274  15CC  2DCD               	goto	l974
  4275                           	
  4276  15CD                     l975:	
  4277                           	
  4278  15CD                     l974:	
  4279  15CD  1283               	bcf	status, 5	;RP0=0, select bank0
  4280  15CE  1303               	bcf	status, 6	;RP1=0, select bank0
  4281  15CF  1A07               	btfsc	(60/8),(60)&7
  4282  15D0  2DD2               	goto	u9821
  4283  15D1  2DD3               	goto	u9820
  4284  15D2                     u9821:
  4285  15D2  2DCD               	goto	l974
  4286  15D3                     u9820:
  4287  15D3  2DD4               	goto	l7103
  4288                           	
  4289  15D4                     l976:	
  4290                           	
  4291  15D4                     l7103:	
  4292                           	opt asmopt_off
  4293  15D4  3027               movlw	39
  4294  15D5  00B4               movwf	((??_main+0)+0+1),f
  4295  15D6  30F5               	movlw	245
  4296  15D7  00B3               movwf	((??_main+0)+0),f
  4297  15D8                     u11927:
  4298  15D8  0BB3               	decfsz	((??_main+0)+0),f
  4299  15D9  2DD8               	goto	u11927
  4300  15DA  0BB4               	decfsz	((??_main+0)+0+1),f
  4301  15DB  2DD8               	goto	u11927
  4302                           opt asmopt_on
  4303                           
  4304  15DC  2DDD               	goto	l977
  4305                           	
  4306  15DD                     l978:	
  4307                           	
  4308  15DD                     l977:	
  4309  15DD  1283               	bcf	status, 5	;RP0=0, select bank0
  4310  15DE  1303               	bcf	status, 6	;RP1=0, select bank0
  4311  15DF  1A07               	btfsc	(60/8),(60)&7
  4312  15E0  2DE2               	goto	u9831
  4313  15E1  2DE3               	goto	u9830
  4314  15E2                     u9831:
  4315  15E2  2DDD               	goto	l977
  4316  15E3                     u9830:
  4317  15E3  160A  118A  2DE6   	goto	l7105
  4318                           	
  4319  15E6                     l979:	
  4320                           	
  4321  15E6                     l7105:	
  4322                           	opt asmopt_off
  4323  15E6  3027               movlw	39
  4324  15E7  00B4               movwf	((??_main+0)+0+1),f
  4325  15E8  30F5               	movlw	245
  4326  15E9  00B3               movwf	((??_main+0)+0),f
  4327  15EA                     u11937:
  4328  15EA  0BB3               	decfsz	((??_main+0)+0),f
  4329  15EB  2DEA               	goto	u11937
  4330  15EC  0BB4               	decfsz	((??_main+0)+0+1),f
  4331  15ED  2DEA               	goto	u11937
  4332                           opt asmopt_on
  4333                           
  4334  15EE  2DEF               	goto	l980
  4335                           	
  4336  15EF                     l981:	
  4337                           	
  4338  15EF                     l980:	
  4339  15EF  1283               	bcf	status, 5	;RP0=0, select bank0
  4340  15F0  1303               	bcf	status, 6	;RP1=0, select bank0
  4341  15F1  1A07               	btfsc	(60/8),(60)&7
  4342  15F2  2DF4               	goto	u9841
  4343  15F3  2DF5               	goto	u9840
  4344  15F4                     u9841:
  4345  15F4  2DEF               	goto	l980
  4346  15F5                     u9840:
  4347  15F5  2DF6               	goto	l7107
  4348                           	
  4349  15F6                     l982:	
  4350                           	
  4351  15F6                     l7107:	
  4352                           	opt asmopt_off
  4353  15F6  3027               movlw	39
  4354  15F7  00B4               movwf	((??_main+0)+0+1),f
  4355  15F8  30F5               	movlw	245
  4356  15F9  00B3               movwf	((??_main+0)+0),f
  4357  15FA                     u11947:
  4358  15FA  0BB3               	decfsz	((??_main+0)+0),f
  4359  15FB  2DFA               	goto	u11947
  4360  15FC  0BB4               	decfsz	((??_main+0)+0+1),f
  4361  15FD  2DFA               	goto	u11947
  4362                           opt asmopt_on
  4363                           
  4364  15FE  2DFF               	goto	l983
  4365                           	
  4366  15FF                     l984:	
  4367                           	
  4368  15FF                     l983:	
  4369  15FF  1283               	bcf	status, 5	;RP0=0, select bank0
  4370  1600  1303               	bcf	status, 6	;RP1=0, select bank0
  4371  1601  1A07               	btfsc	(60/8),(60)&7
  4372  1602  2E04               	goto	u9851
  4373  1603  2E05               	goto	u9850
  4374  1604                     u9851:
  4375  1604  2DFF               	goto	l983
  4376  1605                     u9850:
  4377  1605  2E06               	goto	l7109
  4378                           	
  4379  1606                     l985:	
  4380                           	line	275
  4381                           	
  4382  1606                     l7109:	
  4383                           ;keyboard_and_mouse_in_a_glove.c: 275: if ( counter==0 ){ KeySend('T'); prevChar='T'; co
                                 unter = 10; }
  4384  1606  0840               	movf	((_counter+1)),w
  4385  1607  043F               	iorwf	((_counter)),w
  4386  1608  1D03               	skipz
  4387  1609  2E0B               	goto	u9861
  4388  160A  2E0C               	goto	u9860
  4389  160B                     u9861:
  4390  160B  2E1D               	goto	l7117
  4391  160C                     u9860:
  4392                           	
  4393  160C                     l7111:	
  4394  160C  3054               	movlw	(054h)
  4395  160D  160A  118A  2008   	fcall	_KeySend
              160A  118A         
  4396                           	
  4397  1612                     l7113:	
  4398  1612  3054               	movlw	(054h)
  4399  1613  1283               	bcf	status, 5	;RP0=0, select bank0
  4400  1614  1303               	bcf	status, 6	;RP1=0, select bank0
  4401  1615  00B3               	movwf	(??_main+0)+0
  4402  1616  0833               	movf	(??_main+0)+0,w
  4403  1617  00C1               	movwf	(_prevChar)
  4404                           	
  4405  1618                     l7115:	
  4406  1618  300A               	movlw	low(0Ah)
  4407  1619  00BF               	movwf	(_counter)
  4408  161A  3000               	movlw	high(0Ah)
  4409  161B  00C0               	movwf	((_counter))+1
  4410  161C  2EA2               	goto	l7865
  4411                           	line	276
  4412                           	
  4413  161D                     l986:	
  4414                           	
  4415  161D                     l7117:	
  4416                           ;keyboard_and_mouse_in_a_glove.c: 276: else if( prevChar=='T' ){ KeySend('^'); KeySend('
                                 U'); prevChar='U'; counter = 10; }
  4417  161D  0841               	movf	(_prevChar),w
  4418  161E  3A54               	xorlw	054h
  4419  161F  1D03               	skipz
  4420  1620  2E22               	goto	u9871
  4421  1621  2E23               	goto	u9870
  4422  1622                     u9871:
  4423  1622  2E3A               	goto	l7125
  4424  1623                     u9870:
  4425                           	
  4426  1623                     l7119:	
  4427  1623  305E               	movlw	(05Eh)
  4428  1624  160A  118A  2008   	fcall	_KeySend
              160A  118A         
  4429  1629  3055               	movlw	(055h)
  4430  162A  160A  118A  2008   	fcall	_KeySend
              160A  118A         
  4431                           	
  4432  162F                     l7121:	
  4433  162F  3055               	movlw	(055h)
  4434  1630  1283               	bcf	status, 5	;RP0=0, select bank0
  4435  1631  1303               	bcf	status, 6	;RP1=0, select bank0
  4436  1632  00B3               	movwf	(??_main+0)+0
  4437  1633  0833               	movf	(??_main+0)+0,w
  4438  1634  00C1               	movwf	(_prevChar)
  4439                           	
  4440  1635                     l7123:	
  4441  1635  300A               	movlw	low(0Ah)
  4442  1636  00BF               	movwf	(_counter)
  4443  1637  3000               	movlw	high(0Ah)
  4444  1638  00C0               	movwf	((_counter))+1
  4445  1639  2EA2               	goto	l7865
  4446                           	line	277
  4447                           	
  4448  163A                     l988:	
  4449                           	
  4450  163A                     l7125:	
  4451                           ;keyboard_and_mouse_in_a_glove.c: 277: else if( prevChar=='U' ){ KeySend('^'); KeySend('
                                 V'); prevChar='V'; counter = 10; }
  4452  163A  0841               	movf	(_prevChar),w
  4453  163B  3A55               	xorlw	055h
  4454  163C  1D03               	skipz
  4455  163D  2E3F               	goto	u9881
  4456  163E  2E40               	goto	u9880
  4457  163F                     u9881:
  4458  163F  2E57               	goto	l7133
  4459  1640                     u9880:
  4460                           	
  4461  1640                     l7127:	
  4462  1640  305E               	movlw	(05Eh)
  4463  1641  160A  118A  2008   	fcall	_KeySend
              160A  118A         
  4464  1646  3056               	movlw	(056h)
  4465  1647  160A  118A  2008   	fcall	_KeySend
              160A  118A         
  4466                           	
  4467  164C                     l7129:	
  4468  164C  3056               	movlw	(056h)
  4469  164D  1283               	bcf	status, 5	;RP0=0, select bank0
  4470  164E  1303               	bcf	status, 6	;RP1=0, select bank0
  4471  164F  00B3               	movwf	(??_main+0)+0
  4472  1650  0833               	movf	(??_main+0)+0,w
  4473  1651  00C1               	movwf	(_prevChar)
  4474                           	
  4475  1652                     l7131:	
  4476  1652  300A               	movlw	low(0Ah)
  4477  1653  00BF               	movwf	(_counter)
  4478  1654  3000               	movlw	high(0Ah)
  4479  1655  00C0               	movwf	((_counter))+1
  4480  1656  2EA2               	goto	l7865
  4481                           	line	278
  4482                           	
  4483  1657                     l990:	
  4484                           	
  4485  1657                     l7133:	
  4486                           ;keyboard_and_mouse_in_a_glove.c: 278: else if( prevChar=='V' ){ KeySend('^'); KeySend('
                                 8'); prevChar='8'; counter = 10; }
  4487  1657  0841               	movf	(_prevChar),w
  4488  1658  3A56               	xorlw	056h
  4489  1659  1D03               	skipz
  4490  165A  2E5C               	goto	u9891
  4491  165B  2E5D               	goto	u9890
  4492  165C                     u9891:
  4493  165C  2E74               	goto	l7141
  4494  165D                     u9890:
  4495                           	
  4496  165D                     l7135:	
  4497  165D  305E               	movlw	(05Eh)
  4498  165E  160A  118A  2008   	fcall	_KeySend
              160A  118A         
  4499  1663  3038               	movlw	(038h)
  4500  1664  160A  118A  2008   	fcall	_KeySend
              160A  118A         
  4501                           	
  4502  1669                     l7137:	
  4503  1669  3038               	movlw	(038h)
  4504  166A  1283               	bcf	status, 5	;RP0=0, select bank0
  4505  166B  1303               	bcf	status, 6	;RP1=0, select bank0
  4506  166C  00B3               	movwf	(??_main+0)+0
  4507  166D  0833               	movf	(??_main+0)+0,w
  4508  166E  00C1               	movwf	(_prevChar)
  4509                           	
  4510  166F                     l7139:	
  4511  166F  300A               	movlw	low(0Ah)
  4512  1670  00BF               	movwf	(_counter)
  4513  1671  3000               	movlw	high(0Ah)
  4514  1672  00C0               	movwf	((_counter))+1
  4515  1673  2EA2               	goto	l7865
  4516                           	line	279
  4517                           	
  4518  1674                     l992:	
  4519                           	
  4520  1674                     l7141:	
  4521                           ;keyboard_and_mouse_in_a_glove.c: 279: else if( prevChar=='8' ){ KeySend('^'); KeySend('
                                 T'); prevChar='T'; counter = 10; }
  4522  1674  0841               	movf	(_prevChar),w
  4523  1675  3A38               	xorlw	038h
  4524  1676  1D03               	skipz
  4525  1677  2E79               	goto	u9901
  4526  1678  2E7A               	goto	u9900
  4527  1679                     u9901:
  4528  1679  2E91               	goto	l7149
  4529  167A                     u9900:
  4530                           	
  4531  167A                     l7143:	
  4532  167A  305E               	movlw	(05Eh)
  4533  167B  160A  118A  2008   	fcall	_KeySend
              160A  118A         
  4534  1680  3054               	movlw	(054h)
  4535  1681  160A  118A  2008   	fcall	_KeySend
              160A  118A         
  4536                           	
  4537  1686                     l7145:	
  4538  1686  3054               	movlw	(054h)
  4539  1687  1283               	bcf	status, 5	;RP0=0, select bank0
  4540  1688  1303               	bcf	status, 6	;RP1=0, select bank0
  4541  1689  00B3               	movwf	(??_main+0)+0
  4542  168A  0833               	movf	(??_main+0)+0,w
  4543  168B  00C1               	movwf	(_prevChar)
  4544                           	
  4545  168C                     l7147:	
  4546  168C  300A               	movlw	low(0Ah)
  4547  168D  00BF               	movwf	(_counter)
  4548  168E  3000               	movlw	high(0Ah)
  4549  168F  00C0               	movwf	((_counter))+1
  4550  1690  2EA2               	goto	l7865
  4551                           	line	280
  4552                           	
  4553  1691                     l994:	
  4554                           	
  4555  1691                     l7149:	
  4556                           ;keyboard_and_mouse_in_a_glove.c: 280: else { KeySend('T'); prevChar='T'; counter = 10; 
                                 }
  4557  1691  3054               	movlw	(054h)
  4558  1692  160A  118A  2008   	fcall	_KeySend
              160A  118A         
  4559                           	
  4560  1697                     l7151:	
  4561  1697  3054               	movlw	(054h)
  4562  1698  1283               	bcf	status, 5	;RP0=0, select bank0
  4563  1699  1303               	bcf	status, 6	;RP1=0, select bank0
  4564  169A  00B3               	movwf	(??_main+0)+0
  4565  169B  0833               	movf	(??_main+0)+0,w
  4566  169C  00C1               	movwf	(_prevChar)
  4567                           	
  4568  169D                     l7153:	
  4569  169D  300A               	movlw	low(0Ah)
  4570  169E  00BF               	movwf	(_counter)
  4571  169F  3000               	movlw	high(0Ah)
  4572  16A0  00C0               	movwf	((_counter))+1
  4573  16A1  2EA2               	goto	l7865
  4574                           	
  4575  16A2                     l995:	
  4576  16A2  120A  158A  2FF8   	goto	l7865
  4577                           	
  4578  16A5                     l993:	
  4579  16A5  2EA2               	goto	l7865
  4580                           	
  4581  16A6                     l991:	
  4582  16A6  2EA2               	goto	l7865
  4583                           	
  4584  16A7                     l989:	
  4585  16A7  2EA2               	goto	l7865
  4586                           	
  4587  16A8                     l987:	
  4588                           	line	281
  4589                           ;keyboard_and_mouse_in_a_glove.c: 281: }
  4590  16A8  2EA2               	goto	l7865
  4591                           	line	283
  4592                           	
  4593  16A9                     l973:	
  4594                           ;keyboard_and_mouse_in_a_glove.c: 283: else if( RB1!=0 ){
  4595  16A9  1C86               	btfss	(49/8),(49)&7
  4596  16AA  2EAC               	goto	u9911
  4597  16AB  2EAF               	goto	u9910
  4598  16AC                     u9911:
  4599  16AC  120A  118A  2B10   	goto	l997
  4600  16AF                     u9910:
  4601                           	line	284
  4602                           	
  4603  16AF                     l7155:	
  4604                           ;keyboard_and_mouse_in_a_glove.c: 284: nop=1;
  4605  16AF  1579               	bsf	(_nop/8),(_nop)&7
  4606                           	line	287
  4607                           	
  4608  16B0                     l7157:	
  4609                           ;keyboard_and_mouse_in_a_glove.c: 287: _delay((unsigned long)((50)*(4000000/4000.0))); w
                                 hile(RC4!=0); _delay((unsigned long)((30)*(4000000/4000.0))); while(RC4!=0); _delay((uns
                                 igned long)((30)*(4000000/4000.0))); while(RC4!=0); _delay((unsigned long)((30)*(4000000
                                 /4000.0))); while(RC4!=0)
  4610                           	opt asmopt_off
  4611  16B0  3041               movlw	65
  4612  16B1  00B4               movwf	((??_main+0)+0+1),f
  4613  16B2  30EE               	movlw	238
  4614  16B3  00B3               movwf	((??_main+0)+0),f
  4615  16B4                     u11957:
  4616  16B4  0BB3               	decfsz	((??_main+0)+0),f
  4617  16B5  2EB4               	goto	u11957
  4618  16B6  0BB4               	decfsz	((??_main+0)+0+1),f
  4619  16B7  2EB4               	goto	u11957
  4620  16B8  0064               	clrwdt
  4621                           opt asmopt_on
  4622                           
  4623  16B9  2EBA               	goto	l998
  4624                           	
  4625  16BA                     l999:	
  4626                           	
  4627  16BA                     l998:	
  4628  16BA  1283               	bcf	status, 5	;RP0=0, select bank0
  4629  16BB  1303               	bcf	status, 6	;RP1=0, select bank0
  4630  16BC  1A07               	btfsc	(60/8),(60)&7
  4631  16BD  2EBF               	goto	u9921
  4632  16BE  2EC0               	goto	u9920
  4633  16BF                     u9921:
  4634  16BF  2EBA               	goto	l998
  4635  16C0                     u9920:
  4636  16C0  2EC1               	goto	l7159
  4637                           	
  4638  16C1                     l1000:	
  4639                           	
  4640  16C1                     l7159:	
  4641                           	opt asmopt_off
  4642  16C1  3027               movlw	39
  4643  16C2  00B4               movwf	((??_main+0)+0+1),f
  4644  16C3  30F5               	movlw	245
  4645  16C4  00B3               movwf	((??_main+0)+0),f
  4646  16C5                     u11967:
  4647  16C5  0BB3               	decfsz	((??_main+0)+0),f
  4648  16C6  2EC5               	goto	u11967
  4649  16C7  0BB4               	decfsz	((??_main+0)+0+1),f
  4650  16C8  2EC5               	goto	u11967
  4651                           opt asmopt_on
  4652                           
  4653  16C9  2ECA               	goto	l1001
  4654                           	
  4655  16CA                     l1002:	
  4656                           	
  4657  16CA                     l1001:	
  4658  16CA  1283               	bcf	status, 5	;RP0=0, select bank0
  4659  16CB  1303               	bcf	status, 6	;RP1=0, select bank0
  4660  16CC  1A07               	btfsc	(60/8),(60)&7
  4661  16CD  2ECF               	goto	u9931
  4662  16CE  2ED0               	goto	u9930
  4663  16CF                     u9931:
  4664  16CF  2ECA               	goto	l1001
  4665  16D0                     u9930:
  4666  16D0  2ED1               	goto	l7161
  4667                           	
  4668  16D1                     l1003:	
  4669                           	
  4670  16D1                     l7161:	
  4671                           	opt asmopt_off
  4672  16D1  3027               movlw	39
  4673  16D2  00B4               movwf	((??_main+0)+0+1),f
  4674  16D3  30F5               	movlw	245
  4675  16D4  00B3               movwf	((??_main+0)+0),f
  4676  16D5                     u11977:
  4677  16D5  0BB3               	decfsz	((??_main+0)+0),f
  4678  16D6  2ED5               	goto	u11977
  4679  16D7  0BB4               	decfsz	((??_main+0)+0+1),f
  4680  16D8  2ED5               	goto	u11977
  4681                           opt asmopt_on
  4682                           
  4683  16D9  2EDA               	goto	l1004
  4684                           	
  4685  16DA                     l1005:	
  4686                           	
  4687  16DA                     l1004:	
  4688  16DA  1283               	bcf	status, 5	;RP0=0, select bank0
  4689  16DB  1303               	bcf	status, 6	;RP1=0, select bank0
  4690  16DC  1A07               	btfsc	(60/8),(60)&7
  4691  16DD  2EDF               	goto	u9941
  4692  16DE  2EE0               	goto	u9940
  4693  16DF                     u9941:
  4694  16DF  2EDA               	goto	l1004
  4695  16E0                     u9940:
  4696  16E0  2EE1               	goto	l7163
  4697                           	
  4698  16E1                     l1006:	
  4699                           	
  4700  16E1                     l7163:	
  4701                           	opt asmopt_off
  4702  16E1  3027               movlw	39
  4703  16E2  00B4               movwf	((??_main+0)+0+1),f
  4704  16E3  30F5               	movlw	245
  4705  16E4  00B3               movwf	((??_main+0)+0),f
  4706  16E5                     u11987:
  4707  16E5  0BB3               	decfsz	((??_main+0)+0),f
  4708  16E6  2EE5               	goto	u11987
  4709  16E7  0BB4               	decfsz	((??_main+0)+0+1),f
  4710  16E8  2EE5               	goto	u11987
  4711                           opt asmopt_on
  4712                           
  4713  16E9  2EEA               	goto	l1007
  4714                           	
  4715  16EA                     l1008:	
  4716                           	
  4717  16EA                     l1007:	
  4718  16EA  1283               	bcf	status, 5	;RP0=0, select bank0
  4719  16EB  1303               	bcf	status, 6	;RP1=0, select bank0
  4720  16EC  1A07               	btfsc	(60/8),(60)&7
  4721  16ED  2EEF               	goto	u9951
  4722  16EE  2EF0               	goto	u9950
  4723  16EF                     u9951:
  4724  16EF  2EEA               	goto	l1007
  4725  16F0                     u9950:
  4726  16F0  120A  118A  2A4F   	goto	l7165
  4727                           	
  4728  024F                     l1009:	
  4729                           	line	290
  4730                           	
  4731  024F                     l7165:	
  4732                           ;keyboard_and_mouse_in_a_glove.c: 290: if ( counter==0 ){ KeySend('W'); prevChar='W'; co
                                 unter = 10; }
  4733  024F  0840               	movf	((_counter+1)),w
  4734  0250  043F               	iorwf	((_counter)),w
  4735  0251  1D03               	skipz
  4736  0252  2A54               	goto	u9961
  4737  0253  2A55               	goto	u9960
  4738  0254                     u9961:
  4739  0254  2A66               	goto	l7173
  4740  0255                     u9960:
  4741                           	
  4742  0255                     l7167:	
  4743  0255  3057               	movlw	(057h)
  4744  0256  160A  118A  2008   	fcall	_KeySend
              120A  118A         
  4745                           	
  4746  025B                     l7169:	
  4747  025B  3057               	movlw	(057h)
  4748  025C  1283               	bcf	status, 5	;RP0=0, select bank0
  4749  025D  1303               	bcf	status, 6	;RP1=0, select bank0
  4750  025E  00B3               	movwf	(??_main+0)+0
  4751  025F  0833               	movf	(??_main+0)+0,w
  4752  0260  00C1               	movwf	(_prevChar)
  4753                           	
  4754  0261                     l7171:	
  4755  0261  300A               	movlw	low(0Ah)
  4756  0262  00BF               	movwf	(_counter)
  4757  0263  3000               	movlw	high(0Ah)
  4758  0264  00C0               	movwf	((_counter))+1
  4759  0265  2B08               	goto	l7865
  4760                           	line	291
  4761                           	
  4762  0266                     l1010:	
  4763                           	
  4764  0266                     l7173:	
  4765                           ;keyboard_and_mouse_in_a_glove.c: 291: else if( prevChar=='W' ){ KeySend('^'); KeySend('
                                 X'); prevChar='X'; counter = 10; }
  4766  0266  0841               	movf	(_prevChar),w
  4767  0267  3A57               	xorlw	057h
  4768  0268  1D03               	skipz
  4769  0269  2A6B               	goto	u9971
  4770  026A  2A6C               	goto	u9970
  4771  026B                     u9971:
  4772  026B  2A83               	goto	l7181
  4773  026C                     u9970:
  4774                           	
  4775  026C                     l7175:	
  4776  026C  305E               	movlw	(05Eh)
  4777  026D  160A  118A  2008   	fcall	_KeySend
              120A  118A         
  4778  0272  3058               	movlw	(058h)
  4779  0273  160A  118A  2008   	fcall	_KeySend
              120A  118A         
  4780                           	
  4781  0278                     l7177:	
  4782  0278  3058               	movlw	(058h)
  4783  0279  1283               	bcf	status, 5	;RP0=0, select bank0
  4784  027A  1303               	bcf	status, 6	;RP1=0, select bank0
  4785  027B  00B3               	movwf	(??_main+0)+0
  4786  027C  0833               	movf	(??_main+0)+0,w
  4787  027D  00C1               	movwf	(_prevChar)
  4788                           	
  4789  027E                     l7179:	
  4790  027E  300A               	movlw	low(0Ah)
  4791  027F  00BF               	movwf	(_counter)
  4792  0280  3000               	movlw	high(0Ah)
  4793  0281  00C0               	movwf	((_counter))+1
  4794  0282  2B08               	goto	l7865
  4795                           	line	292
  4796                           	
  4797  0283                     l1012:	
  4798                           	
  4799  0283                     l7181:	
  4800                           ;keyboard_and_mouse_in_a_glove.c: 292: else if( prevChar=='X' ){ KeySend('^'); KeySend('
                                 Y'); prevChar='Y'; counter = 10; }
  4801  0283  0841               	movf	(_prevChar),w
  4802  0284  3A58               	xorlw	058h
  4803  0285  1D03               	skipz
  4804  0286  2A88               	goto	u9981
  4805  0287  2A89               	goto	u9980
  4806  0288                     u9981:
  4807  0288  2AA0               	goto	l7189
  4808  0289                     u9980:
  4809                           	
  4810  0289                     l7183:	
  4811  0289  305E               	movlw	(05Eh)
  4812  028A  160A  118A  2008   	fcall	_KeySend
              120A  118A         
  4813  028F  3059               	movlw	(059h)
  4814  0290  160A  118A  2008   	fcall	_KeySend
              120A  118A         
  4815                           	
  4816  0295                     l7185:	
  4817  0295  3059               	movlw	(059h)
  4818  0296  1283               	bcf	status, 5	;RP0=0, select bank0
  4819  0297  1303               	bcf	status, 6	;RP1=0, select bank0
  4820  0298  00B3               	movwf	(??_main+0)+0
  4821  0299  0833               	movf	(??_main+0)+0,w
  4822  029A  00C1               	movwf	(_prevChar)
  4823                           	
  4824  029B                     l7187:	
  4825  029B  300A               	movlw	low(0Ah)
  4826  029C  00BF               	movwf	(_counter)
  4827  029D  3000               	movlw	high(0Ah)
  4828  029E  00C0               	movwf	((_counter))+1
  4829  029F  2B08               	goto	l7865
  4830                           	line	293
  4831                           	
  4832  02A0                     l1014:	
  4833                           	
  4834  02A0                     l7189:	
  4835                           ;keyboard_and_mouse_in_a_glove.c: 293: else if( prevChar=='Y' ){ KeySend('^'); KeySend('
                                 Z'); prevChar='Z'; counter = 10; }
  4836  02A0  0841               	movf	(_prevChar),w
  4837  02A1  3A59               	xorlw	059h
  4838  02A2  1D03               	skipz
  4839  02A3  2AA5               	goto	u9991
  4840  02A4  2AA6               	goto	u9990
  4841  02A5                     u9991:
  4842  02A5  2ABD               	goto	l7197
  4843  02A6                     u9990:
  4844                           	
  4845  02A6                     l7191:	
  4846  02A6  305E               	movlw	(05Eh)
  4847  02A7  160A  118A  2008   	fcall	_KeySend
              120A  118A         
  4848  02AC  305A               	movlw	(05Ah)
  4849  02AD  160A  118A  2008   	fcall	_KeySend
              120A  118A         
  4850                           	
  4851  02B2                     l7193:	
  4852  02B2  305A               	movlw	(05Ah)
  4853  02B3  1283               	bcf	status, 5	;RP0=0, select bank0
  4854  02B4  1303               	bcf	status, 6	;RP1=0, select bank0
  4855  02B5  00B3               	movwf	(??_main+0)+0
  4856  02B6  0833               	movf	(??_main+0)+0,w
  4857  02B7  00C1               	movwf	(_prevChar)
  4858                           	
  4859  02B8                     l7195:	
  4860  02B8  300A               	movlw	low(0Ah)
  4861  02B9  00BF               	movwf	(_counter)
  4862  02BA  3000               	movlw	high(0Ah)
  4863  02BB  00C0               	movwf	((_counter))+1
  4864  02BC  2B08               	goto	l7865
  4865                           	line	294
  4866                           	
  4867  02BD                     l1016:	
  4868                           	
  4869  02BD                     l7197:	
  4870                           ;keyboard_and_mouse_in_a_glove.c: 294: else if( prevChar=='Z' ){ KeySend('^'); KeySend('
                                 9'); prevChar='9'; counter = 10; }
  4871  02BD  0841               	movf	(_prevChar),w
  4872  02BE  3A5A               	xorlw	05Ah
  4873  02BF  1D03               	skipz
  4874  02C0  2AC2               	goto	u10001
  4875  02C1  2AC3               	goto	u10000
  4876  02C2                     u10001:
  4877  02C2  2ADA               	goto	l7205
  4878  02C3                     u10000:
  4879                           	
  4880  02C3                     l7199:	
  4881  02C3  305E               	movlw	(05Eh)
  4882  02C4  160A  118A  2008   	fcall	_KeySend
              120A  118A         
  4883  02C9  3039               	movlw	(039h)
  4884  02CA  160A  118A  2008   	fcall	_KeySend
              120A  118A         
  4885                           	
  4886  02CF                     l7201:	
  4887  02CF  3039               	movlw	(039h)
  4888  02D0  1283               	bcf	status, 5	;RP0=0, select bank0
  4889  02D1  1303               	bcf	status, 6	;RP1=0, select bank0
  4890  02D2  00B3               	movwf	(??_main+0)+0
  4891  02D3  0833               	movf	(??_main+0)+0,w
  4892  02D4  00C1               	movwf	(_prevChar)
  4893                           	
  4894  02D5                     l7203:	
  4895  02D5  300A               	movlw	low(0Ah)
  4896  02D6  00BF               	movwf	(_counter)
  4897  02D7  3000               	movlw	high(0Ah)
  4898  02D8  00C0               	movwf	((_counter))+1
  4899  02D9  2B08               	goto	l7865
  4900                           	line	295
  4901                           	
  4902  02DA                     l1018:	
  4903                           	
  4904  02DA                     l7205:	
  4905                           ;keyboard_and_mouse_in_a_glove.c: 295: else if( prevChar=='9' ){ KeySend('^'); KeySend('
                                 W'); prevChar='W'; counter = 10; }
  4906  02DA  0841               	movf	(_prevChar),w
  4907  02DB  3A39               	xorlw	039h
  4908  02DC  1D03               	skipz
  4909  02DD  2ADF               	goto	u10011
  4910  02DE  2AE0               	goto	u10010
  4911  02DF                     u10011:
  4912  02DF  2AF7               	goto	l7213
  4913  02E0                     u10010:
  4914                           	
  4915  02E0                     l7207:	
  4916  02E0  305E               	movlw	(05Eh)
  4917  02E1  160A  118A  2008   	fcall	_KeySend
              120A  118A         
  4918  02E6  3057               	movlw	(057h)
  4919  02E7  160A  118A  2008   	fcall	_KeySend
              120A  118A         
  4920                           	
  4921  02EC                     l7209:	
  4922  02EC  3057               	movlw	(057h)
  4923  02ED  1283               	bcf	status, 5	;RP0=0, select bank0
  4924  02EE  1303               	bcf	status, 6	;RP1=0, select bank0
  4925  02EF  00B3               	movwf	(??_main+0)+0
  4926  02F0  0833               	movf	(??_main+0)+0,w
  4927  02F1  00C1               	movwf	(_prevChar)
  4928                           	
  4929  02F2                     l7211:	
  4930  02F2  300A               	movlw	low(0Ah)
  4931  02F3  00BF               	movwf	(_counter)
  4932  02F4  3000               	movlw	high(0Ah)
  4933  02F5  00C0               	movwf	((_counter))+1
  4934  02F6  2B08               	goto	l7865
  4935                           	line	296
  4936                           	
  4937  02F7                     l1020:	
  4938                           	
  4939  02F7                     l7213:	
  4940                           ;keyboard_and_mouse_in_a_glove.c: 296: else { KeySend('W'); prevChar='W'; counter = 10; 
                                 }
  4941  02F7  3057               	movlw	(057h)
  4942  02F8  160A  118A  2008   	fcall	_KeySend
              120A  118A         
  4943                           	
  4944  02FD                     l7215:	
  4945  02FD  3057               	movlw	(057h)
  4946  02FE  1283               	bcf	status, 5	;RP0=0, select bank0
  4947  02FF  1303               	bcf	status, 6	;RP1=0, select bank0
  4948  0300  00B3               	movwf	(??_main+0)+0
  4949  0301  0833               	movf	(??_main+0)+0,w
  4950  0302  00C1               	movwf	(_prevChar)
  4951                           	
  4952  0303                     l7217:	
  4953  0303  300A               	movlw	low(0Ah)
  4954  0304  00BF               	movwf	(_counter)
  4955  0305  3000               	movlw	high(0Ah)
  4956  0306  00C0               	movwf	((_counter))+1
  4957  0307  2B08               	goto	l7865
  4958                           	
  4959  0308                     l1021:	
  4960  0308  120A  158A  2FF8   	goto	l7865
  4961                           	
  4962  030B                     l1019:	
  4963  030B  2B08               	goto	l7865
  4964                           	
  4965  030C                     l1017:	
  4966  030C  2B08               	goto	l7865
  4967                           	
  4968  030D                     l1015:	
  4969  030D  2B08               	goto	l7865
  4970                           	
  4971  030E                     l1013:	
  4972  030E  2B08               	goto	l7865
  4973                           	
  4974  030F                     l1011:	
  4975                           	line	297
  4976                           ;keyboard_and_mouse_in_a_glove.c: 297: }
  4977  030F  2B08               	goto	l7865
  4978                           	line	298
  4979                           	
  4980  0310                     l997:	
  4981                           ;keyboard_and_mouse_in_a_glove.c: 298: else if( RC5!=0 ){
  4982  0310  1E87               	btfss	(61/8),(61)&7
  4983  0311  2B13               	goto	u10021
  4984  0312  2B16               	goto	u10020
  4985  0313                     u10021:
  4986  0313  120A  118A  2C75   	goto	l1023
  4987  0316                     u10020:
  4988                           	line	301
  4989                           	
  4990  0316                     l7219:	
  4991                           ;keyboard_and_mouse_in_a_glove.c: 301: _delay((unsigned long)((50)*(4000000/4000.0))); w
                                 hile(RC4!=0); _delay((unsigned long)((30)*(4000000/4000.0))); while(RC4!=0); _delay((uns
                                 igned long)((30)*(4000000/4000.0))); while(RC4!=0); _delay((unsigned long)((30)*(4000000
                                 /4000.0))); while(RC4!=0)
  4992                           	opt asmopt_off
  4993  0316  3041               movlw	65
  4994  0317  00B4               movwf	((??_main+0)+0+1),f
  4995  0318  30EE               	movlw	238
  4996  0319  00B3               movwf	((??_main+0)+0),f
  4997  031A                     u11997:
  4998  031A  0BB3               	decfsz	((??_main+0)+0),f
  4999  031B  2B1A               	goto	u11997
  5000  031C  0BB4               	decfsz	((??_main+0)+0+1),f
  5001  031D  2B1A               	goto	u11997
  5002  031E  0064               	clrwdt
  5003                           opt asmopt_on
  5004                           
  5005  031F  2B20               	goto	l1024
  5006                           	
  5007  0320                     l1025:	
  5008                           	
  5009  0320                     l1024:	
  5010  0320  1283               	bcf	status, 5	;RP0=0, select bank0
  5011  0321  1303               	bcf	status, 6	;RP1=0, select bank0
  5012  0322  1A07               	btfsc	(60/8),(60)&7
  5013  0323  2B25               	goto	u10031
  5014  0324  2B26               	goto	u10030
  5015  0325                     u10031:
  5016  0325  2B20               	goto	l1024
  5017  0326                     u10030:
  5018  0326  2B27               	goto	l7221
  5019                           	
  5020  0327                     l1026:	
  5021                           	
  5022  0327                     l7221:	
  5023                           	opt asmopt_off
  5024  0327  3027               movlw	39
  5025  0328  00B4               movwf	((??_main+0)+0+1),f
  5026  0329  30F5               	movlw	245
  5027  032A  00B3               movwf	((??_main+0)+0),f
  5028  032B                     u12007:
  5029  032B  0BB3               	decfsz	((??_main+0)+0),f
  5030  032C  2B2B               	goto	u12007
  5031  032D  0BB4               	decfsz	((??_main+0)+0+1),f
  5032  032E  2B2B               	goto	u12007
  5033                           opt asmopt_on
  5034                           
  5035  032F  2B30               	goto	l1027
  5036                           	
  5037  0330                     l1028:	
  5038                           	
  5039  0330                     l1027:	
  5040  0330  1283               	bcf	status, 5	;RP0=0, select bank0
  5041  0331  1303               	bcf	status, 6	;RP1=0, select bank0
  5042  0332  1A07               	btfsc	(60/8),(60)&7
  5043  0333  2B35               	goto	u10041
  5044  0334  2B36               	goto	u10040
  5045  0335                     u10041:
  5046  0335  2B30               	goto	l1027
  5047  0336                     u10040:
  5048  0336  2B37               	goto	l7223
  5049                           	
  5050  0337                     l1029:	
  5051                           	
  5052  0337                     l7223:	
  5053                           	opt asmopt_off
  5054  0337  3027               movlw	39
  5055  0338  00B4               movwf	((??_main+0)+0+1),f
  5056  0339  30F5               	movlw	245
  5057  033A  00B3               movwf	((??_main+0)+0),f
  5058  033B                     u12017:
  5059  033B  0BB3               	decfsz	((??_main+0)+0),f
  5060  033C  2B3B               	goto	u12017
  5061  033D  0BB4               	decfsz	((??_main+0)+0+1),f
  5062  033E  2B3B               	goto	u12017
  5063                           opt asmopt_on
  5064                           
  5065  033F  2B40               	goto	l1030
  5066                           	
  5067  0340                     l1031:	
  5068                           	
  5069  0340                     l1030:	
  5070  0340  1283               	bcf	status, 5	;RP0=0, select bank0
  5071  0341  1303               	bcf	status, 6	;RP1=0, select bank0
  5072  0342  1A07               	btfsc	(60/8),(60)&7
  5073  0343  2B45               	goto	u10051
  5074  0344  2B46               	goto	u10050
  5075  0345                     u10051:
  5076  0345  2B40               	goto	l1030
  5077  0346                     u10050:
  5078  0346  2B47               	goto	l7225
  5079                           	
  5080  0347                     l1032:	
  5081                           	
  5082  0347                     l7225:	
  5083                           	opt asmopt_off
  5084  0347  3027               movlw	39
  5085  0348  00B4               movwf	((??_main+0)+0+1),f
  5086  0349  30F5               	movlw	245
  5087  034A  00B3               movwf	((??_main+0)+0),f
  5088  034B                     u12027:
  5089  034B  0BB3               	decfsz	((??_main+0)+0),f
  5090  034C  2B4B               	goto	u12027
  5091  034D  0BB4               	decfsz	((??_main+0)+0+1),f
  5092  034E  2B4B               	goto	u12027
  5093                           opt asmopt_on
  5094                           
  5095  034F  2B50               	goto	l1033
  5096                           	
  5097  0350                     l1034:	
  5098                           	
  5099  0350                     l1033:	
  5100  0350  1283               	bcf	status, 5	;RP0=0, select bank0
  5101  0351  1303               	bcf	status, 6	;RP1=0, select bank0
  5102  0352  1A07               	btfsc	(60/8),(60)&7
  5103  0353  2B55               	goto	u10061
  5104  0354  2B56               	goto	u10060
  5105  0355                     u10061:
  5106  0355  2B50               	goto	l1033
  5107  0356                     u10060:
  5108                           	
  5109  0356                     l1035:	
  5110                           	line	303
  5111                           ;keyboard_and_mouse_in_a_glove.c: 303: MOUSE_SELECT = 1;
  5112  0356  14F9               	bsf	(_MOUSE_SELECT/8),(_MOUSE_SELECT)&7
  5113                           	line	304
  5114                           ;keyboard_and_mouse_in_a_glove.c: 304: RC1 = MOUSE_SELECT;
  5115  0357  18F9               	btfsc	(_MOUSE_SELECT/8),(_MOUSE_SELECT)&7
  5116  0358  2B5A               	goto	u10071
  5117  0359  2B5E               	goto	u10070
  5118                           	
  5119  035A                     u10071:
  5120  035A  1283               	bcf	status, 5	;RP0=0, select bank0
  5121  035B  1303               	bcf	status, 6	;RP1=0, select bank0
  5122  035C  1487               	bsf	(57/8),(57)&7
  5123  035D  2B61               	goto	u10084
  5124  035E                     u10070:
  5125  035E  1283               	bcf	status, 5	;RP0=0, select bank0
  5126  035F  1303               	bcf	status, 6	;RP1=0, select bank0
  5127  0360  1087               	bcf	(57/8),(57)&7
  5128  0361                     u10084:
  5129                           	line	306
  5130                           ;keyboard_and_mouse_in_a_glove.c: 306: }
  5131  0361  2B08               	goto	l7865
  5132                           	line	307
  5133                           	
  5134  0475                     l1023:	
  5135                           ;keyboard_and_mouse_in_a_glove.c: 307: else if( RD6!=0 ){
  5136  0475  1F08               	btfss	(70/8),(70)&7
  5137  0476  2C78               	goto	u10091
  5138  0477  2C79               	goto	u10090
  5139  0478                     u10091:
  5140  0478  2CF3               	goto	l1037
  5141  0479                     u10090:
  5142                           	line	308
  5143                           	
  5144  0479                     l7227:	
  5145                           ;keyboard_and_mouse_in_a_glove.c: 308: nop=1;
  5146  0479  1579               	bsf	(_nop/8),(_nop)&7
  5147                           	line	311
  5148                           	
  5149  047A                     l7229:	
  5150                           ;keyboard_and_mouse_in_a_glove.c: 311: _delay((unsigned long)((50)*(4000000/4000.0))); w
                                 hile(RC4!=0); _delay((unsigned long)((30)*(4000000/4000.0))); while(RC4!=0); _delay((uns
                                 igned long)((30)*(4000000/4000.0))); while(RC4!=0); _delay((unsigned long)((30)*(4000000
                                 /4000.0))); while(RC4!=0)
  5151                           	opt asmopt_off
  5152  047A  3041               movlw	65
  5153  047B  00B4               movwf	((??_main+0)+0+1),f
  5154  047C  30EE               	movlw	238
  5155  047D  00B3               movwf	((??_main+0)+0),f
  5156  047E                     u12037:
  5157  047E  0BB3               	decfsz	((??_main+0)+0),f
  5158  047F  2C7E               	goto	u12037
  5159  0480  0BB4               	decfsz	((??_main+0)+0+1),f
  5160  0481  2C7E               	goto	u12037
  5161  0482  0064               	clrwdt
  5162                           opt asmopt_on
  5163                           
  5164  0483  2C84               	goto	l1038
  5165                           	
  5166  0484                     l1039:	
  5167                           	
  5168  0484                     l1038:	
  5169  0484  1283               	bcf	status, 5	;RP0=0, select bank0
  5170  0485  1303               	bcf	status, 6	;RP1=0, select bank0
  5171  0486  1A07               	btfsc	(60/8),(60)&7
  5172  0487  2C89               	goto	u10101
  5173  0488  2C8A               	goto	u10100
  5174  0489                     u10101:
  5175  0489  2C84               	goto	l1038
  5176  048A                     u10100:
  5177  048A  2C8B               	goto	l7231
  5178                           	
  5179  048B                     l1040:	
  5180                           	
  5181  048B                     l7231:	
  5182                           	opt asmopt_off
  5183  048B  3027               movlw	39
  5184  048C  00B4               movwf	((??_main+0)+0+1),f
  5185  048D  30F5               	movlw	245
  5186  048E  00B3               movwf	((??_main+0)+0),f
  5187  048F                     u12047:
  5188  048F  0BB3               	decfsz	((??_main+0)+0),f
  5189  0490  2C8F               	goto	u12047
  5190  0491  0BB4               	decfsz	((??_main+0)+0+1),f
  5191  0492  2C8F               	goto	u12047
  5192                           opt asmopt_on
  5193                           
  5194  0493  2C94               	goto	l1041
  5195                           	
  5196  0494                     l1042:	
  5197                           	
  5198  0494                     l1041:	
  5199  0494  1283               	bcf	status, 5	;RP0=0, select bank0
  5200  0495  1303               	bcf	status, 6	;RP1=0, select bank0
  5201  0496  1A07               	btfsc	(60/8),(60)&7
  5202  0497  2C99               	goto	u10111
  5203  0498  2C9A               	goto	u10110
  5204  0499                     u10111:
  5205  0499  2C94               	goto	l1041
  5206  049A                     u10110:
  5207  049A  2C9B               	goto	l7233
  5208                           	
  5209  049B                     l1043:	
  5210                           	
  5211  049B                     l7233:	
  5212                           	opt asmopt_off
  5213  049B  3027               movlw	39
  5214  049C  00B4               movwf	((??_main+0)+0+1),f
  5215  049D  30F5               	movlw	245
  5216  049E  00B3               movwf	((??_main+0)+0),f
  5217  049F                     u12057:
  5218  049F  0BB3               	decfsz	((??_main+0)+0),f
  5219  04A0  2C9F               	goto	u12057
  5220  04A1  0BB4               	decfsz	((??_main+0)+0+1),f
  5221  04A2  2C9F               	goto	u12057
  5222                           opt asmopt_on
  5223                           
  5224  04A3  2CA4               	goto	l1044
  5225                           	
  5226  04A4                     l1045:	
  5227                           	
  5228  04A4                     l1044:	
  5229  04A4  1283               	bcf	status, 5	;RP0=0, select bank0
  5230  04A5  1303               	bcf	status, 6	;RP1=0, select bank0
  5231  04A6  1A07               	btfsc	(60/8),(60)&7
  5232  04A7  2CA9               	goto	u10121
  5233  04A8  2CAA               	goto	u10120
  5234  04A9                     u10121:
  5235  04A9  2CA4               	goto	l1044
  5236  04AA                     u10120:
  5237  04AA  2CAB               	goto	l7235
  5238                           	
  5239  04AB                     l1046:	
  5240                           	
  5241  04AB                     l7235:	
  5242                           	opt asmopt_off
  5243  04AB  3027               movlw	39
  5244  04AC  00B4               movwf	((??_main+0)+0+1),f
  5245  04AD  30F5               	movlw	245
  5246  04AE  00B3               movwf	((??_main+0)+0),f
  5247  04AF                     u12067:
  5248  04AF  0BB3               	decfsz	((??_main+0)+0),f
  5249  04B0  2CAF               	goto	u12067
  5250  04B1  0BB4               	decfsz	((??_main+0)+0+1),f
  5251  04B2  2CAF               	goto	u12067
  5252                           opt asmopt_on
  5253                           
  5254  04B3  2CB4               	goto	l1047
  5255                           	
  5256  04B4                     l1048:	
  5257                           	
  5258  04B4                     l1047:	
  5259  04B4  1283               	bcf	status, 5	;RP0=0, select bank0
  5260  04B5  1303               	bcf	status, 6	;RP1=0, select bank0
  5261  04B6  1A07               	btfsc	(60/8),(60)&7
  5262  04B7  2CB9               	goto	u10131
  5263  04B8  2CBA               	goto	u10130
  5264  04B9                     u10131:
  5265  04B9  2CB4               	goto	l1047
  5266  04BA                     u10130:
  5267  04BA  2CBB               	goto	l7237
  5268                           	
  5269  04BB                     l1049:	
  5270                           	line	314
  5271                           	
  5272  04BB                     l7237:	
  5273                           ;keyboard_and_mouse_in_a_glove.c: 314: if ( counter==0 ){ KeySend('0'); prevChar='0'; co
                                 unter = 10; }
  5274  04BB  0840               	movf	((_counter+1)),w
  5275  04BC  043F               	iorwf	((_counter)),w
  5276  04BD  1D03               	skipz
  5277  04BE  2CC0               	goto	u10141
  5278  04BF  2CC1               	goto	u10140
  5279  04C0                     u10141:
  5280  04C0  2CD2               	goto	l7245
  5281  04C1                     u10140:
  5282                           	
  5283  04C1                     l7239:	
  5284  04C1  3030               	movlw	(030h)
  5285  04C2  160A  118A  2008   	fcall	_KeySend
              120A  118A         
  5286                           	
  5287  04C7                     l7241:	
  5288  04C7  3030               	movlw	(030h)
  5289  04C8  1283               	bcf	status, 5	;RP0=0, select bank0
  5290  04C9  1303               	bcf	status, 6	;RP1=0, select bank0
  5291  04CA  00B3               	movwf	(??_main+0)+0
  5292  04CB  0833               	movf	(??_main+0)+0,w
  5293  04CC  00C1               	movwf	(_prevChar)
  5294                           	
  5295  04CD                     l7243:	
  5296  04CD  300A               	movlw	low(0Ah)
  5297  04CE  00BF               	movwf	(_counter)
  5298  04CF  3000               	movlw	high(0Ah)
  5299  04D0  00C0               	movwf	((_counter))+1
  5300  04D1  2CD7               	goto	l7865
  5301                           	line	315
  5302                           	
  5303  04D2                     l1050:	
  5304                           	
  5305  04D2                     l7245:	
  5306                           ;keyboard_and_mouse_in_a_glove.c: 315: else if( prevChar=='0' ){ KeySend('^'); KeySend('
                                  '); prevChar=' '; counter = 10; }
  5307  04D2  0841               	movf	(_prevChar),w
  5308  04D3  3A30               	xorlw	030h
  5309  04D4  1D03               	skipz
  5310  04D5  2CD7               	goto	u10151
  5311  04D6  2CDA               	goto	u10150
  5312  04D7                     u10151:
  5313  04D7  120A  158A  2FF8   	goto	l7865
  5314  04DA                     u10150:
  5315                           	
  5316  04DA                     l7247:	
  5317  04DA  305E               	movlw	(05Eh)
  5318  04DB  160A  118A  2008   	fcall	_KeySend
              120A  118A         
  5319  04E0  3020               	movlw	(020h)
  5320  04E1  160A  118A  2008   	fcall	_KeySend
              120A  118A         
  5321                           	
  5322  04E6                     l7249:	
  5323  04E6  3020               	movlw	(020h)
  5324  04E7  1283               	bcf	status, 5	;RP0=0, select bank0
  5325  04E8  1303               	bcf	status, 6	;RP1=0, select bank0
  5326  04E9  00B3               	movwf	(??_main+0)+0
  5327  04EA  0833               	movf	(??_main+0)+0,w
  5328  04EB  00C1               	movwf	(_prevChar)
  5329                           	
  5330  04EC                     l7251:	
  5331  04EC  300A               	movlw	low(0Ah)
  5332  04ED  00BF               	movwf	(_counter)
  5333  04EE  3000               	movlw	high(0Ah)
  5334  04EF  00C0               	movwf	((_counter))+1
  5335  04F0  2CD7               	goto	l7865
  5336                           	
  5337  04F1                     l1052:	
  5338  04F1  2CD7               	goto	l7865
  5339                           	line	316
  5340                           	
  5341  04F2                     l1051:	
  5342                           ;keyboard_and_mouse_in_a_glove.c: 316: }
  5343  04F2  2CD7               	goto	l7865
  5344                           	line	317
  5345                           	
  5346  04F3                     l1037:	
  5347                           ;keyboard_and_mouse_in_a_glove.c: 317: else if( RB5!=0 ){
  5348  04F3  1E86               	btfss	(53/8),(53)&7
  5349  04F4  2CF6               	goto	u10161
  5350  04F5  2CF7               	goto	u10160
  5351  04F6                     u10161:
  5352  04F6  2D50               	goto	l1054
  5353  04F7                     u10160:
  5354                           	line	319
  5355                           	
  5356  04F7                     l7253:	
  5357                           ;keyboard_and_mouse_in_a_glove.c: 319: _delay((unsigned long)((50)*(4000000/4000.0))); w
                                 hile(RC4!=0); _delay((unsigned long)((30)*(4000000/4000.0))); while(RC4!=0); _delay((uns
                                 igned long)((30)*(4000000/4000.0))); while(RC4!=0); _delay((unsigned long)((30)*(4000000
                                 /4000.0))); while(RC4!=0)
  5358                           	opt asmopt_off
  5359  04F7  3041               movlw	65
  5360  04F8  00B4               movwf	((??_main+0)+0+1),f
  5361  04F9  30EE               	movlw	238
  5362  04FA  00B3               movwf	((??_main+0)+0),f
  5363  04FB                     u12077:
  5364  04FB  0BB3               	decfsz	((??_main+0)+0),f
  5365  04FC  2CFB               	goto	u12077
  5366  04FD  0BB4               	decfsz	((??_main+0)+0+1),f
  5367  04FE  2CFB               	goto	u12077
  5368  04FF  0064               	clrwdt
  5369                           opt asmopt_on
  5370                           
  5371  0500  2D01               	goto	l1055
  5372                           	
  5373  0501                     l1056:	
  5374                           	
  5375  0501                     l1055:	
  5376  0501  1283               	bcf	status, 5	;RP0=0, select bank0
  5377  0502  1303               	bcf	status, 6	;RP1=0, select bank0
  5378  0503  1A07               	btfsc	(60/8),(60)&7
  5379  0504  2D06               	goto	u10171
  5380  0505  2D07               	goto	u10170
  5381  0506                     u10171:
  5382  0506  2D01               	goto	l1055
  5383  0507                     u10170:
  5384  0507  2D08               	goto	l7255
  5385                           	
  5386  0508                     l1057:	
  5387                           	
  5388  0508                     l7255:	
  5389                           	opt asmopt_off
  5390  0508  3027               movlw	39
  5391  0509  00B4               movwf	((??_main+0)+0+1),f
  5392  050A  30F5               	movlw	245
  5393  050B  00B3               movwf	((??_main+0)+0),f
  5394  050C                     u12087:
  5395  050C  0BB3               	decfsz	((??_main+0)+0),f
  5396  050D  2D0C               	goto	u12087
  5397  050E  0BB4               	decfsz	((??_main+0)+0+1),f
  5398  050F  2D0C               	goto	u12087
  5399                           opt asmopt_on
  5400                           
  5401  0510  2D11               	goto	l1058
  5402                           	
  5403  0511                     l1059:	
  5404                           	
  5405  0511                     l1058:	
  5406  0511  1283               	bcf	status, 5	;RP0=0, select bank0
  5407  0512  1303               	bcf	status, 6	;RP1=0, select bank0
  5408  0513  1A07               	btfsc	(60/8),(60)&7
  5409  0514  2D16               	goto	u10181
  5410  0515  2D17               	goto	u10180
  5411  0516                     u10181:
  5412  0516  2D11               	goto	l1058
  5413  0517                     u10180:
  5414  0517  2D18               	goto	l7257
  5415                           	
  5416  0518                     l1060:	
  5417                           	
  5418  0518                     l7257:	
  5419                           	opt asmopt_off
  5420  0518  3027               movlw	39
  5421  0519  00B4               movwf	((??_main+0)+0+1),f
  5422  051A  30F5               	movlw	245
  5423  051B  00B3               movwf	((??_main+0)+0),f
  5424  051C                     u12097:
  5425  051C  0BB3               	decfsz	((??_main+0)+0),f
  5426  051D  2D1C               	goto	u12097
  5427  051E  0BB4               	decfsz	((??_main+0)+0+1),f
  5428  051F  2D1C               	goto	u12097
  5429                           opt asmopt_on
  5430                           
  5431  0520  2D21               	goto	l1061
  5432                           	
  5433  0521                     l1062:	
  5434                           	
  5435  0521                     l1061:	
  5436  0521  1283               	bcf	status, 5	;RP0=0, select bank0
  5437  0522  1303               	bcf	status, 6	;RP1=0, select bank0
  5438  0523  1A07               	btfsc	(60/8),(60)&7
  5439  0524  2D26               	goto	u10191
  5440  0525  2D27               	goto	u10190
  5441  0526                     u10191:
  5442  0526  2D21               	goto	l1061
  5443  0527                     u10190:
  5444  0527  2D28               	goto	l7259
  5445                           	
  5446  0528                     l1063:	
  5447                           	
  5448  0528                     l7259:	
  5449                           	opt asmopt_off
  5450  0528  3027               movlw	39
  5451  0529  00B4               movwf	((??_main+0)+0+1),f
  5452  052A  30F5               	movlw	245
  5453  052B  00B3               movwf	((??_main+0)+0),f
  5454  052C                     u12107:
  5455  052C  0BB3               	decfsz	((??_main+0)+0),f
  5456  052D  2D2C               	goto	u12107
  5457  052E  0BB4               	decfsz	((??_main+0)+0+1),f
  5458  052F  2D2C               	goto	u12107
  5459                           opt asmopt_on
  5460                           
  5461  0530  2D31               	goto	l1064
  5462                           	
  5463  0531                     l1065:	
  5464                           	
  5465  0531                     l1064:	
  5466  0531  1283               	bcf	status, 5	;RP0=0, select bank0
  5467  0532  1303               	bcf	status, 6	;RP1=0, select bank0
  5468  0533  1A07               	btfsc	(60/8),(60)&7
  5469  0534  2D36               	goto	u10201
  5470  0535  2D37               	goto	u10200
  5471  0536                     u10201:
  5472  0536  2D31               	goto	l1064
  5473  0537                     u10200:
  5474  0537  2D38               	goto	l7261
  5475                           	
  5476  0538                     l1066:	
  5477                           	line	322
  5478                           	
  5479  0538                     l7261:	
  5480                           ;keyboard_and_mouse_in_a_glove.c: 322: if ( counter==0 ){ KeySend('^'); prevChar='^'; co
                                 unter = 10; }
  5481  0538  0840               	movf	((_counter+1)),w
  5482  0539  043F               	iorwf	((_counter)),w
  5483  053A  1D03               	skipz
  5484  053B  2D3D               	goto	u10211
  5485  053C  2D3E               	goto	u10210
  5486  053D                     u10211:
  5487  053D  2CD7               	goto	l7865
  5488  053E                     u10210:
  5489                           	
  5490  053E                     l7263:	
  5491  053E  305E               	movlw	(05Eh)
  5492  053F  160A  118A  2008   	fcall	_KeySend
              120A  118A         
  5493                           	
  5494  0544                     l7265:	
  5495  0544  305E               	movlw	(05Eh)
  5496  0545  1283               	bcf	status, 5	;RP0=0, select bank0
  5497  0546  1303               	bcf	status, 6	;RP1=0, select bank0
  5498  0547  00B3               	movwf	(??_main+0)+0
  5499  0548  0833               	movf	(??_main+0)+0,w
  5500  0549  00C1               	movwf	(_prevChar)
  5501                           	
  5502  054A                     l7267:	
  5503  054A  300A               	movlw	low(0Ah)
  5504  054B  00BF               	movwf	(_counter)
  5505  054C  3000               	movlw	high(0Ah)
  5506  054D  00C0               	movwf	((_counter))+1
  5507  054E  2CD7               	goto	l7865
  5508                           	
  5509  054F                     l1067:	
  5510                           	line	323
  5511                           ;keyboard_and_mouse_in_a_glove.c: 323: }
  5512  054F  2CD7               	goto	l7865
  5513                           	line	324
  5514                           	
  5515  0550                     l1054:	
  5516                           ;keyboard_and_mouse_in_a_glove.c: 324: else if( RC3!=0 ){
  5517  0550  1D87               	btfss	(59/8),(59)&7
  5518  0551  2D53               	goto	u10221
  5519  0552  2D54               	goto	u10220
  5520  0553                     u10221:
  5521  0553  2CD7               	goto	l7865
  5522  0554                     u10220:
  5523                           	line	327
  5524                           	
  5525  0554                     l7269:	
  5526                           ;keyboard_and_mouse_in_a_glove.c: 327: _delay((unsigned long)((50)*(4000000/4000.0))); w
                                 hile(RC4!=0); _delay((unsigned long)((30)*(4000000/4000.0))); while(RC4!=0); _delay((uns
                                 igned long)((30)*(4000000/4000.0))); while(RC4!=0); _delay((unsigned long)((30)*(4000000
                                 /4000.0))); while(RC4!=0)
  5527                           	opt asmopt_off
  5528  0554  3041               movlw	65
  5529  0555  00B4               movwf	((??_main+0)+0+1),f
  5530  0556  30EE               	movlw	238
  5531  0557  00B3               movwf	((??_main+0)+0),f
  5532  0558                     u12117:
  5533  0558  0BB3               	decfsz	((??_main+0)+0),f
  5534  0559  2D58               	goto	u12117
  5535  055A  0BB4               	decfsz	((??_main+0)+0+1),f
  5536  055B  2D58               	goto	u12117
  5537  055C  0064               	clrwdt
  5538                           opt asmopt_on
  5539                           
  5540  055D  2D5E               	goto	l1070
  5541                           	
  5542  055E                     l1071:	
  5543                           	
  5544  055E                     l1070:	
  5545  055E  1283               	bcf	status, 5	;RP0=0, select bank0
  5546  055F  1303               	bcf	status, 6	;RP1=0, select bank0
  5547  0560  1A07               	btfsc	(60/8),(60)&7
  5548  0561  2D63               	goto	u10231
  5549  0562  2D64               	goto	u10230
  5550  0563                     u10231:
  5551  0563  2D5E               	goto	l1070
  5552  0564                     u10230:
  5553  0564  2D65               	goto	l7271
  5554                           	
  5555  0565                     l1072:	
  5556                           	
  5557  0565                     l7271:	
  5558                           	opt asmopt_off
  5559  0565  3027               movlw	39
  5560  0566  00B4               movwf	((??_main+0)+0+1),f
  5561  0567  30F5               	movlw	245
  5562  0568  00B3               movwf	((??_main+0)+0),f
  5563  0569                     u12127:
  5564  0569  0BB3               	decfsz	((??_main+0)+0),f
  5565  056A  2D69               	goto	u12127
  5566  056B  0BB4               	decfsz	((??_main+0)+0+1),f
  5567  056C  2D69               	goto	u12127
  5568                           opt asmopt_on
  5569                           
  5570  056D  2D6E               	goto	l1073
  5571                           	
  5572  056E                     l1074:	
  5573                           	
  5574  056E                     l1073:	
  5575  056E  1283               	bcf	status, 5	;RP0=0, select bank0
  5576  056F  1303               	bcf	status, 6	;RP1=0, select bank0
  5577  0570  1A07               	btfsc	(60/8),(60)&7
  5578  0571  2D73               	goto	u10241
  5579  0572  2D74               	goto	u10240
  5580  0573                     u10241:
  5581  0573  2D6E               	goto	l1073
  5582  0574                     u10240:
  5583  0574  2D75               	goto	l7273
  5584                           	
  5585  0575                     l1075:	
  5586                           	
  5587  0575                     l7273:	
  5588                           	opt asmopt_off
  5589  0575  3027               movlw	39
  5590  0576  00B4               movwf	((??_main+0)+0+1),f
  5591  0577  30F5               	movlw	245
  5592  0578  00B3               movwf	((??_main+0)+0),f
  5593  0579                     u12137:
  5594  0579  0BB3               	decfsz	((??_main+0)+0),f
  5595  057A  2D79               	goto	u12137
  5596  057B  0BB4               	decfsz	((??_main+0)+0+1),f
  5597  057C  2D79               	goto	u12137
  5598                           opt asmopt_on
  5599                           
  5600  057D  2D7E               	goto	l1076
  5601                           	
  5602  057E                     l1077:	
  5603                           	
  5604  057E                     l1076:	
  5605  057E  1283               	bcf	status, 5	;RP0=0, select bank0
  5606  057F  1303               	bcf	status, 6	;RP1=0, select bank0
  5607  0580  1A07               	btfsc	(60/8),(60)&7
  5608  0581  2D83               	goto	u10251
  5609  0582  2D84               	goto	u10250
  5610  0583                     u10251:
  5611  0583  2D7E               	goto	l1076
  5612  0584                     u10250:
  5613  0584  120A  118A  2815   	goto	l7275
  5614                           	
  5615  0015                     l1078:	
  5616                           	
  5617  0015                     l7275:	
  5618                           	opt asmopt_off
  5619  0015  3027               movlw	39
  5620  0016  00B4               movwf	((??_main+0)+0+1),f
  5621  0017  30F5               	movlw	245
  5622  0018  00B3               movwf	((??_main+0)+0),f
  5623  0019                     u12147:
  5624  0019  0BB3               	decfsz	((??_main+0)+0),f
  5625  001A  2819               	goto	u12147
  5626  001B  0BB4               	decfsz	((??_main+0)+0+1),f
  5627  001C  2819               	goto	u12147
  5628                           opt asmopt_on
  5629                           
  5630  001D  281E               	goto	l1079
  5631                           	
  5632  001E                     l1080:	
  5633                           	
  5634  001E                     l1079:	
  5635  001E  1283               	bcf	status, 5	;RP0=0, select bank0
  5636  001F  1303               	bcf	status, 6	;RP1=0, select bank0
  5637  0020  1A07               	btfsc	(60/8),(60)&7
  5638  0021  2823               	goto	u10261
  5639  0022  2824               	goto	u10260
  5640  0023                     u10261:
  5641  0023  281E               	goto	l1079
  5642  0024                     u10260:
  5643  0024  2825               	goto	l7277
  5644                           	
  5645  0025                     l1081:	
  5646                           	line	330
  5647                           	
  5648  0025                     l7277:	
  5649                           ;keyboard_and_mouse_in_a_glove.c: 330: CAPSLOCK = !CAPSLOCK ;
  5650  0025  3001               	movlw	1<<((_CAPSLOCK)&7)
  5651  0026  06F9               	xorwf	((_CAPSLOCK)/8),f
  5652                           	line	331
  5653                           	
  5654  0027                     l7279:	
  5655                           ;keyboard_and_mouse_in_a_glove.c: 331: RC2 = CAPSLOCK;
  5656  0027  1879               	btfsc	(_CAPSLOCK/8),(_CAPSLOCK)&7
  5657  0028  282A               	goto	u10271
  5658  0029  282E               	goto	u10270
  5659                           	
  5660  002A                     u10271:
  5661  002A  1283               	bcf	status, 5	;RP0=0, select bank0
  5662  002B  1303               	bcf	status, 6	;RP1=0, select bank0
  5663  002C  1507               	bsf	(58/8),(58)&7
  5664  002D  2831               	goto	u10284
  5665  002E                     u10270:
  5666  002E  1283               	bcf	status, 5	;RP0=0, select bank0
  5667  002F  1303               	bcf	status, 6	;RP1=0, select bank0
  5668  0030  1107               	bcf	(58/8),(58)&7
  5669  0031                     u10284:
  5670  0031  120A  158A  2FF8   	goto	l7865
  5671                           	line	332
  5672                           	
  5673  0034                     l1069:	
  5674  0034  2831               	goto	l7865
  5675                           	line	333
  5676                           	
  5677  0035                     l1068:	
  5678  0035  2831               	goto	l7865
  5679                           	
  5680  0036                     l1053:	
  5681  0036  2831               	goto	l7865
  5682                           	
  5683  0037                     l1036:	
  5684  0037  2831               	goto	l7865
  5685                           	
  5686  0038                     l1022:	
  5687  0038  2831               	goto	l7865
  5688                           	
  5689  0039                     l996:	
  5690  0039  2831               	goto	l7865
  5691                           	
  5692  003A                     l972:	
  5693  003A  2831               	goto	l7865
  5694                           	
  5695  003B                     l946:	
  5696  003B  2831               	goto	l7865
  5697                           	
  5698  003C                     l922:	
  5699  003C  2831               	goto	l7865
  5700                           	
  5701  003D                     l898:	
  5702  003D  2831               	goto	l7865
  5703                           	
  5704  003E                     l874:	
  5705  003E  2831               	goto	l7865
  5706                           	
  5707  003F                     l850:	
  5708  003F  2831               	goto	l7865
  5709                           	
  5710  0040                     l826:	
  5711                           ;keyboard_and_mouse_in_a_glove.c: 332: }
  5712                           ;keyboard_and_mouse_in_a_glove.c: 333: }
  5713  0040  2831               	goto	l7865
  5714                           	line	334
  5715                           	
  5716  0041                     l801:	
  5717                           	line	336
  5718                           ;keyboard_and_mouse_in_a_glove.c: 334: else{
  5719                           ;keyboard_and_mouse_in_a_glove.c: 336: RC2 = 0;
  5720  0041  1107               	bcf	(58/8),(58)&7
  5721                           	line	337
  5722                           ;keyboard_and_mouse_in_a_glove.c: 337: if( RC4!=0 ){
  5723  0042  1E07               	btfss	(60/8),(60)&7
  5724  0043  2845               	goto	u10291
  5725  0044  2848               	goto	u10290
  5726  0045                     u10291:
  5727  0045  120A  118A  2B62   	goto	l1083
  5728  0048                     u10290:
  5729                           	line	338
  5730                           	
  5731  0048                     l7281:	
  5732                           ;keyboard_and_mouse_in_a_glove.c: 338: nop=1;
  5733  0048  1579               	bsf	(_nop/8),(_nop)&7
  5734                           	line	341
  5735                           	
  5736  0049                     l7283:	
  5737                           ;keyboard_and_mouse_in_a_glove.c: 341: _delay((unsigned long)((50)*(4000000/4000.0))); w
                                 hile(RC4!=0); _delay((unsigned long)((30)*(4000000/4000.0))); while(RC4!=0); _delay((uns
                                 igned long)((30)*(4000000/4000.0))); while(RC4!=0); _delay((unsigned long)((30)*(4000000
                                 /4000.0))); while(RC4!=0)
  5738                           	opt asmopt_off
  5739  0049  3041               movlw	65
  5740  004A  00B4               movwf	((??_main+0)+0+1),f
  5741  004B  30EE               	movlw	238
  5742  004C  00B3               movwf	((??_main+0)+0),f
  5743  004D                     u12157:
  5744  004D  0BB3               	decfsz	((??_main+0)+0),f
  5745  004E  284D               	goto	u12157
  5746  004F  0BB4               	decfsz	((??_main+0)+0+1),f
  5747  0050  284D               	goto	u12157
  5748  0051  0064               	clrwdt
  5749                           opt asmopt_on
  5750                           
  5751  0052  2853               	goto	l1084
  5752                           	
  5753  0053                     l1085:	
  5754                           	
  5755  0053                     l1084:	
  5756  0053  1283               	bcf	status, 5	;RP0=0, select bank0
  5757  0054  1303               	bcf	status, 6	;RP1=0, select bank0
  5758  0055  1A07               	btfsc	(60/8),(60)&7
  5759  0056  2858               	goto	u10301
  5760  0057  2859               	goto	u10300
  5761  0058                     u10301:
  5762  0058  2853               	goto	l1084
  5763  0059                     u10300:
  5764  0059  285A               	goto	l7285
  5765                           	
  5766  005A                     l1086:	
  5767                           	
  5768  005A                     l7285:	
  5769                           	opt asmopt_off
  5770  005A  3027               movlw	39
  5771  005B  00B4               movwf	((??_main+0)+0+1),f
  5772  005C  30F5               	movlw	245
  5773  005D  00B3               movwf	((??_main+0)+0),f
  5774  005E                     u12167:
  5775  005E  0BB3               	decfsz	((??_main+0)+0),f
  5776  005F  285E               	goto	u12167
  5777  0060  0BB4               	decfsz	((??_main+0)+0+1),f
  5778  0061  285E               	goto	u12167
  5779                           opt asmopt_on
  5780                           
  5781  0062  2863               	goto	l1087
  5782                           	
  5783  0063                     l1088:	
  5784                           	
  5785  0063                     l1087:	
  5786  0063  1283               	bcf	status, 5	;RP0=0, select bank0
  5787  0064  1303               	bcf	status, 6	;RP1=0, select bank0
  5788  0065  1A07               	btfsc	(60/8),(60)&7
  5789  0066  2868               	goto	u10311
  5790  0067  2869               	goto	u10310
  5791  0068                     u10311:
  5792  0068  2863               	goto	l1087
  5793  0069                     u10310:
  5794  0069  286A               	goto	l7287
  5795                           	
  5796  006A                     l1089:	
  5797                           	
  5798  006A                     l7287:	
  5799                           	opt asmopt_off
  5800  006A  3027               movlw	39
  5801  006B  00B4               movwf	((??_main+0)+0+1),f
  5802  006C  30F5               	movlw	245
  5803  006D  00B3               movwf	((??_main+0)+0),f
  5804  006E                     u12177:
  5805  006E  0BB3               	decfsz	((??_main+0)+0),f
  5806  006F  286E               	goto	u12177
  5807  0070  0BB4               	decfsz	((??_main+0)+0+1),f
  5808  0071  286E               	goto	u12177
  5809                           opt asmopt_on
  5810                           
  5811  0072  2873               	goto	l1090
  5812                           	
  5813  0073                     l1091:	
  5814                           	
  5815  0073                     l1090:	
  5816  0073  1283               	bcf	status, 5	;RP0=0, select bank0
  5817  0074  1303               	bcf	status, 6	;RP1=0, select bank0
  5818  0075  1A07               	btfsc	(60/8),(60)&7
  5819  0076  2878               	goto	u10321
  5820  0077  2879               	goto	u10320
  5821  0078                     u10321:
  5822  0078  2873               	goto	l1090
  5823  0079                     u10320:
  5824  0079  287A               	goto	l7289
  5825                           	
  5826  007A                     l1092:	
  5827                           	
  5828  007A                     l7289:	
  5829                           	opt asmopt_off
  5830  007A  3027               movlw	39
  5831  007B  00B4               movwf	((??_main+0)+0+1),f
  5832  007C  30F5               	movlw	245
  5833  007D  00B3               movwf	((??_main+0)+0),f
  5834  007E                     u12187:
  5835  007E  0BB3               	decfsz	((??_main+0)+0),f
  5836  007F  287E               	goto	u12187
  5837  0080  0BB4               	decfsz	((??_main+0)+0+1),f
  5838  0081  287E               	goto	u12187
  5839                           opt asmopt_on
  5840                           
  5841  0082  2883               	goto	l1093
  5842                           	
  5843  0083                     l1094:	
  5844                           	
  5845  0083                     l1093:	
  5846  0083  1283               	bcf	status, 5	;RP0=0, select bank0
  5847  0084  1303               	bcf	status, 6	;RP1=0, select bank0
  5848  0085  1A07               	btfsc	(60/8),(60)&7
  5849  0086  2888               	goto	u10331
  5850  0087  2889               	goto	u10330
  5851  0088                     u10331:
  5852  0088  2883               	goto	l1093
  5853  0089                     u10330:
  5854  0089  288A               	goto	l7291
  5855                           	
  5856  008A                     l1095:	
  5857                           	line	344
  5858                           	
  5859  008A                     l7291:	
  5860                           ;keyboard_and_mouse_in_a_glove.c: 344: if ( counter==0 ){ KeySend('1'); prevChar='1'; co
                                 unter = 10; }
  5861  008A  0840               	movf	((_counter+1)),w
  5862  008B  043F               	iorwf	((_counter)),w
  5863  008C  1D03               	skipz
  5864  008D  288F               	goto	u10341
  5865  008E  2890               	goto	u10340
  5866  008F                     u10341:
  5867  008F  28A1               	goto	l7299
  5868  0090                     u10340:
  5869                           	
  5870  0090                     l7293:	
  5871  0090  3031               	movlw	(031h)
  5872  0091  160A  118A  2008   	fcall	_KeySend
              120A  118A         
  5873                           	
  5874  0096                     l7295:	
  5875  0096  3031               	movlw	(031h)
  5876  0097  1283               	bcf	status, 5	;RP0=0, select bank0
  5877  0098  1303               	bcf	status, 6	;RP1=0, select bank0
  5878  0099  00B3               	movwf	(??_main+0)+0
  5879  009A  0833               	movf	(??_main+0)+0,w
  5880  009B  00C1               	movwf	(_prevChar)
  5881                           	
  5882  009C                     l7297:	
  5883  009C  300A               	movlw	low(0Ah)
  5884  009D  00BF               	movwf	(_counter)
  5885  009E  3000               	movlw	high(0Ah)
  5886  009F  00C0               	movwf	((_counter))+1
  5887  00A0  2831               	goto	l7865
  5888                           	line	345
  5889                           	
  5890  00A1                     l1096:	
  5891                           	
  5892  00A1                     l7299:	
  5893                           ;keyboard_and_mouse_in_a_glove.c: 345: else if( prevChar=='1' ){ KeySend('^'); KeySend('
                                 .'); prevChar='.'; counter = 10; }
  5894  00A1  0841               	movf	(_prevChar),w
  5895  00A2  3A31               	xorlw	031h
  5896  00A3  1D03               	skipz
  5897  00A4  28A6               	goto	u10351
  5898  00A5  28A7               	goto	u10350
  5899  00A6                     u10351:
  5900  00A6  28BE               	goto	l7307
  5901  00A7                     u10350:
  5902                           	
  5903  00A7                     l7301:	
  5904  00A7  305E               	movlw	(05Eh)
  5905  00A8  160A  118A  2008   	fcall	_KeySend
              120A  118A         
  5906  00AD  302E               	movlw	(02Eh)
  5907  00AE  160A  118A  2008   	fcall	_KeySend
              120A  118A         
  5908                           	
  5909  00B3                     l7303:	
  5910  00B3  302E               	movlw	(02Eh)
  5911  00B4  1283               	bcf	status, 5	;RP0=0, select bank0
  5912  00B5  1303               	bcf	status, 6	;RP1=0, select bank0
  5913  00B6  00B3               	movwf	(??_main+0)+0
  5914  00B7  0833               	movf	(??_main+0)+0,w
  5915  00B8  00C1               	movwf	(_prevChar)
  5916                           	
  5917  00B9                     l7305:	
  5918  00B9  300A               	movlw	low(0Ah)
  5919  00BA  00BF               	movwf	(_counter)
  5920  00BB  3000               	movlw	high(0Ah)
  5921  00BC  00C0               	movwf	((_counter))+1
  5922  00BD  2831               	goto	l7865
  5923                           	line	346
  5924                           	
  5925  00BE                     l1098:	
  5926                           	
  5927  00BE                     l7307:	
  5928                           ;keyboard_and_mouse_in_a_glove.c: 346: else if( prevChar=='.' ){ KeySend('^'); KeySend('
                                 ,'); prevChar=','; counter = 10; }
  5929  00BE  0841               	movf	(_prevChar),w
  5930  00BF  3A2E               	xorlw	02Eh
  5931  00C0  1D03               	skipz
  5932  00C1  28C3               	goto	u10361
  5933  00C2  28C4               	goto	u10360
  5934  00C3                     u10361:
  5935  00C3  28DB               	goto	l7315
  5936  00C4                     u10360:
  5937                           	
  5938  00C4                     l7309:	
  5939  00C4  305E               	movlw	(05Eh)
  5940  00C5  160A  118A  2008   	fcall	_KeySend
              120A  118A         
  5941  00CA  302C               	movlw	(02Ch)
  5942  00CB  160A  118A  2008   	fcall	_KeySend
              120A  118A         
  5943                           	
  5944  00D0                     l7311:	
  5945  00D0  302C               	movlw	(02Ch)
  5946  00D1  1283               	bcf	status, 5	;RP0=0, select bank0
  5947  00D2  1303               	bcf	status, 6	;RP1=0, select bank0
  5948  00D3  00B3               	movwf	(??_main+0)+0
  5949  00D4  0833               	movf	(??_main+0)+0,w
  5950  00D5  00C1               	movwf	(_prevChar)
  5951                           	
  5952  00D6                     l7313:	
  5953  00D6  300A               	movlw	low(0Ah)
  5954  00D7  00BF               	movwf	(_counter)
  5955  00D8  3000               	movlw	high(0Ah)
  5956  00D9  00C0               	movwf	((_counter))+1
  5957  00DA  2831               	goto	l7865
  5958                           	line	347
  5959                           	
  5960  00DB                     l1100:	
  5961                           	
  5962  00DB                     l7315:	
  5963                           ;keyboard_and_mouse_in_a_glove.c: 347: else if( prevChar==',' ){ KeySend('^'); KeySend('
                                 ('); prevChar='('; counter = 10; }
  5964  00DB  0841               	movf	(_prevChar),w
  5965  00DC  3A2C               	xorlw	02Ch
  5966  00DD  1D03               	skipz
  5967  00DE  28E0               	goto	u10371
  5968  00DF  28E1               	goto	u10370
  5969  00E0                     u10371:
  5970  00E0  28F8               	goto	l7323
  5971  00E1                     u10370:
  5972                           	
  5973  00E1                     l7317:	
  5974  00E1  305E               	movlw	(05Eh)
  5975  00E2  160A  118A  2008   	fcall	_KeySend
              120A  118A         
  5976  00E7  3028               	movlw	(028h)
  5977  00E8  160A  118A  2008   	fcall	_KeySend
              120A  118A         
  5978                           	
  5979  00ED                     l7319:	
  5980  00ED  3028               	movlw	(028h)
  5981  00EE  1283               	bcf	status, 5	;RP0=0, select bank0
  5982  00EF  1303               	bcf	status, 6	;RP1=0, select bank0
  5983  00F0  00B3               	movwf	(??_main+0)+0
  5984  00F1  0833               	movf	(??_main+0)+0,w
  5985  00F2  00C1               	movwf	(_prevChar)
  5986                           	
  5987  00F3                     l7321:	
  5988  00F3  300A               	movlw	low(0Ah)
  5989  00F4  00BF               	movwf	(_counter)
  5990  00F5  3000               	movlw	high(0Ah)
  5991  00F6  00C0               	movwf	((_counter))+1
  5992  00F7  2831               	goto	l7865
  5993                           	line	348
  5994                           	
  5995  00F8                     l1102:	
  5996                           	
  5997  00F8                     l7323:	
  5998                           ;keyboard_and_mouse_in_a_glove.c: 348: else if( prevChar=='(' ){ KeySend('^'); KeySend('
                                 )'); prevChar=')'; counter = 10; }
  5999  00F8  0841               	movf	(_prevChar),w
  6000  00F9  3A28               	xorlw	028h
  6001  00FA  1D03               	skipz
  6002  00FB  28FD               	goto	u10381
  6003  00FC  28FE               	goto	u10380
  6004  00FD                     u10381:
  6005  00FD  2915               	goto	l7331
  6006  00FE                     u10380:
  6007                           	
  6008  00FE                     l7325:	
  6009  00FE  305E               	movlw	(05Eh)
  6010  00FF  160A  118A  2008   	fcall	_KeySend
              120A  118A         
  6011  0104  3029               	movlw	(029h)
  6012  0105  160A  118A  2008   	fcall	_KeySend
              120A  118A         
  6013                           	
  6014  010A                     l7327:	
  6015  010A  3029               	movlw	(029h)
  6016  010B  1283               	bcf	status, 5	;RP0=0, select bank0
  6017  010C  1303               	bcf	status, 6	;RP1=0, select bank0
  6018  010D  00B3               	movwf	(??_main+0)+0
  6019  010E  0833               	movf	(??_main+0)+0,w
  6020  010F  00C1               	movwf	(_prevChar)
  6021                           	
  6022  0110                     l7329:	
  6023  0110  300A               	movlw	low(0Ah)
  6024  0111  00BF               	movwf	(_counter)
  6025  0112  3000               	movlw	high(0Ah)
  6026  0113  00C0               	movwf	((_counter))+1
  6027  0114  2831               	goto	l7865
  6028                           	line	349
  6029                           	
  6030  0115                     l1104:	
  6031                           	
  6032  0115                     l7331:	
  6033                           ;keyboard_and_mouse_in_a_glove.c: 349: else if( prevChar==')' ){ KeySend('^'); KeySend('
                                 1'); prevChar='1'; counter = 10; }
  6034  0115  0841               	movf	(_prevChar),w
  6035  0116  3A29               	xorlw	029h
  6036  0117  1D03               	skipz
  6037  0118  291A               	goto	u10391
  6038  0119  291B               	goto	u10390
  6039  011A                     u10391:
  6040  011A  2831               	goto	l7865
  6041  011B                     u10390:
  6042                           	
  6043  011B                     l7333:	
  6044  011B  305E               	movlw	(05Eh)
  6045  011C  160A  118A  2008   	fcall	_KeySend
              120A  118A         
  6046  0121  3031               	movlw	(031h)
  6047  0122  160A  118A  2008   	fcall	_KeySend
              120A  118A         
  6048                           	
  6049  0127                     l7335:	
  6050  0127  3031               	movlw	(031h)
  6051  0128  1283               	bcf	status, 5	;RP0=0, select bank0
  6052  0129  1303               	bcf	status, 6	;RP1=0, select bank0
  6053  012A  00B3               	movwf	(??_main+0)+0
  6054  012B  0833               	movf	(??_main+0)+0,w
  6055  012C  00C1               	movwf	(_prevChar)
  6056                           	
  6057  012D                     l7337:	
  6058  012D  300A               	movlw	low(0Ah)
  6059  012E  00BF               	movwf	(_counter)
  6060  012F  3000               	movlw	high(0Ah)
  6061  0130  00C0               	movwf	((_counter))+1
  6062  0131  2831               	goto	l7865
  6063                           	
  6064  0132                     l1106:	
  6065  0132  2831               	goto	l7865
  6066                           	line	351
  6067                           	
  6068  0133                     l1105:	
  6069  0133  2831               	goto	l7865
  6070                           	
  6071  0134                     l1103:	
  6072  0134  2831               	goto	l7865
  6073                           	
  6074  0135                     l1101:	
  6075  0135  2831               	goto	l7865
  6076                           	
  6077  0136                     l1099:	
  6078  0136  2831               	goto	l7865
  6079                           	
  6080  0137                     l1097:	
  6081                           ;keyboard_and_mouse_in_a_glove.c: 351: }
  6082  0137  2831               	goto	l7865
  6083                           	line	352
  6084                           	
  6085  0362                     l1083:	
  6086                           ;keyboard_and_mouse_in_a_glove.c: 352: else if( RD3!=0 ){
  6087  0362  1D88               	btfss	(67/8),(67)&7
  6088  0363  2B65               	goto	u10401
  6089  0364  2B66               	goto	u10400
  6090  0365                     u10401:
  6091  0365  2C4B               	goto	l1108
  6092  0366                     u10400:
  6093                           	line	353
  6094                           	
  6095  0366                     l7339:	
  6096                           ;keyboard_and_mouse_in_a_glove.c: 353: nop=1;
  6097  0366  1579               	bsf	(_nop/8),(_nop)&7
  6098                           	line	356
  6099                           	
  6100  0367                     l7341:	
  6101                           ;keyboard_and_mouse_in_a_glove.c: 356: _delay((unsigned long)((50)*(4000000/4000.0))); w
                                 hile(RC4!=0); _delay((unsigned long)((30)*(4000000/4000.0))); while(RC4!=0); _delay((uns
                                 igned long)((30)*(4000000/4000.0))); while(RC4!=0); _delay((unsigned long)((30)*(4000000
                                 /4000.0))); while(RC4!=0)
  6102                           	opt asmopt_off
  6103  0367  3041               movlw	65
  6104  0368  00B4               movwf	((??_main+0)+0+1),f
  6105  0369  30EE               	movlw	238
  6106  036A  00B3               movwf	((??_main+0)+0),f
  6107  036B                     u12197:
  6108  036B  0BB3               	decfsz	((??_main+0)+0),f
  6109  036C  2B6B               	goto	u12197
  6110  036D  0BB4               	decfsz	((??_main+0)+0+1),f
  6111  036E  2B6B               	goto	u12197
  6112  036F  0064               	clrwdt
  6113                           opt asmopt_on
  6114                           
  6115  0370  2B71               	goto	l1109
  6116                           	
  6117  0371                     l1110:	
  6118                           	
  6119  0371                     l1109:	
  6120  0371  1283               	bcf	status, 5	;RP0=0, select bank0
  6121  0372  1303               	bcf	status, 6	;RP1=0, select bank0
  6122  0373  1A07               	btfsc	(60/8),(60)&7
  6123  0374  2B76               	goto	u10411
  6124  0375  2B77               	goto	u10410
  6125  0376                     u10411:
  6126  0376  2B71               	goto	l1109
  6127  0377                     u10410:
  6128  0377  2B78               	goto	l7343
  6129                           	
  6130  0378                     l1111:	
  6131                           	
  6132  0378                     l7343:	
  6133                           	opt asmopt_off
  6134  0378  3027               movlw	39
  6135  0379  00B4               movwf	((??_main+0)+0+1),f
  6136  037A  30F5               	movlw	245
  6137  037B  00B3               movwf	((??_main+0)+0),f
  6138  037C                     u12207:
  6139  037C  0BB3               	decfsz	((??_main+0)+0),f
  6140  037D  2B7C               	goto	u12207
  6141  037E  0BB4               	decfsz	((??_main+0)+0+1),f
  6142  037F  2B7C               	goto	u12207
  6143                           opt asmopt_on
  6144                           
  6145  0380  2B81               	goto	l1112
  6146                           	
  6147  0381                     l1113:	
  6148                           	
  6149  0381                     l1112:	
  6150  0381  1283               	bcf	status, 5	;RP0=0, select bank0
  6151  0382  1303               	bcf	status, 6	;RP1=0, select bank0
  6152  0383  1A07               	btfsc	(60/8),(60)&7
  6153  0384  2B86               	goto	u10421
  6154  0385  2B87               	goto	u10420
  6155  0386                     u10421:
  6156  0386  2B81               	goto	l1112
  6157  0387                     u10420:
  6158  0387  2B88               	goto	l7345
  6159                           	
  6160  0388                     l1114:	
  6161                           	
  6162  0388                     l7345:	
  6163                           	opt asmopt_off
  6164  0388  3027               movlw	39
  6165  0389  00B4               movwf	((??_main+0)+0+1),f
  6166  038A  30F5               	movlw	245
  6167  038B  00B3               movwf	((??_main+0)+0),f
  6168  038C                     u12217:
  6169  038C  0BB3               	decfsz	((??_main+0)+0),f
  6170  038D  2B8C               	goto	u12217
  6171  038E  0BB4               	decfsz	((??_main+0)+0+1),f
  6172  038F  2B8C               	goto	u12217
  6173                           opt asmopt_on
  6174                           
  6175  0390  2B91               	goto	l1115
  6176                           	
  6177  0391                     l1116:	
  6178                           	
  6179  0391                     l1115:	
  6180  0391  1283               	bcf	status, 5	;RP0=0, select bank0
  6181  0392  1303               	bcf	status, 6	;RP1=0, select bank0
  6182  0393  1A07               	btfsc	(60/8),(60)&7
  6183  0394  2B96               	goto	u10431
  6184  0395  2B97               	goto	u10430
  6185  0396                     u10431:
  6186  0396  2B91               	goto	l1115
  6187  0397                     u10430:
  6188  0397  2B98               	goto	l7347
  6189                           	
  6190  0398                     l1117:	
  6191                           	
  6192  0398                     l7347:	
  6193                           	opt asmopt_off
  6194  0398  3027               movlw	39
  6195  0399  00B4               movwf	((??_main+0)+0+1),f
  6196  039A  30F5               	movlw	245
  6197  039B  00B3               movwf	((??_main+0)+0),f
  6198  039C                     u12227:
  6199  039C  0BB3               	decfsz	((??_main+0)+0),f
  6200  039D  2B9C               	goto	u12227
  6201  039E  0BB4               	decfsz	((??_main+0)+0+1),f
  6202  039F  2B9C               	goto	u12227
  6203                           opt asmopt_on
  6204                           
  6205  03A0  2BA1               	goto	l1118
  6206                           	
  6207  03A1                     l1119:	
  6208                           	
  6209  03A1                     l1118:	
  6210  03A1  1283               	bcf	status, 5	;RP0=0, select bank0
  6211  03A2  1303               	bcf	status, 6	;RP1=0, select bank0
  6212  03A3  1A07               	btfsc	(60/8),(60)&7
  6213  03A4  2BA6               	goto	u10441
  6214  03A5  2BA7               	goto	u10440
  6215  03A6                     u10441:
  6216  03A6  2BA1               	goto	l1118
  6217  03A7                     u10440:
  6218  03A7  2BA8               	goto	l7349
  6219                           	
  6220  03A8                     l1120:	
  6221                           	line	359
  6222                           	
  6223  03A8                     l7349:	
  6224                           ;keyboard_and_mouse_in_a_glove.c: 359: if ( counter==0 ){ KeySend('a'); prevChar='a'; co
                                 unter = 10; }
  6225  03A8  0840               	movf	((_counter+1)),w
  6226  03A9  043F               	iorwf	((_counter)),w
  6227  03AA  1D03               	skipz
  6228  03AB  2BAD               	goto	u10451
  6229  03AC  2BAE               	goto	u10450
  6230  03AD                     u10451:
  6231  03AD  2BBF               	goto	l7357
  6232  03AE                     u10450:
  6233                           	
  6234  03AE                     l7351:	
  6235  03AE  3061               	movlw	(061h)
  6236  03AF  160A  118A  2008   	fcall	_KeySend
              120A  118A         
  6237                           	
  6238  03B4                     l7353:	
  6239  03B4  3061               	movlw	(061h)
  6240  03B5  1283               	bcf	status, 5	;RP0=0, select bank0
  6241  03B6  1303               	bcf	status, 6	;RP1=0, select bank0
  6242  03B7  00B3               	movwf	(??_main+0)+0
  6243  03B8  0833               	movf	(??_main+0)+0,w
  6244  03B9  00C1               	movwf	(_prevChar)
  6245                           	
  6246  03BA                     l7355:	
  6247  03BA  300A               	movlw	low(0Ah)
  6248  03BB  00BF               	movwf	(_counter)
  6249  03BC  3000               	movlw	high(0Ah)
  6250  03BD  00C0               	movwf	((_counter))+1
  6251  03BE  2C44               	goto	l7865
  6252                           	line	360
  6253                           	
  6254  03BF                     l1121:	
  6255                           	
  6256  03BF                     l7357:	
  6257                           ;keyboard_and_mouse_in_a_glove.c: 360: else if( prevChar=='a' ){ KeySend('^'); KeySend('
                                 b'); prevChar='b'; counter = 10; }
  6258  03BF  0841               	movf	(_prevChar),w
  6259  03C0  3A61               	xorlw	061h
  6260  03C1  1D03               	skipz
  6261  03C2  2BC4               	goto	u10461
  6262  03C3  2BC5               	goto	u10460
  6263  03C4                     u10461:
  6264  03C4  2BDC               	goto	l7365
  6265  03C5                     u10460:
  6266                           	
  6267  03C5                     l7359:	
  6268  03C5  305E               	movlw	(05Eh)
  6269  03C6  160A  118A  2008   	fcall	_KeySend
              120A  118A         
  6270  03CB  3062               	movlw	(062h)
  6271  03CC  160A  118A  2008   	fcall	_KeySend
              120A  118A         
  6272                           	
  6273  03D1                     l7361:	
  6274  03D1  3062               	movlw	(062h)
  6275  03D2  1283               	bcf	status, 5	;RP0=0, select bank0
  6276  03D3  1303               	bcf	status, 6	;RP1=0, select bank0
  6277  03D4  00B3               	movwf	(??_main+0)+0
  6278  03D5  0833               	movf	(??_main+0)+0,w
  6279  03D6  00C1               	movwf	(_prevChar)
  6280                           	
  6281  03D7                     l7363:	
  6282  03D7  300A               	movlw	low(0Ah)
  6283  03D8  00BF               	movwf	(_counter)
  6284  03D9  3000               	movlw	high(0Ah)
  6285  03DA  00C0               	movwf	((_counter))+1
  6286  03DB  2C44               	goto	l7865
  6287                           	line	361
  6288                           	
  6289  03DC                     l1123:	
  6290                           	
  6291  03DC                     l7365:	
  6292                           ;keyboard_and_mouse_in_a_glove.c: 361: else if( prevChar=='b' ){ KeySend('^'); KeySend('
                                 c'); prevChar='c'; counter = 10; }
  6293  03DC  0841               	movf	(_prevChar),w
  6294  03DD  3A62               	xorlw	062h
  6295  03DE  1D03               	skipz
  6296  03DF  2BE1               	goto	u10471
  6297  03E0  2BE2               	goto	u10470
  6298  03E1                     u10471:
  6299  03E1  2BF9               	goto	l7373
  6300  03E2                     u10470:
  6301                           	
  6302  03E2                     l7367:	
  6303  03E2  305E               	movlw	(05Eh)
  6304  03E3  160A  118A  2008   	fcall	_KeySend
              120A  118A         
  6305  03E8  3063               	movlw	(063h)
  6306  03E9  160A  118A  2008   	fcall	_KeySend
              120A  118A         
  6307                           	
  6308  03EE                     l7369:	
  6309  03EE  3063               	movlw	(063h)
  6310  03EF  1283               	bcf	status, 5	;RP0=0, select bank0
  6311  03F0  1303               	bcf	status, 6	;RP1=0, select bank0
  6312  03F1  00B3               	movwf	(??_main+0)+0
  6313  03F2  0833               	movf	(??_main+0)+0,w
  6314  03F3  00C1               	movwf	(_prevChar)
  6315                           	
  6316  03F4                     l7371:	
  6317  03F4  300A               	movlw	low(0Ah)
  6318  03F5  00BF               	movwf	(_counter)
  6319  03F6  3000               	movlw	high(0Ah)
  6320  03F7  00C0               	movwf	((_counter))+1
  6321  03F8  2C44               	goto	l7865
  6322                           	line	362
  6323                           	
  6324  03F9                     l1125:	
  6325                           	
  6326  03F9                     l7373:	
  6327                           ;keyboard_and_mouse_in_a_glove.c: 362: else if( prevChar=='c' ){ KeySend('^'); KeySend('
                                 2'); prevChar='2'; counter = 10; }
  6328  03F9  0841               	movf	(_prevChar),w
  6329  03FA  3A63               	xorlw	063h
  6330  03FB  1D03               	skipz
  6331  03FC  2BFE               	goto	u10481
  6332  03FD  2BFF               	goto	u10480
  6333  03FE                     u10481:
  6334  03FE  2C16               	goto	l7381
  6335  03FF                     u10480:
  6336                           	
  6337  03FF                     l7375:	
  6338  03FF  305E               	movlw	(05Eh)
  6339  0400  160A  118A  2008   	fcall	_KeySend
              120A  118A         
  6340  0405  3032               	movlw	(032h)
  6341  0406  160A  118A  2008   	fcall	_KeySend
              120A  118A         
  6342                           	
  6343  040B                     l7377:	
  6344  040B  3032               	movlw	(032h)
  6345  040C  1283               	bcf	status, 5	;RP0=0, select bank0
  6346  040D  1303               	bcf	status, 6	;RP1=0, select bank0
  6347  040E  00B3               	movwf	(??_main+0)+0
  6348  040F  0833               	movf	(??_main+0)+0,w
  6349  0410  00C1               	movwf	(_prevChar)
  6350                           	
  6351  0411                     l7379:	
  6352  0411  300A               	movlw	low(0Ah)
  6353  0412  00BF               	movwf	(_counter)
  6354  0413  3000               	movlw	high(0Ah)
  6355  0414  00C0               	movwf	((_counter))+1
  6356  0415  2C44               	goto	l7865
  6357                           	line	363
  6358                           	
  6359  0416                     l1127:	
  6360                           	
  6361  0416                     l7381:	
  6362                           ;keyboard_and_mouse_in_a_glove.c: 363: else if( prevChar=='2' ){ KeySend('^'); KeySend('
                                 a'); prevChar='a'; counter = 10; }
  6363  0416  0841               	movf	(_prevChar),w
  6364  0417  3A32               	xorlw	032h
  6365  0418  1D03               	skipz
  6366  0419  2C1B               	goto	u10491
  6367  041A  2C1C               	goto	u10490
  6368  041B                     u10491:
  6369  041B  2C33               	goto	l7389
  6370  041C                     u10490:
  6371                           	
  6372  041C                     l7383:	
  6373  041C  305E               	movlw	(05Eh)
  6374  041D  160A  118A  2008   	fcall	_KeySend
              120A  118A         
  6375  0422  3061               	movlw	(061h)
  6376  0423  160A  118A  2008   	fcall	_KeySend
              120A  118A         
  6377                           	
  6378  0428                     l7385:	
  6379  0428  3061               	movlw	(061h)
  6380  0429  1283               	bcf	status, 5	;RP0=0, select bank0
  6381  042A  1303               	bcf	status, 6	;RP1=0, select bank0
  6382  042B  00B3               	movwf	(??_main+0)+0
  6383  042C  0833               	movf	(??_main+0)+0,w
  6384  042D  00C1               	movwf	(_prevChar)
  6385                           	
  6386  042E                     l7387:	
  6387  042E  300A               	movlw	low(0Ah)
  6388  042F  00BF               	movwf	(_counter)
  6389  0430  3000               	movlw	high(0Ah)
  6390  0431  00C0               	movwf	((_counter))+1
  6391  0432  2C44               	goto	l7865
  6392                           	line	364
  6393                           	
  6394  0433                     l1129:	
  6395                           	
  6396  0433                     l7389:	
  6397                           ;keyboard_and_mouse_in_a_glove.c: 364: else { KeySend('a'); prevChar='a'; counter = 10; 
                                 }
  6398  0433  3061               	movlw	(061h)
  6399  0434  160A  118A  2008   	fcall	_KeySend
              120A  118A         
  6400                           	
  6401  0439                     l7391:	
  6402  0439  3061               	movlw	(061h)
  6403  043A  1283               	bcf	status, 5	;RP0=0, select bank0
  6404  043B  1303               	bcf	status, 6	;RP1=0, select bank0
  6405  043C  00B3               	movwf	(??_main+0)+0
  6406  043D  0833               	movf	(??_main+0)+0,w
  6407  043E  00C1               	movwf	(_prevChar)
  6408                           	
  6409  043F                     l7393:	
  6410  043F  300A               	movlw	low(0Ah)
  6411  0440  00BF               	movwf	(_counter)
  6412  0441  3000               	movlw	high(0Ah)
  6413  0442  00C0               	movwf	((_counter))+1
  6414  0443  2C44               	goto	l7865
  6415                           	
  6416  0444                     l1130:	
  6417  0444  120A  158A  2FF8   	goto	l7865
  6418                           	
  6419  0447                     l1128:	
  6420  0447  2C44               	goto	l7865
  6421                           	
  6422  0448                     l1126:	
  6423  0448  2C44               	goto	l7865
  6424                           	
  6425  0449                     l1124:	
  6426  0449  2C44               	goto	l7865
  6427                           	
  6428  044A                     l1122:	
  6429                           	line	365
  6430                           ;keyboard_and_mouse_in_a_glove.c: 365: }
  6431  044A  2C44               	goto	l7865
  6432                           	line	367
  6433                           	
  6434  044B                     l1108:	
  6435                           ;keyboard_and_mouse_in_a_glove.c: 367: else if( RB4!=0 ){
  6436  044B  1E06               	btfss	(52/8),(52)&7
  6437  044C  2C4E               	goto	u10501
  6438  044D  2C51               	goto	u10500
  6439  044E                     u10501:
  6440  044E  120A  158A  28C9   	goto	l1132
  6441  0451                     u10500:
  6442                           	line	368
  6443                           	
  6444  0451                     l7395:	
  6445                           ;keyboard_and_mouse_in_a_glove.c: 368: nop=1;
  6446  0451  1579               	bsf	(_nop/8),(_nop)&7
  6447                           	line	371
  6448                           	
  6449  0452                     l7397:	
  6450                           ;keyboard_and_mouse_in_a_glove.c: 371: _delay((unsigned long)((50)*(4000000/4000.0))); w
                                 hile(RC4!=0); _delay((unsigned long)((30)*(4000000/4000.0))); while(RC4!=0); _delay((uns
                                 igned long)((30)*(4000000/4000.0))); while(RC4!=0); _delay((unsigned long)((30)*(4000000
                                 /4000.0))); while(RC4!=0)
  6451                           	opt asmopt_off
  6452  0452  3041               movlw	65
  6453  0453  00B4               movwf	((??_main+0)+0+1),f
  6454  0454  30EE               	movlw	238
  6455  0455  00B3               movwf	((??_main+0)+0),f
  6456  0456                     u12237:
  6457  0456  0BB3               	decfsz	((??_main+0)+0),f
  6458  0457  2C56               	goto	u12237
  6459  0458  0BB4               	decfsz	((??_main+0)+0+1),f
  6460  0459  2C56               	goto	u12237
  6461  045A  0064               	clrwdt
  6462                           opt asmopt_on
  6463                           
  6464  045B  2C5C               	goto	l1133
  6465                           	
  6466  045C                     l1134:	
  6467                           	
  6468  045C                     l1133:	
  6469  045C  1283               	bcf	status, 5	;RP0=0, select bank0
  6470  045D  1303               	bcf	status, 6	;RP1=0, select bank0
  6471  045E  1A07               	btfsc	(60/8),(60)&7
  6472  045F  2C61               	goto	u10511
  6473  0460  2C62               	goto	u10510
  6474  0461                     u10511:
  6475  0461  2C5C               	goto	l1133
  6476  0462                     u10510:
  6477  0462  2C63               	goto	l7399
  6478                           	
  6479  0463                     l1135:	
  6480                           	
  6481  0463                     l7399:	
  6482                           	opt asmopt_off
  6483  0463  3027               movlw	39
  6484  0464  00B4               movwf	((??_main+0)+0+1),f
  6485  0465  30F5               	movlw	245
  6486  0466  00B3               movwf	((??_main+0)+0),f
  6487  0467                     u12247:
  6488  0467  0BB3               	decfsz	((??_main+0)+0),f
  6489  0468  2C67               	goto	u12247
  6490  0469  0BB4               	decfsz	((??_main+0)+0+1),f
  6491  046A  2C67               	goto	u12247
  6492                           opt asmopt_on
  6493                           
  6494  046B  2C6C               	goto	l1136
  6495                           	
  6496  046C                     l1137:	
  6497                           	
  6498  046C                     l1136:	
  6499  046C  1283               	bcf	status, 5	;RP0=0, select bank0
  6500  046D  1303               	bcf	status, 6	;RP1=0, select bank0
  6501  046E  1A07               	btfsc	(60/8),(60)&7
  6502  046F  2C71               	goto	u10521
  6503  0470  2C72               	goto	u10520
  6504  0471                     u10521:
  6505  0471  2C6C               	goto	l1136
  6506  0472                     u10520:
  6507  0472  120A  158A  2808   	goto	l7401
  6508                           	
  6509  0808                     l1138:	
  6510                           	
  6511  0808                     l7401:	
  6512                           	opt asmopt_off
  6513  0808  3027               movlw	39
  6514  0809  00B4               movwf	((??_main+0)+0+1),f
  6515  080A  30F5               	movlw	245
  6516  080B  00B3               movwf	((??_main+0)+0),f
  6517  080C                     u12257:
  6518  080C  0BB3               	decfsz	((??_main+0)+0),f
  6519  080D  280C               	goto	u12257
  6520  080E  0BB4               	decfsz	((??_main+0)+0+1),f
  6521  080F  280C               	goto	u12257
  6522                           opt asmopt_on
  6523                           
  6524  0810  2811               	goto	l1139
  6525                           	
  6526  0811                     l1140:	
  6527                           	
  6528  0811                     l1139:	
  6529  0811  1283               	bcf	status, 5	;RP0=0, select bank0
  6530  0812  1303               	bcf	status, 6	;RP1=0, select bank0
  6531  0813  1A07               	btfsc	(60/8),(60)&7
  6532  0814  2816               	goto	u10531
  6533  0815  2817               	goto	u10530
  6534  0816                     u10531:
  6535  0816  2811               	goto	l1139
  6536  0817                     u10530:
  6537  0817  2818               	goto	l7403
  6538                           	
  6539  0818                     l1141:	
  6540                           	
  6541  0818                     l7403:	
  6542                           	opt asmopt_off
  6543  0818  3027               movlw	39
  6544  0819  00B4               movwf	((??_main+0)+0+1),f
  6545  081A  30F5               	movlw	245
  6546  081B  00B3               movwf	((??_main+0)+0),f
  6547  081C                     u12267:
  6548  081C  0BB3               	decfsz	((??_main+0)+0),f
  6549  081D  281C               	goto	u12267
  6550  081E  0BB4               	decfsz	((??_main+0)+0+1),f
  6551  081F  281C               	goto	u12267
  6552                           opt asmopt_on
  6553                           
  6554  0820  2821               	goto	l1142
  6555                           	
  6556  0821                     l1143:	
  6557                           	
  6558  0821                     l1142:	
  6559  0821  1283               	bcf	status, 5	;RP0=0, select bank0
  6560  0822  1303               	bcf	status, 6	;RP1=0, select bank0
  6561  0823  1A07               	btfsc	(60/8),(60)&7
  6562  0824  2826               	goto	u10541
  6563  0825  2827               	goto	u10540
  6564  0826                     u10541:
  6565  0826  2821               	goto	l1142
  6566  0827                     u10540:
  6567  0827  2828               	goto	l7405
  6568                           	
  6569  0828                     l1144:	
  6570                           	line	374
  6571                           	
  6572  0828                     l7405:	
  6573                           ;keyboard_and_mouse_in_a_glove.c: 374: if ( counter==0 ){ KeySend('d'); prevChar='d'; co
                                 unter = 10; }
  6574  0828  0840               	movf	((_counter+1)),w
  6575  0829  043F               	iorwf	((_counter)),w
  6576  082A  1D03               	skipz
  6577  082B  282D               	goto	u10551
  6578  082C  282E               	goto	u10550
  6579  082D                     u10551:
  6580  082D  283F               	goto	l7413
  6581  082E                     u10550:
  6582                           	
  6583  082E                     l7407:	
  6584  082E  3064               	movlw	(064h)
  6585  082F  160A  118A  2008   	fcall	_KeySend
              120A  158A         
  6586                           	
  6587  0834                     l7409:	
  6588  0834  3064               	movlw	(064h)
  6589  0835  1283               	bcf	status, 5	;RP0=0, select bank0
  6590  0836  1303               	bcf	status, 6	;RP1=0, select bank0
  6591  0837  00B3               	movwf	(??_main+0)+0
  6592  0838  0833               	movf	(??_main+0)+0,w
  6593  0839  00C1               	movwf	(_prevChar)
  6594                           	
  6595  083A                     l7411:	
  6596  083A  300A               	movlw	low(0Ah)
  6597  083B  00BF               	movwf	(_counter)
  6598  083C  3000               	movlw	high(0Ah)
  6599  083D  00C0               	movwf	((_counter))+1
  6600  083E  2FF8               	goto	l7865
  6601                           	line	375
  6602                           	
  6603  083F                     l1145:	
  6604                           	
  6605  083F                     l7413:	
  6606                           ;keyboard_and_mouse_in_a_glove.c: 375: else if( prevChar=='d' ){ KeySend('^'); KeySend('
                                 e'); prevChar='e'; counter = 10; }
  6607  083F  0841               	movf	(_prevChar),w
  6608  0840  3A64               	xorlw	064h
  6609  0841  1D03               	skipz
  6610  0842  2844               	goto	u10561
  6611  0843  2845               	goto	u10560
  6612  0844                     u10561:
  6613  0844  285C               	goto	l7421
  6614  0845                     u10560:
  6615                           	
  6616  0845                     l7415:	
  6617  0845  305E               	movlw	(05Eh)
  6618  0846  160A  118A  2008   	fcall	_KeySend
              120A  158A         
  6619  084B  3065               	movlw	(065h)
  6620  084C  160A  118A  2008   	fcall	_KeySend
              120A  158A         
  6621                           	
  6622  0851                     l7417:	
  6623  0851  3065               	movlw	(065h)
  6624  0852  1283               	bcf	status, 5	;RP0=0, select bank0
  6625  0853  1303               	bcf	status, 6	;RP1=0, select bank0
  6626  0854  00B3               	movwf	(??_main+0)+0
  6627  0855  0833               	movf	(??_main+0)+0,w
  6628  0856  00C1               	movwf	(_prevChar)
  6629                           	
  6630  0857                     l7419:	
  6631  0857  300A               	movlw	low(0Ah)
  6632  0858  00BF               	movwf	(_counter)
  6633  0859  3000               	movlw	high(0Ah)
  6634  085A  00C0               	movwf	((_counter))+1
  6635  085B  2FF8               	goto	l7865
  6636                           	line	376
  6637                           	
  6638  085C                     l1147:	
  6639                           	
  6640  085C                     l7421:	
  6641                           ;keyboard_and_mouse_in_a_glove.c: 376: else if( prevChar=='e' ){ KeySend('^'); KeySend('
                                 f'); prevChar='f'; counter = 10; }
  6642  085C  0841               	movf	(_prevChar),w
  6643  085D  3A65               	xorlw	065h
  6644  085E  1D03               	skipz
  6645  085F  2861               	goto	u10571
  6646  0860  2862               	goto	u10570
  6647  0861                     u10571:
  6648  0861  2879               	goto	l7429
  6649  0862                     u10570:
  6650                           	
  6651  0862                     l7423:	
  6652  0862  305E               	movlw	(05Eh)
  6653  0863  160A  118A  2008   	fcall	_KeySend
              120A  158A         
  6654  0868  3066               	movlw	(066h)
  6655  0869  160A  118A  2008   	fcall	_KeySend
              120A  158A         
  6656                           	
  6657  086E                     l7425:	
  6658  086E  3066               	movlw	(066h)
  6659  086F  1283               	bcf	status, 5	;RP0=0, select bank0
  6660  0870  1303               	bcf	status, 6	;RP1=0, select bank0
  6661  0871  00B3               	movwf	(??_main+0)+0
  6662  0872  0833               	movf	(??_main+0)+0,w
  6663  0873  00C1               	movwf	(_prevChar)
  6664                           	
  6665  0874                     l7427:	
  6666  0874  300A               	movlw	low(0Ah)
  6667  0875  00BF               	movwf	(_counter)
  6668  0876  3000               	movlw	high(0Ah)
  6669  0877  00C0               	movwf	((_counter))+1
  6670  0878  2FF8               	goto	l7865
  6671                           	line	377
  6672                           	
  6673  0879                     l1149:	
  6674                           	
  6675  0879                     l7429:	
  6676                           ;keyboard_and_mouse_in_a_glove.c: 377: else if( prevChar=='f' ){ KeySend('^'); KeySend('
                                 3'); prevChar='3'; counter = 10; }
  6677  0879  0841               	movf	(_prevChar),w
  6678  087A  3A66               	xorlw	066h
  6679  087B  1D03               	skipz
  6680  087C  287E               	goto	u10581
  6681  087D  287F               	goto	u10580
  6682  087E                     u10581:
  6683  087E  2896               	goto	l7437
  6684  087F                     u10580:
  6685                           	
  6686  087F                     l7431:	
  6687  087F  305E               	movlw	(05Eh)
  6688  0880  160A  118A  2008   	fcall	_KeySend
              120A  158A         
  6689  0885  3033               	movlw	(033h)
  6690  0886  160A  118A  2008   	fcall	_KeySend
              120A  158A         
  6691                           	
  6692  088B                     l7433:	
  6693  088B  3033               	movlw	(033h)
  6694  088C  1283               	bcf	status, 5	;RP0=0, select bank0
  6695  088D  1303               	bcf	status, 6	;RP1=0, select bank0
  6696  088E  00B3               	movwf	(??_main+0)+0
  6697  088F  0833               	movf	(??_main+0)+0,w
  6698  0890  00C1               	movwf	(_prevChar)
  6699                           	
  6700  0891                     l7435:	
  6701  0891  300A               	movlw	low(0Ah)
  6702  0892  00BF               	movwf	(_counter)
  6703  0893  3000               	movlw	high(0Ah)
  6704  0894  00C0               	movwf	((_counter))+1
  6705  0895  2FF8               	goto	l7865
  6706                           	line	378
  6707                           	
  6708  0896                     l1151:	
  6709                           	
  6710  0896                     l7437:	
  6711                           ;keyboard_and_mouse_in_a_glove.c: 378: else if( prevChar=='3' ){ KeySend('^'); KeySend('
                                 d'); prevChar='d'; counter = 10; }
  6712  0896  0841               	movf	(_prevChar),w
  6713  0897  3A33               	xorlw	033h
  6714  0898  1D03               	skipz
  6715  0899  289B               	goto	u10591
  6716  089A  289C               	goto	u10590
  6717  089B                     u10591:
  6718  089B  28B3               	goto	l7445
  6719  089C                     u10590:
  6720                           	
  6721  089C                     l7439:	
  6722  089C  305E               	movlw	(05Eh)
  6723  089D  160A  118A  2008   	fcall	_KeySend
              120A  158A         
  6724  08A2  3064               	movlw	(064h)
  6725  08A3  160A  118A  2008   	fcall	_KeySend
              120A  158A         
  6726                           	
  6727  08A8                     l7441:	
  6728  08A8  3064               	movlw	(064h)
  6729  08A9  1283               	bcf	status, 5	;RP0=0, select bank0
  6730  08AA  1303               	bcf	status, 6	;RP1=0, select bank0
  6731  08AB  00B3               	movwf	(??_main+0)+0
  6732  08AC  0833               	movf	(??_main+0)+0,w
  6733  08AD  00C1               	movwf	(_prevChar)
  6734                           	
  6735  08AE                     l7443:	
  6736  08AE  300A               	movlw	low(0Ah)
  6737  08AF  00BF               	movwf	(_counter)
  6738  08B0  3000               	movlw	high(0Ah)
  6739  08B1  00C0               	movwf	((_counter))+1
  6740  08B2  2FF8               	goto	l7865
  6741                           	line	379
  6742                           	
  6743  08B3                     l1153:	
  6744                           	
  6745  08B3                     l7445:	
  6746                           ;keyboard_and_mouse_in_a_glove.c: 379: else { KeySend('d'); prevChar='d'; counter = 10; 
                                 }
  6747  08B3  3064               	movlw	(064h)
  6748  08B4  160A  118A  2008   	fcall	_KeySend
              120A  158A         
  6749                           	
  6750  08B9                     l7447:	
  6751  08B9  3064               	movlw	(064h)
  6752  08BA  1283               	bcf	status, 5	;RP0=0, select bank0
  6753  08BB  1303               	bcf	status, 6	;RP1=0, select bank0
  6754  08BC  00B3               	movwf	(??_main+0)+0
  6755  08BD  0833               	movf	(??_main+0)+0,w
  6756  08BE  00C1               	movwf	(_prevChar)
  6757                           	
  6758  08BF                     l7449:	
  6759  08BF  300A               	movlw	low(0Ah)
  6760  08C0  00BF               	movwf	(_counter)
  6761  08C1  3000               	movlw	high(0Ah)
  6762  08C2  00C0               	movwf	((_counter))+1
  6763  08C3  2FF8               	goto	l7865
  6764                           	
  6765  08C4                     l1154:	
  6766  08C4  2FF8               	goto	l7865
  6767                           	
  6768  08C5                     l1152:	
  6769  08C5  2FF8               	goto	l7865
  6770                           	
  6771  08C6                     l1150:	
  6772  08C6  2FF8               	goto	l7865
  6773                           	
  6774  08C7                     l1148:	
  6775  08C7  2FF8               	goto	l7865
  6776                           	
  6777  08C8                     l1146:	
  6778                           	line	380
  6779                           ;keyboard_and_mouse_in_a_glove.c: 380: }
  6780  08C8  2FF8               	goto	l7865
  6781                           	line	382
  6782                           	
  6783  08C9                     l1132:	
  6784                           ;keyboard_and_mouse_in_a_glove.c: 382: else if( RB0!=0 ){
  6785  08C9  1C06               	btfss	(48/8),(48)&7
  6786  08CA  28CC               	goto	u10601
  6787  08CB  28CD               	goto	u10600
  6788  08CC                     u10601:
  6789  08CC  29B0               	goto	l1156
  6790  08CD                     u10600:
  6791                           	line	383
  6792                           	
  6793  08CD                     l7451:	
  6794                           ;keyboard_and_mouse_in_a_glove.c: 383: nop=1;
  6795  08CD  1579               	bsf	(_nop/8),(_nop)&7
  6796                           	line	386
  6797                           	
  6798  08CE                     l7453:	
  6799                           ;keyboard_and_mouse_in_a_glove.c: 386: _delay((unsigned long)((50)*(4000000/4000.0))); w
                                 hile(RC4!=0); _delay((unsigned long)((30)*(4000000/4000.0))); while(RC4!=0); _delay((uns
                                 igned long)((30)*(4000000/4000.0))); while(RC4!=0); _delay((unsigned long)((30)*(4000000
                                 /4000.0))); while(RC4!=0)
  6800                           	opt asmopt_off
  6801  08CE  3041               movlw	65
  6802  08CF  00B4               movwf	((??_main+0)+0+1),f
  6803  08D0  30EE               	movlw	238
  6804  08D1  00B3               movwf	((??_main+0)+0),f
  6805  08D2                     u12277:
  6806  08D2  0BB3               	decfsz	((??_main+0)+0),f
  6807  08D3  28D2               	goto	u12277
  6808  08D4  0BB4               	decfsz	((??_main+0)+0+1),f
  6809  08D5  28D2               	goto	u12277
  6810  08D6  0064               	clrwdt
  6811                           opt asmopt_on
  6812                           
  6813  08D7  28D8               	goto	l1157
  6814                           	
  6815  08D8                     l1158:	
  6816                           	
  6817  08D8                     l1157:	
  6818  08D8  1283               	bcf	status, 5	;RP0=0, select bank0
  6819  08D9  1303               	bcf	status, 6	;RP1=0, select bank0
  6820  08DA  1A07               	btfsc	(60/8),(60)&7
  6821  08DB  28DD               	goto	u10611
  6822  08DC  28DE               	goto	u10610
  6823  08DD                     u10611:
  6824  08DD  28D8               	goto	l1157
  6825  08DE                     u10610:
  6826  08DE  28DF               	goto	l7455
  6827                           	
  6828  08DF                     l1159:	
  6829                           	
  6830  08DF                     l7455:	
  6831                           	opt asmopt_off
  6832  08DF  3027               movlw	39
  6833  08E0  00B4               movwf	((??_main+0)+0+1),f
  6834  08E1  30F5               	movlw	245
  6835  08E2  00B3               movwf	((??_main+0)+0),f
  6836  08E3                     u12287:
  6837  08E3  0BB3               	decfsz	((??_main+0)+0),f
  6838  08E4  28E3               	goto	u12287
  6839  08E5  0BB4               	decfsz	((??_main+0)+0+1),f
  6840  08E6  28E3               	goto	u12287
  6841                           opt asmopt_on
  6842                           
  6843  08E7  28E8               	goto	l1160
  6844                           	
  6845  08E8                     l1161:	
  6846                           	
  6847  08E8                     l1160:	
  6848  08E8  1283               	bcf	status, 5	;RP0=0, select bank0
  6849  08E9  1303               	bcf	status, 6	;RP1=0, select bank0
  6850  08EA  1A07               	btfsc	(60/8),(60)&7
  6851  08EB  28ED               	goto	u10621
  6852  08EC  28EE               	goto	u10620
  6853  08ED                     u10621:
  6854  08ED  28E8               	goto	l1160
  6855  08EE                     u10620:
  6856  08EE  28EF               	goto	l7457
  6857                           	
  6858  08EF                     l1162:	
  6859                           	
  6860  08EF                     l7457:	
  6861                           	opt asmopt_off
  6862  08EF  3027               movlw	39
  6863  08F0  00B4               movwf	((??_main+0)+0+1),f
  6864  08F1  30F5               	movlw	245
  6865  08F2  00B3               movwf	((??_main+0)+0),f
  6866  08F3                     u12297:
  6867  08F3  0BB3               	decfsz	((??_main+0)+0),f
  6868  08F4  28F3               	goto	u12297
  6869  08F5  0BB4               	decfsz	((??_main+0)+0+1),f
  6870  08F6  28F3               	goto	u12297
  6871                           opt asmopt_on
  6872                           
  6873  08F7  28F8               	goto	l1163
  6874                           	
  6875  08F8                     l1164:	
  6876                           	
  6877  08F8                     l1163:	
  6878  08F8  1283               	bcf	status, 5	;RP0=0, select bank0
  6879  08F9  1303               	bcf	status, 6	;RP1=0, select bank0
  6880  08FA  1A07               	btfsc	(60/8),(60)&7
  6881  08FB  28FD               	goto	u10631
  6882  08FC  28FE               	goto	u10630
  6883  08FD                     u10631:
  6884  08FD  28F8               	goto	l1163
  6885  08FE                     u10630:
  6886  08FE  28FF               	goto	l7459
  6887                           	
  6888  08FF                     l1165:	
  6889                           	
  6890  08FF                     l7459:	
  6891                           	opt asmopt_off
  6892  08FF  3027               movlw	39
  6893  0900  00B4               movwf	((??_main+0)+0+1),f
  6894  0901  30F5               	movlw	245
  6895  0902  00B3               movwf	((??_main+0)+0),f
  6896  0903                     u12307:
  6897  0903  0BB3               	decfsz	((??_main+0)+0),f
  6898  0904  2903               	goto	u12307
  6899  0905  0BB4               	decfsz	((??_main+0)+0+1),f
  6900  0906  2903               	goto	u12307
  6901                           opt asmopt_on
  6902                           
  6903  0907  2908               	goto	l1166
  6904                           	
  6905  0908                     l1167:	
  6906                           	
  6907  0908                     l1166:	
  6908  0908  1283               	bcf	status, 5	;RP0=0, select bank0
  6909  0909  1303               	bcf	status, 6	;RP1=0, select bank0
  6910  090A  1A07               	btfsc	(60/8),(60)&7
  6911  090B  290D               	goto	u10641
  6912  090C  290E               	goto	u10640
  6913  090D                     u10641:
  6914  090D  2908               	goto	l1166
  6915  090E                     u10640:
  6916  090E  290F               	goto	l7461
  6917                           	
  6918  090F                     l1168:	
  6919                           	line	389
  6920                           	
  6921  090F                     l7461:	
  6922                           ;keyboard_and_mouse_in_a_glove.c: 389: if ( counter==0 ){ KeySend('g'); prevChar='g'; co
                                 unter = 10; }
  6923  090F  0840               	movf	((_counter+1)),w
  6924  0910  043F               	iorwf	((_counter)),w
  6925  0911  1D03               	skipz
  6926  0912  2914               	goto	u10651
  6927  0913  2915               	goto	u10650
  6928  0914                     u10651:
  6929  0914  2926               	goto	l7469
  6930  0915                     u10650:
  6931                           	
  6932  0915                     l7463:	
  6933  0915  3067               	movlw	(067h)
  6934  0916  160A  118A  2008   	fcall	_KeySend
              120A  158A         
  6935                           	
  6936  091B                     l7465:	
  6937  091B  3067               	movlw	(067h)
  6938  091C  1283               	bcf	status, 5	;RP0=0, select bank0
  6939  091D  1303               	bcf	status, 6	;RP1=0, select bank0
  6940  091E  00B3               	movwf	(??_main+0)+0
  6941  091F  0833               	movf	(??_main+0)+0,w
  6942  0920  00C1               	movwf	(_prevChar)
  6943                           	
  6944  0921                     l7467:	
  6945  0921  300A               	movlw	low(0Ah)
  6946  0922  00BF               	movwf	(_counter)
  6947  0923  3000               	movlw	high(0Ah)
  6948  0924  00C0               	movwf	((_counter))+1
  6949  0925  2FF8               	goto	l7865
  6950                           	line	390
  6951                           	
  6952  0926                     l1169:	
  6953                           	
  6954  0926                     l7469:	
  6955                           ;keyboard_and_mouse_in_a_glove.c: 390: else if( prevChar=='g' ){ KeySend('^'); KeySend('
                                 h'); prevChar='h'; counter = 10; }
  6956  0926  0841               	movf	(_prevChar),w
  6957  0927  3A67               	xorlw	067h
  6958  0928  1D03               	skipz
  6959  0929  292B               	goto	u10661
  6960  092A  292C               	goto	u10660
  6961  092B                     u10661:
  6962  092B  2943               	goto	l7477
  6963  092C                     u10660:
  6964                           	
  6965  092C                     l7471:	
  6966  092C  305E               	movlw	(05Eh)
  6967  092D  160A  118A  2008   	fcall	_KeySend
              120A  158A         
  6968  0932  3068               	movlw	(068h)
  6969  0933  160A  118A  2008   	fcall	_KeySend
              120A  158A         
  6970                           	
  6971  0938                     l7473:	
  6972  0938  3068               	movlw	(068h)
  6973  0939  1283               	bcf	status, 5	;RP0=0, select bank0
  6974  093A  1303               	bcf	status, 6	;RP1=0, select bank0
  6975  093B  00B3               	movwf	(??_main+0)+0
  6976  093C  0833               	movf	(??_main+0)+0,w
  6977  093D  00C1               	movwf	(_prevChar)
  6978                           	
  6979  093E                     l7475:	
  6980  093E  300A               	movlw	low(0Ah)
  6981  093F  00BF               	movwf	(_counter)
  6982  0940  3000               	movlw	high(0Ah)
  6983  0941  00C0               	movwf	((_counter))+1
  6984  0942  2FF8               	goto	l7865
  6985                           	line	391
  6986                           	
  6987  0943                     l1171:	
  6988                           	
  6989  0943                     l7477:	
  6990                           ;keyboard_and_mouse_in_a_glove.c: 391: else if( prevChar=='h' ){ KeySend('^'); KeySend('
                                 i'); prevChar='i'; counter = 10; }
  6991  0943  0841               	movf	(_prevChar),w
  6992  0944  3A68               	xorlw	068h
  6993  0945  1D03               	skipz
  6994  0946  2948               	goto	u10671
  6995  0947  2949               	goto	u10670
  6996  0948                     u10671:
  6997  0948  2960               	goto	l7485
  6998  0949                     u10670:
  6999                           	
  7000  0949                     l7479:	
  7001  0949  305E               	movlw	(05Eh)
  7002  094A  160A  118A  2008   	fcall	_KeySend
              120A  158A         
  7003  094F  3069               	movlw	(069h)
  7004  0950  160A  118A  2008   	fcall	_KeySend
              120A  158A         
  7005                           	
  7006  0955                     l7481:	
  7007  0955  3069               	movlw	(069h)
  7008  0956  1283               	bcf	status, 5	;RP0=0, select bank0
  7009  0957  1303               	bcf	status, 6	;RP1=0, select bank0
  7010  0958  00B3               	movwf	(??_main+0)+0
  7011  0959  0833               	movf	(??_main+0)+0,w
  7012  095A  00C1               	movwf	(_prevChar)
  7013                           	
  7014  095B                     l7483:	
  7015  095B  300A               	movlw	low(0Ah)
  7016  095C  00BF               	movwf	(_counter)
  7017  095D  3000               	movlw	high(0Ah)
  7018  095E  00C0               	movwf	((_counter))+1
  7019  095F  2FF8               	goto	l7865
  7020                           	line	392
  7021                           	
  7022  0960                     l1173:	
  7023                           	
  7024  0960                     l7485:	
  7025                           ;keyboard_and_mouse_in_a_glove.c: 392: else if( prevChar=='i' ){ KeySend('^'); KeySend('
                                 4'); prevChar='4'; counter = 10; }
  7026  0960  0841               	movf	(_prevChar),w
  7027  0961  3A69               	xorlw	069h
  7028  0962  1D03               	skipz
  7029  0963  2965               	goto	u10681
  7030  0964  2966               	goto	u10680
  7031  0965                     u10681:
  7032  0965  297D               	goto	l7493
  7033  0966                     u10680:
  7034                           	
  7035  0966                     l7487:	
  7036  0966  305E               	movlw	(05Eh)
  7037  0967  160A  118A  2008   	fcall	_KeySend
              120A  158A         
  7038  096C  3034               	movlw	(034h)
  7039  096D  160A  118A  2008   	fcall	_KeySend
              120A  158A         
  7040                           	
  7041  0972                     l7489:	
  7042  0972  3034               	movlw	(034h)
  7043  0973  1283               	bcf	status, 5	;RP0=0, select bank0
  7044  0974  1303               	bcf	status, 6	;RP1=0, select bank0
  7045  0975  00B3               	movwf	(??_main+0)+0
  7046  0976  0833               	movf	(??_main+0)+0,w
  7047  0977  00C1               	movwf	(_prevChar)
  7048                           	
  7049  0978                     l7491:	
  7050  0978  300A               	movlw	low(0Ah)
  7051  0979  00BF               	movwf	(_counter)
  7052  097A  3000               	movlw	high(0Ah)
  7053  097B  00C0               	movwf	((_counter))+1
  7054  097C  2FF8               	goto	l7865
  7055                           	line	393
  7056                           	
  7057  097D                     l1175:	
  7058                           	
  7059  097D                     l7493:	
  7060                           ;keyboard_and_mouse_in_a_glove.c: 393: else if( prevChar=='4' ){ KeySend('^'); KeySend('
                                 g'); prevChar='g'; counter = 10; }
  7061  097D  0841               	movf	(_prevChar),w
  7062  097E  3A34               	xorlw	034h
  7063  097F  1D03               	skipz
  7064  0980  2982               	goto	u10691
  7065  0981  2983               	goto	u10690
  7066  0982                     u10691:
  7067  0982  299A               	goto	l7501
  7068  0983                     u10690:
  7069                           	
  7070  0983                     l7495:	
  7071  0983  305E               	movlw	(05Eh)
  7072  0984  160A  118A  2008   	fcall	_KeySend
              120A  158A         
  7073  0989  3067               	movlw	(067h)
  7074  098A  160A  118A  2008   	fcall	_KeySend
              120A  158A         
  7075                           	
  7076  098F                     l7497:	
  7077  098F  3067               	movlw	(067h)
  7078  0990  1283               	bcf	status, 5	;RP0=0, select bank0
  7079  0991  1303               	bcf	status, 6	;RP1=0, select bank0
  7080  0992  00B3               	movwf	(??_main+0)+0
  7081  0993  0833               	movf	(??_main+0)+0,w
  7082  0994  00C1               	movwf	(_prevChar)
  7083                           	
  7084  0995                     l7499:	
  7085  0995  300A               	movlw	low(0Ah)
  7086  0996  00BF               	movwf	(_counter)
  7087  0997  3000               	movlw	high(0Ah)
  7088  0998  00C0               	movwf	((_counter))+1
  7089  0999  2FF8               	goto	l7865
  7090                           	line	394
  7091                           	
  7092  099A                     l1177:	
  7093                           	
  7094  099A                     l7501:	
  7095                           ;keyboard_and_mouse_in_a_glove.c: 394: else { KeySend('g'); prevChar='g'; counter = 10; 
                                 }
  7096  099A  3067               	movlw	(067h)
  7097  099B  160A  118A  2008   	fcall	_KeySend
              120A  158A         
  7098                           	
  7099  09A0                     l7503:	
  7100  09A0  3067               	movlw	(067h)
  7101  09A1  1283               	bcf	status, 5	;RP0=0, select bank0
  7102  09A2  1303               	bcf	status, 6	;RP1=0, select bank0
  7103  09A3  00B3               	movwf	(??_main+0)+0
  7104  09A4  0833               	movf	(??_main+0)+0,w
  7105  09A5  00C1               	movwf	(_prevChar)
  7106                           	
  7107  09A6                     l7505:	
  7108  09A6  300A               	movlw	low(0Ah)
  7109  09A7  00BF               	movwf	(_counter)
  7110  09A8  3000               	movlw	high(0Ah)
  7111  09A9  00C0               	movwf	((_counter))+1
  7112  09AA  2FF8               	goto	l7865
  7113                           	
  7114  09AB                     l1178:	
  7115  09AB  2FF8               	goto	l7865
  7116                           	
  7117  09AC                     l1176:	
  7118  09AC  2FF8               	goto	l7865
  7119                           	
  7120  09AD                     l1174:	
  7121  09AD  2FF8               	goto	l7865
  7122                           	
  7123  09AE                     l1172:	
  7124  09AE  2FF8               	goto	l7865
  7125                           	
  7126  09AF                     l1170:	
  7127                           	line	395
  7128                           ;keyboard_and_mouse_in_a_glove.c: 395: }
  7129  09AF  2FF8               	goto	l7865
  7130                           	line	397
  7131                           	
  7132  09B0                     l1156:	
  7133                           ;keyboard_and_mouse_in_a_glove.c: 397: else if( RD4!=0){
  7134  09B0  1E08               	btfss	(68/8),(68)&7
  7135  09B1  29B3               	goto	u10701
  7136  09B2  29B4               	goto	u10700
  7137  09B3                     u10701:
  7138  09B3  2A97               	goto	l1180
  7139  09B4                     u10700:
  7140                           	line	398
  7141                           	
  7142  09B4                     l7507:	
  7143                           ;keyboard_and_mouse_in_a_glove.c: 398: nop=1;
  7144  09B4  1579               	bsf	(_nop/8),(_nop)&7
  7145                           	line	401
  7146                           	
  7147  09B5                     l7509:	
  7148                           ;keyboard_and_mouse_in_a_glove.c: 401: _delay((unsigned long)((50)*(4000000/4000.0))); w
                                 hile(RC4!=0); _delay((unsigned long)((30)*(4000000/4000.0))); while(RC4!=0); _delay((uns
                                 igned long)((30)*(4000000/4000.0))); while(RC4!=0); _delay((unsigned long)((30)*(4000000
                                 /4000.0))); while(RC4!=0)
  7149                           	opt asmopt_off
  7150  09B5  3041               movlw	65
  7151  09B6  00B4               movwf	((??_main+0)+0+1),f
  7152  09B7  30EE               	movlw	238
  7153  09B8  00B3               movwf	((??_main+0)+0),f
  7154  09B9                     u12317:
  7155  09B9  0BB3               	decfsz	((??_main+0)+0),f
  7156  09BA  29B9               	goto	u12317
  7157  09BB  0BB4               	decfsz	((??_main+0)+0+1),f
  7158  09BC  29B9               	goto	u12317
  7159  09BD  0064               	clrwdt
  7160                           opt asmopt_on
  7161                           
  7162  09BE  29BF               	goto	l1181
  7163                           	
  7164  09BF                     l1182:	
  7165                           	
  7166  09BF                     l1181:	
  7167  09BF  1283               	bcf	status, 5	;RP0=0, select bank0
  7168  09C0  1303               	bcf	status, 6	;RP1=0, select bank0
  7169  09C1  1A07               	btfsc	(60/8),(60)&7
  7170  09C2  29C4               	goto	u10711
  7171  09C3  29C5               	goto	u10710
  7172  09C4                     u10711:
  7173  09C4  29BF               	goto	l1181
  7174  09C5                     u10710:
  7175  09C5  29C6               	goto	l7511
  7176                           	
  7177  09C6                     l1183:	
  7178                           	
  7179  09C6                     l7511:	
  7180                           	opt asmopt_off
  7181  09C6  3027               movlw	39
  7182  09C7  00B4               movwf	((??_main+0)+0+1),f
  7183  09C8  30F5               	movlw	245
  7184  09C9  00B3               movwf	((??_main+0)+0),f
  7185  09CA                     u12327:
  7186  09CA  0BB3               	decfsz	((??_main+0)+0),f
  7187  09CB  29CA               	goto	u12327
  7188  09CC  0BB4               	decfsz	((??_main+0)+0+1),f
  7189  09CD  29CA               	goto	u12327
  7190                           opt asmopt_on
  7191                           
  7192  09CE  29CF               	goto	l1184
  7193                           	
  7194  09CF                     l1185:	
  7195                           	
  7196  09CF                     l1184:	
  7197  09CF  1283               	bcf	status, 5	;RP0=0, select bank0
  7198  09D0  1303               	bcf	status, 6	;RP1=0, select bank0
  7199  09D1  1A07               	btfsc	(60/8),(60)&7
  7200  09D2  29D4               	goto	u10721
  7201  09D3  29D5               	goto	u10720
  7202  09D4                     u10721:
  7203  09D4  29CF               	goto	l1184
  7204  09D5                     u10720:
  7205  09D5  29D6               	goto	l7513
  7206                           	
  7207  09D6                     l1186:	
  7208                           	
  7209  09D6                     l7513:	
  7210                           	opt asmopt_off
  7211  09D6  3027               movlw	39
  7212  09D7  00B4               movwf	((??_main+0)+0+1),f
  7213  09D8  30F5               	movlw	245
  7214  09D9  00B3               movwf	((??_main+0)+0),f
  7215  09DA                     u12337:
  7216  09DA  0BB3               	decfsz	((??_main+0)+0),f
  7217  09DB  29DA               	goto	u12337
  7218  09DC  0BB4               	decfsz	((??_main+0)+0+1),f
  7219  09DD  29DA               	goto	u12337
  7220                           opt asmopt_on
  7221                           
  7222  09DE  29DF               	goto	l1187
  7223                           	
  7224  09DF                     l1188:	
  7225                           	
  7226  09DF                     l1187:	
  7227  09DF  1283               	bcf	status, 5	;RP0=0, select bank0
  7228  09E0  1303               	bcf	status, 6	;RP1=0, select bank0
  7229  09E1  1A07               	btfsc	(60/8),(60)&7
  7230  09E2  29E4               	goto	u10731
  7231  09E3  29E5               	goto	u10730
  7232  09E4                     u10731:
  7233  09E4  29DF               	goto	l1187
  7234  09E5                     u10730:
  7235  09E5  29E6               	goto	l7515
  7236                           	
  7237  09E6                     l1189:	
  7238                           	
  7239  09E6                     l7515:	
  7240                           	opt asmopt_off
  7241  09E6  3027               movlw	39
  7242  09E7  00B4               movwf	((??_main+0)+0+1),f
  7243  09E8  30F5               	movlw	245
  7244  09E9  00B3               movwf	((??_main+0)+0),f
  7245  09EA                     u12347:
  7246  09EA  0BB3               	decfsz	((??_main+0)+0),f
  7247  09EB  29EA               	goto	u12347
  7248  09EC  0BB4               	decfsz	((??_main+0)+0+1),f
  7249  09ED  29EA               	goto	u12347
  7250                           opt asmopt_on
  7251                           
  7252  09EE  29EF               	goto	l1190
  7253                           	
  7254  09EF                     l1191:	
  7255                           	
  7256  09EF                     l1190:	
  7257  09EF  1283               	bcf	status, 5	;RP0=0, select bank0
  7258  09F0  1303               	bcf	status, 6	;RP1=0, select bank0
  7259  09F1  1A07               	btfsc	(60/8),(60)&7
  7260  09F2  29F4               	goto	u10741
  7261  09F3  29F5               	goto	u10740
  7262  09F4                     u10741:
  7263  09F4  29EF               	goto	l1190
  7264  09F5                     u10740:
  7265  09F5  29F6               	goto	l7517
  7266                           	
  7267  09F6                     l1192:	
  7268                           	line	404
  7269                           	
  7270  09F6                     l7517:	
  7271                           ;keyboard_and_mouse_in_a_glove.c: 404: if ( counter==0 ){ KeySend('j'); prevChar='j'; co
                                 unter = 10; }
  7272  09F6  0840               	movf	((_counter+1)),w
  7273  09F7  043F               	iorwf	((_counter)),w
  7274  09F8  1D03               	skipz
  7275  09F9  29FB               	goto	u10751
  7276  09FA  29FC               	goto	u10750
  7277  09FB                     u10751:
  7278  09FB  2A0D               	goto	l7525
  7279  09FC                     u10750:
  7280                           	
  7281  09FC                     l7519:	
  7282  09FC  306A               	movlw	(06Ah)
  7283  09FD  160A  118A  2008   	fcall	_KeySend
              120A  158A         
  7284                           	
  7285  0A02                     l7521:	
  7286  0A02  306A               	movlw	(06Ah)
  7287  0A03  1283               	bcf	status, 5	;RP0=0, select bank0
  7288  0A04  1303               	bcf	status, 6	;RP1=0, select bank0
  7289  0A05  00B3               	movwf	(??_main+0)+0
  7290  0A06  0833               	movf	(??_main+0)+0,w
  7291  0A07  00C1               	movwf	(_prevChar)
  7292                           	
  7293  0A08                     l7523:	
  7294  0A08  300A               	movlw	low(0Ah)
  7295  0A09  00BF               	movwf	(_counter)
  7296  0A0A  3000               	movlw	high(0Ah)
  7297  0A0B  00C0               	movwf	((_counter))+1
  7298  0A0C  2FF8               	goto	l7865
  7299                           	line	405
  7300                           	
  7301  0A0D                     l1193:	
  7302                           	
  7303  0A0D                     l7525:	
  7304                           ;keyboard_and_mouse_in_a_glove.c: 405: else if( prevChar=='j' ){ KeySend('^'); KeySend('
                                 k'); prevChar='k'; counter = 10; }
  7305  0A0D  0841               	movf	(_prevChar),w
  7306  0A0E  3A6A               	xorlw	06Ah
  7307  0A0F  1D03               	skipz
  7308  0A10  2A12               	goto	u10761
  7309  0A11  2A13               	goto	u10760
  7310  0A12                     u10761:
  7311  0A12  2A2A               	goto	l7533
  7312  0A13                     u10760:
  7313                           	
  7314  0A13                     l7527:	
  7315  0A13  305E               	movlw	(05Eh)
  7316  0A14  160A  118A  2008   	fcall	_KeySend
              120A  158A         
  7317  0A19  306B               	movlw	(06Bh)
  7318  0A1A  160A  118A  2008   	fcall	_KeySend
              120A  158A         
  7319                           	
  7320  0A1F                     l7529:	
  7321  0A1F  306B               	movlw	(06Bh)
  7322  0A20  1283               	bcf	status, 5	;RP0=0, select bank0
  7323  0A21  1303               	bcf	status, 6	;RP1=0, select bank0
  7324  0A22  00B3               	movwf	(??_main+0)+0
  7325  0A23  0833               	movf	(??_main+0)+0,w
  7326  0A24  00C1               	movwf	(_prevChar)
  7327                           	
  7328  0A25                     l7531:	
  7329  0A25  300A               	movlw	low(0Ah)
  7330  0A26  00BF               	movwf	(_counter)
  7331  0A27  3000               	movlw	high(0Ah)
  7332  0A28  00C0               	movwf	((_counter))+1
  7333  0A29  2FF8               	goto	l7865
  7334                           	line	406
  7335                           	
  7336  0A2A                     l1195:	
  7337                           	
  7338  0A2A                     l7533:	
  7339                           ;keyboard_and_mouse_in_a_glove.c: 406: else if( prevChar=='k' ){ KeySend('^'); KeySend('
                                 l'); prevChar='l'; counter = 10; }
  7340  0A2A  0841               	movf	(_prevChar),w
  7341  0A2B  3A6B               	xorlw	06Bh
  7342  0A2C  1D03               	skipz
  7343  0A2D  2A2F               	goto	u10771
  7344  0A2E  2A30               	goto	u10770
  7345  0A2F                     u10771:
  7346  0A2F  2A47               	goto	l7541
  7347  0A30                     u10770:
  7348                           	
  7349  0A30                     l7535:	
  7350  0A30  305E               	movlw	(05Eh)
  7351  0A31  160A  118A  2008   	fcall	_KeySend
              120A  158A         
  7352  0A36  306C               	movlw	(06Ch)
  7353  0A37  160A  118A  2008   	fcall	_KeySend
              120A  158A         
  7354                           	
  7355  0A3C                     l7537:	
  7356  0A3C  306C               	movlw	(06Ch)
  7357  0A3D  1283               	bcf	status, 5	;RP0=0, select bank0
  7358  0A3E  1303               	bcf	status, 6	;RP1=0, select bank0
  7359  0A3F  00B3               	movwf	(??_main+0)+0
  7360  0A40  0833               	movf	(??_main+0)+0,w
  7361  0A41  00C1               	movwf	(_prevChar)
  7362                           	
  7363  0A42                     l7539:	
  7364  0A42  300A               	movlw	low(0Ah)
  7365  0A43  00BF               	movwf	(_counter)
  7366  0A44  3000               	movlw	high(0Ah)
  7367  0A45  00C0               	movwf	((_counter))+1
  7368  0A46  2FF8               	goto	l7865
  7369                           	line	407
  7370                           	
  7371  0A47                     l1197:	
  7372                           	
  7373  0A47                     l7541:	
  7374                           ;keyboard_and_mouse_in_a_glove.c: 407: else if( prevChar=='l' ){ KeySend('^'); KeySend('
                                 5'); prevChar='5'; counter = 10; }
  7375  0A47  0841               	movf	(_prevChar),w
  7376  0A48  3A6C               	xorlw	06Ch
  7377  0A49  1D03               	skipz
  7378  0A4A  2A4C               	goto	u10781
  7379  0A4B  2A4D               	goto	u10780
  7380  0A4C                     u10781:
  7381  0A4C  2A64               	goto	l7549
  7382  0A4D                     u10780:
  7383                           	
  7384  0A4D                     l7543:	
  7385  0A4D  305E               	movlw	(05Eh)
  7386  0A4E  160A  118A  2008   	fcall	_KeySend
              120A  158A         
  7387  0A53  3035               	movlw	(035h)
  7388  0A54  160A  118A  2008   	fcall	_KeySend
              120A  158A         
  7389                           	
  7390  0A59                     l7545:	
  7391  0A59  3035               	movlw	(035h)
  7392  0A5A  1283               	bcf	status, 5	;RP0=0, select bank0
  7393  0A5B  1303               	bcf	status, 6	;RP1=0, select bank0
  7394  0A5C  00B3               	movwf	(??_main+0)+0
  7395  0A5D  0833               	movf	(??_main+0)+0,w
  7396  0A5E  00C1               	movwf	(_prevChar)
  7397                           	
  7398  0A5F                     l7547:	
  7399  0A5F  300A               	movlw	low(0Ah)
  7400  0A60  00BF               	movwf	(_counter)
  7401  0A61  3000               	movlw	high(0Ah)
  7402  0A62  00C0               	movwf	((_counter))+1
  7403  0A63  2FF8               	goto	l7865
  7404                           	line	408
  7405                           	
  7406  0A64                     l1199:	
  7407                           	
  7408  0A64                     l7549:	
  7409                           ;keyboard_and_mouse_in_a_glove.c: 408: else if( prevChar=='5' ){ KeySend('^'); KeySend('
                                 j'); prevChar='j'; counter = 10; }
  7410  0A64  0841               	movf	(_prevChar),w
  7411  0A65  3A35               	xorlw	035h
  7412  0A66  1D03               	skipz
  7413  0A67  2A69               	goto	u10791
  7414  0A68  2A6A               	goto	u10790
  7415  0A69                     u10791:
  7416  0A69  2A81               	goto	l7557
  7417  0A6A                     u10790:
  7418                           	
  7419  0A6A                     l7551:	
  7420  0A6A  305E               	movlw	(05Eh)
  7421  0A6B  160A  118A  2008   	fcall	_KeySend
              120A  158A         
  7422  0A70  306A               	movlw	(06Ah)
  7423  0A71  160A  118A  2008   	fcall	_KeySend
              120A  158A         
  7424                           	
  7425  0A76                     l7553:	
  7426  0A76  306A               	movlw	(06Ah)
  7427  0A77  1283               	bcf	status, 5	;RP0=0, select bank0
  7428  0A78  1303               	bcf	status, 6	;RP1=0, select bank0
  7429  0A79  00B3               	movwf	(??_main+0)+0
  7430  0A7A  0833               	movf	(??_main+0)+0,w
  7431  0A7B  00C1               	movwf	(_prevChar)
  7432                           	
  7433  0A7C                     l7555:	
  7434  0A7C  300A               	movlw	low(0Ah)
  7435  0A7D  00BF               	movwf	(_counter)
  7436  0A7E  3000               	movlw	high(0Ah)
  7437  0A7F  00C0               	movwf	((_counter))+1
  7438  0A80  2FF8               	goto	l7865
  7439                           	line	409
  7440                           	
  7441  0A81                     l1201:	
  7442                           	
  7443  0A81                     l7557:	
  7444                           ;keyboard_and_mouse_in_a_glove.c: 409: else { KeySend('j'); prevChar='j'; counter = 10; 
                                 }
  7445  0A81  306A               	movlw	(06Ah)
  7446  0A82  160A  118A  2008   	fcall	_KeySend
              120A  158A         
  7447                           	
  7448  0A87                     l7559:	
  7449  0A87  306A               	movlw	(06Ah)
  7450  0A88  1283               	bcf	status, 5	;RP0=0, select bank0
  7451  0A89  1303               	bcf	status, 6	;RP1=0, select bank0
  7452  0A8A  00B3               	movwf	(??_main+0)+0
  7453  0A8B  0833               	movf	(??_main+0)+0,w
  7454  0A8C  00C1               	movwf	(_prevChar)
  7455                           	
  7456  0A8D                     l7561:	
  7457  0A8D  300A               	movlw	low(0Ah)
  7458  0A8E  00BF               	movwf	(_counter)
  7459  0A8F  3000               	movlw	high(0Ah)
  7460  0A90  00C0               	movwf	((_counter))+1
  7461  0A91  2FF8               	goto	l7865
  7462                           	
  7463  0A92                     l1202:	
  7464  0A92  2FF8               	goto	l7865
  7465                           	
  7466  0A93                     l1200:	
  7467  0A93  2FF8               	goto	l7865
  7468                           	
  7469  0A94                     l1198:	
  7470  0A94  2FF8               	goto	l7865
  7471                           	
  7472  0A95                     l1196:	
  7473  0A95  2FF8               	goto	l7865
  7474                           	
  7475  0A96                     l1194:	
  7476                           	line	410
  7477                           ;keyboard_and_mouse_in_a_glove.c: 410: }
  7478  0A96  2FF8               	goto	l7865
  7479                           	line	413
  7480                           	
  7481  0A97                     l1180:	
  7482                           ;keyboard_and_mouse_in_a_glove.c: 413: else if( RB2!=0){
  7483  0A97  1D06               	btfss	(50/8),(50)&7
  7484  0A98  2A9A               	goto	u10801
  7485  0A99  2A9B               	goto	u10800
  7486  0A9A                     u10801:
  7487  0A9A  2B7E               	goto	l1204
  7488  0A9B                     u10800:
  7489                           	line	414
  7490                           	
  7491  0A9B                     l7563:	
  7492                           ;keyboard_and_mouse_in_a_glove.c: 414: nop=1;
  7493  0A9B  1579               	bsf	(_nop/8),(_nop)&7
  7494                           	line	417
  7495                           	
  7496  0A9C                     l7565:	
  7497                           ;keyboard_and_mouse_in_a_glove.c: 417: _delay((unsigned long)((50)*(4000000/4000.0))); w
                                 hile(RC4!=0); _delay((unsigned long)((30)*(4000000/4000.0))); while(RC4!=0); _delay((uns
                                 igned long)((30)*(4000000/4000.0))); while(RC4!=0); _delay((unsigned long)((30)*(4000000
                                 /4000.0))); while(RC4!=0)
  7498                           	opt asmopt_off
  7499  0A9C  3041               movlw	65
  7500  0A9D  00B4               movwf	((??_main+0)+0+1),f
  7501  0A9E  30EE               	movlw	238
  7502  0A9F  00B3               movwf	((??_main+0)+0),f
  7503  0AA0                     u12357:
  7504  0AA0  0BB3               	decfsz	((??_main+0)+0),f
  7505  0AA1  2AA0               	goto	u12357
  7506  0AA2  0BB4               	decfsz	((??_main+0)+0+1),f
  7507  0AA3  2AA0               	goto	u12357
  7508  0AA4  0064               	clrwdt
  7509                           opt asmopt_on
  7510                           
  7511  0AA5  2AA6               	goto	l1205
  7512                           	
  7513  0AA6                     l1206:	
  7514                           	
  7515  0AA6                     l1205:	
  7516  0AA6  1283               	bcf	status, 5	;RP0=0, select bank0
  7517  0AA7  1303               	bcf	status, 6	;RP1=0, select bank0
  7518  0AA8  1A07               	btfsc	(60/8),(60)&7
  7519  0AA9  2AAB               	goto	u10811
  7520  0AAA  2AAC               	goto	u10810
  7521  0AAB                     u10811:
  7522  0AAB  2AA6               	goto	l1205
  7523  0AAC                     u10810:
  7524  0AAC  2AAD               	goto	l7567
  7525                           	
  7526  0AAD                     l1207:	
  7527                           	
  7528  0AAD                     l7567:	
  7529                           	opt asmopt_off
  7530  0AAD  3027               movlw	39
  7531  0AAE  00B4               movwf	((??_main+0)+0+1),f
  7532  0AAF  30F5               	movlw	245
  7533  0AB0  00B3               movwf	((??_main+0)+0),f
  7534  0AB1                     u12367:
  7535  0AB1  0BB3               	decfsz	((??_main+0)+0),f
  7536  0AB2  2AB1               	goto	u12367
  7537  0AB3  0BB4               	decfsz	((??_main+0)+0+1),f
  7538  0AB4  2AB1               	goto	u12367
  7539                           opt asmopt_on
  7540                           
  7541  0AB5  2AB6               	goto	l1208
  7542                           	
  7543  0AB6                     l1209:	
  7544                           	
  7545  0AB6                     l1208:	
  7546  0AB6  1283               	bcf	status, 5	;RP0=0, select bank0
  7547  0AB7  1303               	bcf	status, 6	;RP1=0, select bank0
  7548  0AB8  1A07               	btfsc	(60/8),(60)&7
  7549  0AB9  2ABB               	goto	u10821
  7550  0ABA  2ABC               	goto	u10820
  7551  0ABB                     u10821:
  7552  0ABB  2AB6               	goto	l1208
  7553  0ABC                     u10820:
  7554  0ABC  2ABD               	goto	l7569
  7555                           	
  7556  0ABD                     l1210:	
  7557                           	
  7558  0ABD                     l7569:	
  7559                           	opt asmopt_off
  7560  0ABD  3027               movlw	39
  7561  0ABE  00B4               movwf	((??_main+0)+0+1),f
  7562  0ABF  30F5               	movlw	245
  7563  0AC0  00B3               movwf	((??_main+0)+0),f
  7564  0AC1                     u12377:
  7565  0AC1  0BB3               	decfsz	((??_main+0)+0),f
  7566  0AC2  2AC1               	goto	u12377
  7567  0AC3  0BB4               	decfsz	((??_main+0)+0+1),f
  7568  0AC4  2AC1               	goto	u12377
  7569                           opt asmopt_on
  7570                           
  7571  0AC5  2AC6               	goto	l1211
  7572                           	
  7573  0AC6                     l1212:	
  7574                           	
  7575  0AC6                     l1211:	
  7576  0AC6  1283               	bcf	status, 5	;RP0=0, select bank0
  7577  0AC7  1303               	bcf	status, 6	;RP1=0, select bank0
  7578  0AC8  1A07               	btfsc	(60/8),(60)&7
  7579  0AC9  2ACB               	goto	u10831
  7580  0ACA  2ACC               	goto	u10830
  7581  0ACB                     u10831:
  7582  0ACB  2AC6               	goto	l1211
  7583  0ACC                     u10830:
  7584  0ACC  2ACD               	goto	l7571
  7585                           	
  7586  0ACD                     l1213:	
  7587                           	
  7588  0ACD                     l7571:	
  7589                           	opt asmopt_off
  7590  0ACD  3027               movlw	39
  7591  0ACE  00B4               movwf	((??_main+0)+0+1),f
  7592  0ACF  30F5               	movlw	245
  7593  0AD0  00B3               movwf	((??_main+0)+0),f
  7594  0AD1                     u12387:
  7595  0AD1  0BB3               	decfsz	((??_main+0)+0),f
  7596  0AD2  2AD1               	goto	u12387
  7597  0AD3  0BB4               	decfsz	((??_main+0)+0+1),f
  7598  0AD4  2AD1               	goto	u12387
  7599                           opt asmopt_on
  7600                           
  7601  0AD5  2AD6               	goto	l1214
  7602                           	
  7603  0AD6                     l1215:	
  7604                           	
  7605  0AD6                     l1214:	
  7606  0AD6  1283               	bcf	status, 5	;RP0=0, select bank0
  7607  0AD7  1303               	bcf	status, 6	;RP1=0, select bank0
  7608  0AD8  1A07               	btfsc	(60/8),(60)&7
  7609  0AD9  2ADB               	goto	u10841
  7610  0ADA  2ADC               	goto	u10840
  7611  0ADB                     u10841:
  7612  0ADB  2AD6               	goto	l1214
  7613  0ADC                     u10840:
  7614  0ADC  2ADD               	goto	l7573
  7615                           	
  7616  0ADD                     l1216:	
  7617                           	line	420
  7618                           	
  7619  0ADD                     l7573:	
  7620                           ;keyboard_and_mouse_in_a_glove.c: 420: if ( counter==0 ){ KeySend('m'); prevChar='m'; co
                                 unter = 10; }
  7621  0ADD  0840               	movf	((_counter+1)),w
  7622  0ADE  043F               	iorwf	((_counter)),w
  7623  0ADF  1D03               	skipz
  7624  0AE0  2AE2               	goto	u10851
  7625  0AE1  2AE3               	goto	u10850
  7626  0AE2                     u10851:
  7627  0AE2  2AF4               	goto	l7581
  7628  0AE3                     u10850:
  7629                           	
  7630  0AE3                     l7575:	
  7631  0AE3  306D               	movlw	(06Dh)
  7632  0AE4  160A  118A  2008   	fcall	_KeySend
              120A  158A         
  7633                           	
  7634  0AE9                     l7577:	
  7635  0AE9  306D               	movlw	(06Dh)
  7636  0AEA  1283               	bcf	status, 5	;RP0=0, select bank0
  7637  0AEB  1303               	bcf	status, 6	;RP1=0, select bank0
  7638  0AEC  00B3               	movwf	(??_main+0)+0
  7639  0AED  0833               	movf	(??_main+0)+0,w
  7640  0AEE  00C1               	movwf	(_prevChar)
  7641                           	
  7642  0AEF                     l7579:	
  7643  0AEF  300A               	movlw	low(0Ah)
  7644  0AF0  00BF               	movwf	(_counter)
  7645  0AF1  3000               	movlw	high(0Ah)
  7646  0AF2  00C0               	movwf	((_counter))+1
  7647  0AF3  2FF8               	goto	l7865
  7648                           	line	421
  7649                           	
  7650  0AF4                     l1217:	
  7651                           	
  7652  0AF4                     l7581:	
  7653                           ;keyboard_and_mouse_in_a_glove.c: 421: else if( prevChar=='m' ){ KeySend('^'); KeySend('
                                 n'); prevChar='n'; counter = 10; }
  7654  0AF4  0841               	movf	(_prevChar),w
  7655  0AF5  3A6D               	xorlw	06Dh
  7656  0AF6  1D03               	skipz
  7657  0AF7  2AF9               	goto	u10861
  7658  0AF8  2AFA               	goto	u10860
  7659  0AF9                     u10861:
  7660  0AF9  2B11               	goto	l7589
  7661  0AFA                     u10860:
  7662                           	
  7663  0AFA                     l7583:	
  7664  0AFA  305E               	movlw	(05Eh)
  7665  0AFB  160A  118A  2008   	fcall	_KeySend
              120A  158A         
  7666  0B00  306E               	movlw	(06Eh)
  7667  0B01  160A  118A  2008   	fcall	_KeySend
              120A  158A         
  7668                           	
  7669  0B06                     l7585:	
  7670  0B06  306E               	movlw	(06Eh)
  7671  0B07  1283               	bcf	status, 5	;RP0=0, select bank0
  7672  0B08  1303               	bcf	status, 6	;RP1=0, select bank0
  7673  0B09  00B3               	movwf	(??_main+0)+0
  7674  0B0A  0833               	movf	(??_main+0)+0,w
  7675  0B0B  00C1               	movwf	(_prevChar)
  7676                           	
  7677  0B0C                     l7587:	
  7678  0B0C  300A               	movlw	low(0Ah)
  7679  0B0D  00BF               	movwf	(_counter)
  7680  0B0E  3000               	movlw	high(0Ah)
  7681  0B0F  00C0               	movwf	((_counter))+1
  7682  0B10  2FF8               	goto	l7865
  7683                           	line	422
  7684                           	
  7685  0B11                     l1219:	
  7686                           	
  7687  0B11                     l7589:	
  7688                           ;keyboard_and_mouse_in_a_glove.c: 422: else if( prevChar=='n' ){ KeySend('^'); KeySend('
                                 o'); prevChar='o'; counter = 10; }
  7689  0B11  0841               	movf	(_prevChar),w
  7690  0B12  3A6E               	xorlw	06Eh
  7691  0B13  1D03               	skipz
  7692  0B14  2B16               	goto	u10871
  7693  0B15  2B17               	goto	u10870
  7694  0B16                     u10871:
  7695  0B16  2B2E               	goto	l7597
  7696  0B17                     u10870:
  7697                           	
  7698  0B17                     l7591:	
  7699  0B17  305E               	movlw	(05Eh)
  7700  0B18  160A  118A  2008   	fcall	_KeySend
              120A  158A         
  7701  0B1D  306F               	movlw	(06Fh)
  7702  0B1E  160A  118A  2008   	fcall	_KeySend
              120A  158A         
  7703                           	
  7704  0B23                     l7593:	
  7705  0B23  306F               	movlw	(06Fh)
  7706  0B24  1283               	bcf	status, 5	;RP0=0, select bank0
  7707  0B25  1303               	bcf	status, 6	;RP1=0, select bank0
  7708  0B26  00B3               	movwf	(??_main+0)+0
  7709  0B27  0833               	movf	(??_main+0)+0,w
  7710  0B28  00C1               	movwf	(_prevChar)
  7711                           	
  7712  0B29                     l7595:	
  7713  0B29  300A               	movlw	low(0Ah)
  7714  0B2A  00BF               	movwf	(_counter)
  7715  0B2B  3000               	movlw	high(0Ah)
  7716  0B2C  00C0               	movwf	((_counter))+1
  7717  0B2D  2FF8               	goto	l7865
  7718                           	line	423
  7719                           	
  7720  0B2E                     l1221:	
  7721                           	
  7722  0B2E                     l7597:	
  7723                           ;keyboard_and_mouse_in_a_glove.c: 423: else if( prevChar=='o' ){ KeySend('^'); KeySend('
                                 6'); prevChar='6'; counter = 10; }
  7724  0B2E  0841               	movf	(_prevChar),w
  7725  0B2F  3A6F               	xorlw	06Fh
  7726  0B30  1D03               	skipz
  7727  0B31  2B33               	goto	u10881
  7728  0B32  2B34               	goto	u10880
  7729  0B33                     u10881:
  7730  0B33  2B4B               	goto	l7605
  7731  0B34                     u10880:
  7732                           	
  7733  0B34                     l7599:	
  7734  0B34  305E               	movlw	(05Eh)
  7735  0B35  160A  118A  2008   	fcall	_KeySend
              120A  158A         
  7736  0B3A  3036               	movlw	(036h)
  7737  0B3B  160A  118A  2008   	fcall	_KeySend
              120A  158A         
  7738                           	
  7739  0B40                     l7601:	
  7740  0B40  3036               	movlw	(036h)
  7741  0B41  1283               	bcf	status, 5	;RP0=0, select bank0
  7742  0B42  1303               	bcf	status, 6	;RP1=0, select bank0
  7743  0B43  00B3               	movwf	(??_main+0)+0
  7744  0B44  0833               	movf	(??_main+0)+0,w
  7745  0B45  00C1               	movwf	(_prevChar)
  7746                           	
  7747  0B46                     l7603:	
  7748  0B46  300A               	movlw	low(0Ah)
  7749  0B47  00BF               	movwf	(_counter)
  7750  0B48  3000               	movlw	high(0Ah)
  7751  0B49  00C0               	movwf	((_counter))+1
  7752  0B4A  2FF8               	goto	l7865
  7753                           	line	424
  7754                           	
  7755  0B4B                     l1223:	
  7756                           	
  7757  0B4B                     l7605:	
  7758                           ;keyboard_and_mouse_in_a_glove.c: 424: else if( prevChar=='6' ){ KeySend('^'); KeySend('
                                 m'); prevChar='m'; counter = 10; }
  7759  0B4B  0841               	movf	(_prevChar),w
  7760  0B4C  3A36               	xorlw	036h
  7761  0B4D  1D03               	skipz
  7762  0B4E  2B50               	goto	u10891
  7763  0B4F  2B51               	goto	u10890
  7764  0B50                     u10891:
  7765  0B50  2B68               	goto	l7613
  7766  0B51                     u10890:
  7767                           	
  7768  0B51                     l7607:	
  7769  0B51  305E               	movlw	(05Eh)
  7770  0B52  160A  118A  2008   	fcall	_KeySend
              120A  158A         
  7771  0B57  306D               	movlw	(06Dh)
  7772  0B58  160A  118A  2008   	fcall	_KeySend
              120A  158A         
  7773                           	
  7774  0B5D                     l7609:	
  7775  0B5D  306D               	movlw	(06Dh)
  7776  0B5E  1283               	bcf	status, 5	;RP0=0, select bank0
  7777  0B5F  1303               	bcf	status, 6	;RP1=0, select bank0
  7778  0B60  00B3               	movwf	(??_main+0)+0
  7779  0B61  0833               	movf	(??_main+0)+0,w
  7780  0B62  00C1               	movwf	(_prevChar)
  7781                           	
  7782  0B63                     l7611:	
  7783  0B63  300A               	movlw	low(0Ah)
  7784  0B64  00BF               	movwf	(_counter)
  7785  0B65  3000               	movlw	high(0Ah)
  7786  0B66  00C0               	movwf	((_counter))+1
  7787  0B67  2FF8               	goto	l7865
  7788                           	line	425
  7789                           	
  7790  0B68                     l1225:	
  7791                           	
  7792  0B68                     l7613:	
  7793                           ;keyboard_and_mouse_in_a_glove.c: 425: else { KeySend('m'); prevChar='m'; counter = 10; 
                                 }
  7794  0B68  306D               	movlw	(06Dh)
  7795  0B69  160A  118A  2008   	fcall	_KeySend
              120A  158A         
  7796                           	
  7797  0B6E                     l7615:	
  7798  0B6E  306D               	movlw	(06Dh)
  7799  0B6F  1283               	bcf	status, 5	;RP0=0, select bank0
  7800  0B70  1303               	bcf	status, 6	;RP1=0, select bank0
  7801  0B71  00B3               	movwf	(??_main+0)+0
  7802  0B72  0833               	movf	(??_main+0)+0,w
  7803  0B73  00C1               	movwf	(_prevChar)
  7804                           	
  7805  0B74                     l7617:	
  7806  0B74  300A               	movlw	low(0Ah)
  7807  0B75  00BF               	movwf	(_counter)
  7808  0B76  3000               	movlw	high(0Ah)
  7809  0B77  00C0               	movwf	((_counter))+1
  7810  0B78  2FF8               	goto	l7865
  7811                           	
  7812  0B79                     l1226:	
  7813  0B79  2FF8               	goto	l7865
  7814                           	
  7815  0B7A                     l1224:	
  7816  0B7A  2FF8               	goto	l7865
  7817                           	
  7818  0B7B                     l1222:	
  7819  0B7B  2FF8               	goto	l7865
  7820                           	
  7821  0B7C                     l1220:	
  7822  0B7C  2FF8               	goto	l7865
  7823                           	
  7824  0B7D                     l1218:	
  7825                           	line	426
  7826                           ;keyboard_and_mouse_in_a_glove.c: 426: }
  7827  0B7D  2FF8               	goto	l7865
  7828                           	line	428
  7829                           	
  7830  0B7E                     l1204:	
  7831                           ;keyboard_and_mouse_in_a_glove.c: 428: else if( RB3!=0){
  7832  0B7E  1D86               	btfss	(51/8),(51)&7
  7833  0B7F  2B81               	goto	u10901
  7834  0B80  2B82               	goto	u10900
  7835  0B81                     u10901:
  7836  0B81  2C83               	goto	l1228
  7837  0B82                     u10900:
  7838                           	line	429
  7839                           	
  7840  0B82                     l7619:	
  7841                           ;keyboard_and_mouse_in_a_glove.c: 429: nop=1;
  7842  0B82  1579               	bsf	(_nop/8),(_nop)&7
  7843                           	line	432
  7844                           	
  7845  0B83                     l7621:	
  7846                           ;keyboard_and_mouse_in_a_glove.c: 432: _delay((unsigned long)((50)*(4000000/4000.0))); w
                                 hile(RC4!=0); _delay((unsigned long)((30)*(4000000/4000.0))); while(RC4!=0); _delay((uns
                                 igned long)((30)*(4000000/4000.0))); while(RC4!=0); _delay((unsigned long)((30)*(4000000
                                 /4000.0))); while(RC4!=0)
  7847                           	opt asmopt_off
  7848  0B83  3041               movlw	65
  7849  0B84  00B4               movwf	((??_main+0)+0+1),f
  7850  0B85  30EE               	movlw	238
  7851  0B86  00B3               movwf	((??_main+0)+0),f
  7852  0B87                     u12397:
  7853  0B87  0BB3               	decfsz	((??_main+0)+0),f
  7854  0B88  2B87               	goto	u12397
  7855  0B89  0BB4               	decfsz	((??_main+0)+0+1),f
  7856  0B8A  2B87               	goto	u12397
  7857  0B8B  0064               	clrwdt
  7858                           opt asmopt_on
  7859                           
  7860  0B8C  2B8D               	goto	l1229
  7861                           	
  7862  0B8D                     l1230:	
  7863                           	
  7864  0B8D                     l1229:	
  7865  0B8D  1283               	bcf	status, 5	;RP0=0, select bank0
  7866  0B8E  1303               	bcf	status, 6	;RP1=0, select bank0
  7867  0B8F  1A07               	btfsc	(60/8),(60)&7
  7868  0B90  2B92               	goto	u10911
  7869  0B91  2B93               	goto	u10910
  7870  0B92                     u10911:
  7871  0B92  2B8D               	goto	l1229
  7872  0B93                     u10910:
  7873  0B93  2B94               	goto	l7623
  7874                           	
  7875  0B94                     l1231:	
  7876                           	
  7877  0B94                     l7623:	
  7878                           	opt asmopt_off
  7879  0B94  3027               movlw	39
  7880  0B95  00B4               movwf	((??_main+0)+0+1),f
  7881  0B96  30F5               	movlw	245
  7882  0B97  00B3               movwf	((??_main+0)+0),f
  7883  0B98                     u12407:
  7884  0B98  0BB3               	decfsz	((??_main+0)+0),f
  7885  0B99  2B98               	goto	u12407
  7886  0B9A  0BB4               	decfsz	((??_main+0)+0+1),f
  7887  0B9B  2B98               	goto	u12407
  7888                           opt asmopt_on
  7889                           
  7890  0B9C  2B9D               	goto	l1232
  7891                           	
  7892  0B9D                     l1233:	
  7893                           	
  7894  0B9D                     l1232:	
  7895  0B9D  1283               	bcf	status, 5	;RP0=0, select bank0
  7896  0B9E  1303               	bcf	status, 6	;RP1=0, select bank0
  7897  0B9F  1A07               	btfsc	(60/8),(60)&7
  7898  0BA0  2BA2               	goto	u10921
  7899  0BA1  2BA3               	goto	u10920
  7900  0BA2                     u10921:
  7901  0BA2  2B9D               	goto	l1232
  7902  0BA3                     u10920:
  7903  0BA3  2BA4               	goto	l7625
  7904                           	
  7905  0BA4                     l1234:	
  7906                           	
  7907  0BA4                     l7625:	
  7908                           	opt asmopt_off
  7909  0BA4  3027               movlw	39
  7910  0BA5  00B4               movwf	((??_main+0)+0+1),f
  7911  0BA6  30F5               	movlw	245
  7912  0BA7  00B3               movwf	((??_main+0)+0),f
  7913  0BA8                     u12417:
  7914  0BA8  0BB3               	decfsz	((??_main+0)+0),f
  7915  0BA9  2BA8               	goto	u12417
  7916  0BAA  0BB4               	decfsz	((??_main+0)+0+1),f
  7917  0BAB  2BA8               	goto	u12417
  7918                           opt asmopt_on
  7919                           
  7920  0BAC  2BAD               	goto	l1235
  7921                           	
  7922  0BAD                     l1236:	
  7923                           	
  7924  0BAD                     l1235:	
  7925  0BAD  1283               	bcf	status, 5	;RP0=0, select bank0
  7926  0BAE  1303               	bcf	status, 6	;RP1=0, select bank0
  7927  0BAF  1A07               	btfsc	(60/8),(60)&7
  7928  0BB0  2BB2               	goto	u10931
  7929  0BB1  2BB3               	goto	u10930
  7930  0BB2                     u10931:
  7931  0BB2  2BAD               	goto	l1235
  7932  0BB3                     u10930:
  7933  0BB3  2BB4               	goto	l7627
  7934                           	
  7935  0BB4                     l1237:	
  7936                           	
  7937  0BB4                     l7627:	
  7938                           	opt asmopt_off
  7939  0BB4  3027               movlw	39
  7940  0BB5  00B4               movwf	((??_main+0)+0+1),f
  7941  0BB6  30F5               	movlw	245
  7942  0BB7  00B3               movwf	((??_main+0)+0),f
  7943  0BB8                     u12427:
  7944  0BB8  0BB3               	decfsz	((??_main+0)+0),f
  7945  0BB9  2BB8               	goto	u12427
  7946  0BBA  0BB4               	decfsz	((??_main+0)+0+1),f
  7947  0BBB  2BB8               	goto	u12427
  7948                           opt asmopt_on
  7949                           
  7950  0BBC  2BBD               	goto	l1238
  7951                           	
  7952  0BBD                     l1239:	
  7953                           	
  7954  0BBD                     l1238:	
  7955  0BBD  1283               	bcf	status, 5	;RP0=0, select bank0
  7956  0BBE  1303               	bcf	status, 6	;RP1=0, select bank0
  7957  0BBF  1A07               	btfsc	(60/8),(60)&7
  7958  0BC0  2BC2               	goto	u10941
  7959  0BC1  2BC3               	goto	u10940
  7960  0BC2                     u10941:
  7961  0BC2  2BBD               	goto	l1238
  7962  0BC3                     u10940:
  7963  0BC3  2BC4               	goto	l7629
  7964                           	
  7965  0BC4                     l1240:	
  7966                           	line	435
  7967                           	
  7968  0BC4                     l7629:	
  7969                           ;keyboard_and_mouse_in_a_glove.c: 435: if ( counter==0 ){ KeySend('p'); prevChar='p'; co
                                 unter = 10; }
  7970  0BC4  0840               	movf	((_counter+1)),w
  7971  0BC5  043F               	iorwf	((_counter)),w
  7972  0BC6  1D03               	skipz
  7973  0BC7  2BC9               	goto	u10951
  7974  0BC8  2BCA               	goto	u10950
  7975  0BC9                     u10951:
  7976  0BC9  2BDB               	goto	l7637
  7977  0BCA                     u10950:
  7978                           	
  7979  0BCA                     l7631:	
  7980  0BCA  3070               	movlw	(070h)
  7981  0BCB  160A  118A  2008   	fcall	_KeySend
              120A  158A         
  7982                           	
  7983  0BD0                     l7633:	
  7984  0BD0  3070               	movlw	(070h)
  7985  0BD1  1283               	bcf	status, 5	;RP0=0, select bank0
  7986  0BD2  1303               	bcf	status, 6	;RP1=0, select bank0
  7987  0BD3  00B3               	movwf	(??_main+0)+0
  7988  0BD4  0833               	movf	(??_main+0)+0,w
  7989  0BD5  00C1               	movwf	(_prevChar)
  7990                           	
  7991  0BD6                     l7635:	
  7992  0BD6  300A               	movlw	low(0Ah)
  7993  0BD7  00BF               	movwf	(_counter)
  7994  0BD8  3000               	movlw	high(0Ah)
  7995  0BD9  00C0               	movwf	((_counter))+1
  7996  0BDA  2FF8               	goto	l7865
  7997                           	line	436
  7998                           	
  7999  0BDB                     l1241:	
  8000                           	
  8001  0BDB                     l7637:	
  8002                           ;keyboard_and_mouse_in_a_glove.c: 436: else if( prevChar=='p' ){ KeySend('^'); KeySend('
                                 q'); prevChar='q'; counter = 10; }
  8003  0BDB  0841               	movf	(_prevChar),w
  8004  0BDC  3A70               	xorlw	070h
  8005  0BDD  1D03               	skipz
  8006  0BDE  2BE0               	goto	u10961
  8007  0BDF  2BE1               	goto	u10960
  8008  0BE0                     u10961:
  8009  0BE0  2BF8               	goto	l7645
  8010  0BE1                     u10960:
  8011                           	
  8012  0BE1                     l7639:	
  8013  0BE1  305E               	movlw	(05Eh)
  8014  0BE2  160A  118A  2008   	fcall	_KeySend
              120A  158A         
  8015  0BE7  3071               	movlw	(071h)
  8016  0BE8  160A  118A  2008   	fcall	_KeySend
              120A  158A         
  8017                           	
  8018  0BED                     l7641:	
  8019  0BED  3071               	movlw	(071h)
  8020  0BEE  1283               	bcf	status, 5	;RP0=0, select bank0
  8021  0BEF  1303               	bcf	status, 6	;RP1=0, select bank0
  8022  0BF0  00B3               	movwf	(??_main+0)+0
  8023  0BF1  0833               	movf	(??_main+0)+0,w
  8024  0BF2  00C1               	movwf	(_prevChar)
  8025                           	
  8026  0BF3                     l7643:	
  8027  0BF3  300A               	movlw	low(0Ah)
  8028  0BF4  00BF               	movwf	(_counter)
  8029  0BF5  3000               	movlw	high(0Ah)
  8030  0BF6  00C0               	movwf	((_counter))+1
  8031  0BF7  2FF8               	goto	l7865
  8032                           	line	437
  8033                           	
  8034  0BF8                     l1243:	
  8035                           	
  8036  0BF8                     l7645:	
  8037                           ;keyboard_and_mouse_in_a_glove.c: 437: else if( prevChar=='q' ){ KeySend('^'); KeySend('
                                 r'); prevChar='r'; counter = 10; }
  8038  0BF8  0841               	movf	(_prevChar),w
  8039  0BF9  3A71               	xorlw	071h
  8040  0BFA  1D03               	skipz
  8041  0BFB  2BFD               	goto	u10971
  8042  0BFC  2BFE               	goto	u10970
  8043  0BFD                     u10971:
  8044  0BFD  2C15               	goto	l7653
  8045  0BFE                     u10970:
  8046                           	
  8047  0BFE                     l7647:	
  8048  0BFE  305E               	movlw	(05Eh)
  8049  0BFF  160A  118A  2008   	fcall	_KeySend
              120A  158A         
  8050  0C04  3072               	movlw	(072h)
  8051  0C05  160A  118A  2008   	fcall	_KeySend
              120A  158A         
  8052                           	
  8053  0C0A                     l7649:	
  8054  0C0A  3072               	movlw	(072h)
  8055  0C0B  1283               	bcf	status, 5	;RP0=0, select bank0
  8056  0C0C  1303               	bcf	status, 6	;RP1=0, select bank0
  8057  0C0D  00B3               	movwf	(??_main+0)+0
  8058  0C0E  0833               	movf	(??_main+0)+0,w
  8059  0C0F  00C1               	movwf	(_prevChar)
  8060                           	
  8061  0C10                     l7651:	
  8062  0C10  300A               	movlw	low(0Ah)
  8063  0C11  00BF               	movwf	(_counter)
  8064  0C12  3000               	movlw	high(0Ah)
  8065  0C13  00C0               	movwf	((_counter))+1
  8066  0C14  2FF8               	goto	l7865
  8067                           	line	438
  8068                           	
  8069  0C15                     l1245:	
  8070                           	
  8071  0C15                     l7653:	
  8072                           ;keyboard_and_mouse_in_a_glove.c: 438: else if( prevChar=='r' ){ KeySend('^'); KeySend('
                                 s'); prevChar='s'; counter = 10; }
  8073  0C15  0841               	movf	(_prevChar),w
  8074  0C16  3A72               	xorlw	072h
  8075  0C17  1D03               	skipz
  8076  0C18  2C1A               	goto	u10981
  8077  0C19  2C1B               	goto	u10980
  8078  0C1A                     u10981:
  8079  0C1A  2C32               	goto	l7661
  8080  0C1B                     u10980:
  8081                           	
  8082  0C1B                     l7655:	
  8083  0C1B  305E               	movlw	(05Eh)
  8084  0C1C  160A  118A  2008   	fcall	_KeySend
              120A  158A         
  8085  0C21  3073               	movlw	(073h)
  8086  0C22  160A  118A  2008   	fcall	_KeySend
              120A  158A         
  8087                           	
  8088  0C27                     l7657:	
  8089  0C27  3073               	movlw	(073h)
  8090  0C28  1283               	bcf	status, 5	;RP0=0, select bank0
  8091  0C29  1303               	bcf	status, 6	;RP1=0, select bank0
  8092  0C2A  00B3               	movwf	(??_main+0)+0
  8093  0C2B  0833               	movf	(??_main+0)+0,w
  8094  0C2C  00C1               	movwf	(_prevChar)
  8095                           	
  8096  0C2D                     l7659:	
  8097  0C2D  300A               	movlw	low(0Ah)
  8098  0C2E  00BF               	movwf	(_counter)
  8099  0C2F  3000               	movlw	high(0Ah)
  8100  0C30  00C0               	movwf	((_counter))+1
  8101  0C31  2FF8               	goto	l7865
  8102                           	line	439
  8103                           	
  8104  0C32                     l1247:	
  8105                           	
  8106  0C32                     l7661:	
  8107                           ;keyboard_and_mouse_in_a_glove.c: 439: else if( prevChar=='s' ){ KeySend('^'); KeySend('
                                 7'); prevChar='7'; counter = 10; }
  8108  0C32  0841               	movf	(_prevChar),w
  8109  0C33  3A73               	xorlw	073h
  8110  0C34  1D03               	skipz
  8111  0C35  2C37               	goto	u10991
  8112  0C36  2C38               	goto	u10990
  8113  0C37                     u10991:
  8114  0C37  2C4F               	goto	l7669
  8115  0C38                     u10990:
  8116                           	
  8117  0C38                     l7663:	
  8118  0C38  305E               	movlw	(05Eh)
  8119  0C39  160A  118A  2008   	fcall	_KeySend
              120A  158A         
  8120  0C3E  3037               	movlw	(037h)
  8121  0C3F  160A  118A  2008   	fcall	_KeySend
              120A  158A         
  8122                           	
  8123  0C44                     l7665:	
  8124  0C44  3037               	movlw	(037h)
  8125  0C45  1283               	bcf	status, 5	;RP0=0, select bank0
  8126  0C46  1303               	bcf	status, 6	;RP1=0, select bank0
  8127  0C47  00B3               	movwf	(??_main+0)+0
  8128  0C48  0833               	movf	(??_main+0)+0,w
  8129  0C49  00C1               	movwf	(_prevChar)
  8130                           	
  8131  0C4A                     l7667:	
  8132  0C4A  300A               	movlw	low(0Ah)
  8133  0C4B  00BF               	movwf	(_counter)
  8134  0C4C  3000               	movlw	high(0Ah)
  8135  0C4D  00C0               	movwf	((_counter))+1
  8136  0C4E  2FF8               	goto	l7865
  8137                           	line	440
  8138                           	
  8139  0C4F                     l1249:	
  8140                           	
  8141  0C4F                     l7669:	
  8142                           ;keyboard_and_mouse_in_a_glove.c: 440: else if( prevChar=='7' ){ KeySend('^'); KeySend('
                                 p'); prevChar='p'; counter = 10; }
  8143  0C4F  0841               	movf	(_prevChar),w
  8144  0C50  3A37               	xorlw	037h
  8145  0C51  1D03               	skipz
  8146  0C52  2C54               	goto	u11001
  8147  0C53  2C55               	goto	u11000
  8148  0C54                     u11001:
  8149  0C54  2C6C               	goto	l7677
  8150  0C55                     u11000:
  8151                           	
  8152  0C55                     l7671:	
  8153  0C55  305E               	movlw	(05Eh)
  8154  0C56  160A  118A  2008   	fcall	_KeySend
              120A  158A         
  8155  0C5B  3070               	movlw	(070h)
  8156  0C5C  160A  118A  2008   	fcall	_KeySend
              120A  158A         
  8157                           	
  8158  0C61                     l7673:	
  8159  0C61  3070               	movlw	(070h)
  8160  0C62  1283               	bcf	status, 5	;RP0=0, select bank0
  8161  0C63  1303               	bcf	status, 6	;RP1=0, select bank0
  8162  0C64  00B3               	movwf	(??_main+0)+0
  8163  0C65  0833               	movf	(??_main+0)+0,w
  8164  0C66  00C1               	movwf	(_prevChar)
  8165                           	
  8166  0C67                     l7675:	
  8167  0C67  300A               	movlw	low(0Ah)
  8168  0C68  00BF               	movwf	(_counter)
  8169  0C69  3000               	movlw	high(0Ah)
  8170  0C6A  00C0               	movwf	((_counter))+1
  8171  0C6B  2FF8               	goto	l7865
  8172                           	line	441
  8173                           	
  8174  0C6C                     l1251:	
  8175                           	
  8176  0C6C                     l7677:	
  8177                           ;keyboard_and_mouse_in_a_glove.c: 441: else { KeySend('p'); prevChar='p'; counter = 10; 
                                 }
  8178  0C6C  3070               	movlw	(070h)
  8179  0C6D  160A  118A  2008   	fcall	_KeySend
              120A  158A         
  8180                           	
  8181  0C72                     l7679:	
  8182  0C72  3070               	movlw	(070h)
  8183  0C73  1283               	bcf	status, 5	;RP0=0, select bank0
  8184  0C74  1303               	bcf	status, 6	;RP1=0, select bank0
  8185  0C75  00B3               	movwf	(??_main+0)+0
  8186  0C76  0833               	movf	(??_main+0)+0,w
  8187  0C77  00C1               	movwf	(_prevChar)
  8188                           	
  8189  0C78                     l7681:	
  8190  0C78  300A               	movlw	low(0Ah)
  8191  0C79  00BF               	movwf	(_counter)
  8192  0C7A  3000               	movlw	high(0Ah)
  8193  0C7B  00C0               	movwf	((_counter))+1
  8194  0C7C  2FF8               	goto	l7865
  8195                           	
  8196  0C7D                     l1252:	
  8197  0C7D  2FF8               	goto	l7865
  8198                           	
  8199  0C7E                     l1250:	
  8200  0C7E  2FF8               	goto	l7865
  8201                           	
  8202  0C7F                     l1248:	
  8203  0C7F  2FF8               	goto	l7865
  8204                           	
  8205  0C80                     l1246:	
  8206  0C80  2FF8               	goto	l7865
  8207                           	
  8208  0C81                     l1244:	
  8209  0C81  2FF8               	goto	l7865
  8210                           	
  8211  0C82                     l1242:	
  8212                           	line	442
  8213                           ;keyboard_and_mouse_in_a_glove.c: 442: }
  8214  0C82  2FF8               	goto	l7865
  8215                           	line	444
  8216                           	
  8217  0C83                     l1228:	
  8218                           ;keyboard_and_mouse_in_a_glove.c: 444: else if( RD5!=0){
  8219  0C83  1E88               	btfss	(69/8),(69)&7
  8220  0C84  2C86               	goto	u11011
  8221  0C85  2C87               	goto	u11010
  8222  0C86                     u11011:
  8223  0C86  2D6A               	goto	l1254
  8224  0C87                     u11010:
  8225                           	line	445
  8226                           	
  8227  0C87                     l7683:	
  8228                           ;keyboard_and_mouse_in_a_glove.c: 445: nop=1;
  8229  0C87  1579               	bsf	(_nop/8),(_nop)&7
  8230                           	line	448
  8231                           	
  8232  0C88                     l7685:	
  8233                           ;keyboard_and_mouse_in_a_glove.c: 448: _delay((unsigned long)((50)*(4000000/4000.0))); w
                                 hile(RC4!=0); _delay((unsigned long)((30)*(4000000/4000.0))); while(RC4!=0); _delay((uns
                                 igned long)((30)*(4000000/4000.0))); while(RC4!=0); _delay((unsigned long)((30)*(4000000
                                 /4000.0))); while(RC4!=0)
  8234                           	opt asmopt_off
  8235  0C88  3041               movlw	65
  8236  0C89  00B4               movwf	((??_main+0)+0+1),f
  8237  0C8A  30EE               	movlw	238
  8238  0C8B  00B3               movwf	((??_main+0)+0),f
  8239  0C8C                     u12437:
  8240  0C8C  0BB3               	decfsz	((??_main+0)+0),f
  8241  0C8D  2C8C               	goto	u12437
  8242  0C8E  0BB4               	decfsz	((??_main+0)+0+1),f
  8243  0C8F  2C8C               	goto	u12437
  8244  0C90  0064               	clrwdt
  8245                           opt asmopt_on
  8246                           
  8247  0C91  2C92               	goto	l1255
  8248                           	
  8249  0C92                     l1256:	
  8250                           	
  8251  0C92                     l1255:	
  8252  0C92  1283               	bcf	status, 5	;RP0=0, select bank0
  8253  0C93  1303               	bcf	status, 6	;RP1=0, select bank0
  8254  0C94  1A07               	btfsc	(60/8),(60)&7
  8255  0C95  2C97               	goto	u11021
  8256  0C96  2C98               	goto	u11020
  8257  0C97                     u11021:
  8258  0C97  2C92               	goto	l1255
  8259  0C98                     u11020:
  8260  0C98  2C99               	goto	l7687
  8261                           	
  8262  0C99                     l1257:	
  8263                           	
  8264  0C99                     l7687:	
  8265                           	opt asmopt_off
  8266  0C99  3027               movlw	39
  8267  0C9A  00B4               movwf	((??_main+0)+0+1),f
  8268  0C9B  30F5               	movlw	245
  8269  0C9C  00B3               movwf	((??_main+0)+0),f
  8270  0C9D                     u12447:
  8271  0C9D  0BB3               	decfsz	((??_main+0)+0),f
  8272  0C9E  2C9D               	goto	u12447
  8273  0C9F  0BB4               	decfsz	((??_main+0)+0+1),f
  8274  0CA0  2C9D               	goto	u12447
  8275                           opt asmopt_on
  8276                           
  8277  0CA1  2CA2               	goto	l1258
  8278                           	
  8279  0CA2                     l1259:	
  8280                           	
  8281  0CA2                     l1258:	
  8282  0CA2  1283               	bcf	status, 5	;RP0=0, select bank0
  8283  0CA3  1303               	bcf	status, 6	;RP1=0, select bank0
  8284  0CA4  1A07               	btfsc	(60/8),(60)&7
  8285  0CA5  2CA7               	goto	u11031
  8286  0CA6  2CA8               	goto	u11030
  8287  0CA7                     u11031:
  8288  0CA7  2CA2               	goto	l1258
  8289  0CA8                     u11030:
  8290  0CA8  2CA9               	goto	l7689
  8291                           	
  8292  0CA9                     l1260:	
  8293                           	
  8294  0CA9                     l7689:	
  8295                           	opt asmopt_off
  8296  0CA9  3027               movlw	39
  8297  0CAA  00B4               movwf	((??_main+0)+0+1),f
  8298  0CAB  30F5               	movlw	245
  8299  0CAC  00B3               movwf	((??_main+0)+0),f
  8300  0CAD                     u12457:
  8301  0CAD  0BB3               	decfsz	((??_main+0)+0),f
  8302  0CAE  2CAD               	goto	u12457
  8303  0CAF  0BB4               	decfsz	((??_main+0)+0+1),f
  8304  0CB0  2CAD               	goto	u12457
  8305                           opt asmopt_on
  8306                           
  8307  0CB1  2CB2               	goto	l1261
  8308                           	
  8309  0CB2                     l1262:	
  8310                           	
  8311  0CB2                     l1261:	
  8312  0CB2  1283               	bcf	status, 5	;RP0=0, select bank0
  8313  0CB3  1303               	bcf	status, 6	;RP1=0, select bank0
  8314  0CB4  1A07               	btfsc	(60/8),(60)&7
  8315  0CB5  2CB7               	goto	u11041
  8316  0CB6  2CB8               	goto	u11040
  8317  0CB7                     u11041:
  8318  0CB7  2CB2               	goto	l1261
  8319  0CB8                     u11040:
  8320  0CB8  2CB9               	goto	l7691
  8321                           	
  8322  0CB9                     l1263:	
  8323                           	
  8324  0CB9                     l7691:	
  8325                           	opt asmopt_off
  8326  0CB9  3027               movlw	39
  8327  0CBA  00B4               movwf	((??_main+0)+0+1),f
  8328  0CBB  30F5               	movlw	245
  8329  0CBC  00B3               movwf	((??_main+0)+0),f
  8330  0CBD                     u12467:
  8331  0CBD  0BB3               	decfsz	((??_main+0)+0),f
  8332  0CBE  2CBD               	goto	u12467
  8333  0CBF  0BB4               	decfsz	((??_main+0)+0+1),f
  8334  0CC0  2CBD               	goto	u12467
  8335                           opt asmopt_on
  8336                           
  8337  0CC1  2CC2               	goto	l1264
  8338                           	
  8339  0CC2                     l1265:	
  8340                           	
  8341  0CC2                     l1264:	
  8342  0CC2  1283               	bcf	status, 5	;RP0=0, select bank0
  8343  0CC3  1303               	bcf	status, 6	;RP1=0, select bank0
  8344  0CC4  1A07               	btfsc	(60/8),(60)&7
  8345  0CC5  2CC7               	goto	u11051
  8346  0CC6  2CC8               	goto	u11050
  8347  0CC7                     u11051:
  8348  0CC7  2CC2               	goto	l1264
  8349  0CC8                     u11050:
  8350  0CC8  2CC9               	goto	l7693
  8351                           	
  8352  0CC9                     l1266:	
  8353                           	line	451
  8354                           	
  8355  0CC9                     l7693:	
  8356                           ;keyboard_and_mouse_in_a_glove.c: 451: if ( counter==0 ){ KeySend('t'); prevChar='t'; co
                                 unter = 10; }
  8357  0CC9  0840               	movf	((_counter+1)),w
  8358  0CCA  043F               	iorwf	((_counter)),w
  8359  0CCB  1D03               	skipz
  8360  0CCC  2CCE               	goto	u11061
  8361  0CCD  2CCF               	goto	u11060
  8362  0CCE                     u11061:
  8363  0CCE  2CE0               	goto	l7701
  8364  0CCF                     u11060:
  8365                           	
  8366  0CCF                     l7695:	
  8367  0CCF  3074               	movlw	(074h)
  8368  0CD0  160A  118A  2008   	fcall	_KeySend
              120A  158A         
  8369                           	
  8370  0CD5                     l7697:	
  8371  0CD5  3074               	movlw	(074h)
  8372  0CD6  1283               	bcf	status, 5	;RP0=0, select bank0
  8373  0CD7  1303               	bcf	status, 6	;RP1=0, select bank0
  8374  0CD8  00B3               	movwf	(??_main+0)+0
  8375  0CD9  0833               	movf	(??_main+0)+0,w
  8376  0CDA  00C1               	movwf	(_prevChar)
  8377                           	
  8378  0CDB                     l7699:	
  8379  0CDB  300A               	movlw	low(0Ah)
  8380  0CDC  00BF               	movwf	(_counter)
  8381  0CDD  3000               	movlw	high(0Ah)
  8382  0CDE  00C0               	movwf	((_counter))+1
  8383  0CDF  2FF8               	goto	l7865
  8384                           	line	452
  8385                           	
  8386  0CE0                     l1267:	
  8387                           	
  8388  0CE0                     l7701:	
  8389                           ;keyboard_and_mouse_in_a_glove.c: 452: else if( prevChar=='t' ){ KeySend('^'); KeySend('
                                 u'); prevChar='u'; counter = 10; }
  8390  0CE0  0841               	movf	(_prevChar),w
  8391  0CE1  3A74               	xorlw	074h
  8392  0CE2  1D03               	skipz
  8393  0CE3  2CE5               	goto	u11071
  8394  0CE4  2CE6               	goto	u11070
  8395  0CE5                     u11071:
  8396  0CE5  2CFD               	goto	l7709
  8397  0CE6                     u11070:
  8398                           	
  8399  0CE6                     l7703:	
  8400  0CE6  305E               	movlw	(05Eh)
  8401  0CE7  160A  118A  2008   	fcall	_KeySend
              120A  158A         
  8402  0CEC  3075               	movlw	(075h)
  8403  0CED  160A  118A  2008   	fcall	_KeySend
              120A  158A         
  8404                           	
  8405  0CF2                     l7705:	
  8406  0CF2  3075               	movlw	(075h)
  8407  0CF3  1283               	bcf	status, 5	;RP0=0, select bank0
  8408  0CF4  1303               	bcf	status, 6	;RP1=0, select bank0
  8409  0CF5  00B3               	movwf	(??_main+0)+0
  8410  0CF6  0833               	movf	(??_main+0)+0,w
  8411  0CF7  00C1               	movwf	(_prevChar)
  8412                           	
  8413  0CF8                     l7707:	
  8414  0CF8  300A               	movlw	low(0Ah)
  8415  0CF9  00BF               	movwf	(_counter)
  8416  0CFA  3000               	movlw	high(0Ah)
  8417  0CFB  00C0               	movwf	((_counter))+1
  8418  0CFC  2FF8               	goto	l7865
  8419                           	line	453
  8420                           	
  8421  0CFD                     l1269:	
  8422                           	
  8423  0CFD                     l7709:	
  8424                           ;keyboard_and_mouse_in_a_glove.c: 453: else if( prevChar=='u' ){ KeySend('^'); KeySend('
                                 v'); prevChar='v'; counter = 10; }
  8425  0CFD  0841               	movf	(_prevChar),w
  8426  0CFE  3A75               	xorlw	075h
  8427  0CFF  1D03               	skipz
  8428  0D00  2D02               	goto	u11081
  8429  0D01  2D03               	goto	u11080
  8430  0D02                     u11081:
  8431  0D02  2D1A               	goto	l7717
  8432  0D03                     u11080:
  8433                           	
  8434  0D03                     l7711:	
  8435  0D03  305E               	movlw	(05Eh)
  8436  0D04  160A  118A  2008   	fcall	_KeySend
              120A  158A         
  8437  0D09  3076               	movlw	(076h)
  8438  0D0A  160A  118A  2008   	fcall	_KeySend
              120A  158A         
  8439                           	
  8440  0D0F                     l7713:	
  8441  0D0F  3076               	movlw	(076h)
  8442  0D10  1283               	bcf	status, 5	;RP0=0, select bank0
  8443  0D11  1303               	bcf	status, 6	;RP1=0, select bank0
  8444  0D12  00B3               	movwf	(??_main+0)+0
  8445  0D13  0833               	movf	(??_main+0)+0,w
  8446  0D14  00C1               	movwf	(_prevChar)
  8447                           	
  8448  0D15                     l7715:	
  8449  0D15  300A               	movlw	low(0Ah)
  8450  0D16  00BF               	movwf	(_counter)
  8451  0D17  3000               	movlw	high(0Ah)
  8452  0D18  00C0               	movwf	((_counter))+1
  8453  0D19  2FF8               	goto	l7865
  8454                           	line	454
  8455                           	
  8456  0D1A                     l1271:	
  8457                           	
  8458  0D1A                     l7717:	
  8459                           ;keyboard_and_mouse_in_a_glove.c: 454: else if( prevChar=='v' ){ KeySend('^'); KeySend('
                                 8'); prevChar='8'; counter = 10; }
  8460  0D1A  0841               	movf	(_prevChar),w
  8461  0D1B  3A76               	xorlw	076h
  8462  0D1C  1D03               	skipz
  8463  0D1D  2D1F               	goto	u11091
  8464  0D1E  2D20               	goto	u11090
  8465  0D1F                     u11091:
  8466  0D1F  2D37               	goto	l7725
  8467  0D20                     u11090:
  8468                           	
  8469  0D20                     l7719:	
  8470  0D20  305E               	movlw	(05Eh)
  8471  0D21  160A  118A  2008   	fcall	_KeySend
              120A  158A         
  8472  0D26  3038               	movlw	(038h)
  8473  0D27  160A  118A  2008   	fcall	_KeySend
              120A  158A         
  8474                           	
  8475  0D2C                     l7721:	
  8476  0D2C  3038               	movlw	(038h)
  8477  0D2D  1283               	bcf	status, 5	;RP0=0, select bank0
  8478  0D2E  1303               	bcf	status, 6	;RP1=0, select bank0
  8479  0D2F  00B3               	movwf	(??_main+0)+0
  8480  0D30  0833               	movf	(??_main+0)+0,w
  8481  0D31  00C1               	movwf	(_prevChar)
  8482                           	
  8483  0D32                     l7723:	
  8484  0D32  300A               	movlw	low(0Ah)
  8485  0D33  00BF               	movwf	(_counter)
  8486  0D34  3000               	movlw	high(0Ah)
  8487  0D35  00C0               	movwf	((_counter))+1
  8488  0D36  2FF8               	goto	l7865
  8489                           	line	455
  8490                           	
  8491  0D37                     l1273:	
  8492                           	
  8493  0D37                     l7725:	
  8494                           ;keyboard_and_mouse_in_a_glove.c: 455: else if( prevChar=='8' ){ KeySend('^'); KeySend('
                                 t'); prevChar='t'; counter = 10; }
  8495  0D37  0841               	movf	(_prevChar),w
  8496  0D38  3A38               	xorlw	038h
  8497  0D39  1D03               	skipz
  8498  0D3A  2D3C               	goto	u11101
  8499  0D3B  2D3D               	goto	u11100
  8500  0D3C                     u11101:
  8501  0D3C  2D54               	goto	l7733
  8502  0D3D                     u11100:
  8503                           	
  8504  0D3D                     l7727:	
  8505  0D3D  305E               	movlw	(05Eh)
  8506  0D3E  160A  118A  2008   	fcall	_KeySend
              120A  158A         
  8507  0D43  3074               	movlw	(074h)
  8508  0D44  160A  118A  2008   	fcall	_KeySend
              120A  158A         
  8509                           	
  8510  0D49                     l7729:	
  8511  0D49  3074               	movlw	(074h)
  8512  0D4A  1283               	bcf	status, 5	;RP0=0, select bank0
  8513  0D4B  1303               	bcf	status, 6	;RP1=0, select bank0
  8514  0D4C  00B3               	movwf	(??_main+0)+0
  8515  0D4D  0833               	movf	(??_main+0)+0,w
  8516  0D4E  00C1               	movwf	(_prevChar)
  8517                           	
  8518  0D4F                     l7731:	
  8519  0D4F  300A               	movlw	low(0Ah)
  8520  0D50  00BF               	movwf	(_counter)
  8521  0D51  3000               	movlw	high(0Ah)
  8522  0D52  00C0               	movwf	((_counter))+1
  8523  0D53  2FF8               	goto	l7865
  8524                           	line	456
  8525                           	
  8526  0D54                     l1275:	
  8527                           	
  8528  0D54                     l7733:	
  8529                           ;keyboard_and_mouse_in_a_glove.c: 456: else { KeySend('t'); prevChar='t'; counter = 10; 
                                 }
  8530  0D54  3074               	movlw	(074h)
  8531  0D55  160A  118A  2008   	fcall	_KeySend
              120A  158A         
  8532                           	
  8533  0D5A                     l7735:	
  8534  0D5A  3074               	movlw	(074h)
  8535  0D5B  1283               	bcf	status, 5	;RP0=0, select bank0
  8536  0D5C  1303               	bcf	status, 6	;RP1=0, select bank0
  8537  0D5D  00B3               	movwf	(??_main+0)+0
  8538  0D5E  0833               	movf	(??_main+0)+0,w
  8539  0D5F  00C1               	movwf	(_prevChar)
  8540                           	
  8541  0D60                     l7737:	
  8542  0D60  300A               	movlw	low(0Ah)
  8543  0D61  00BF               	movwf	(_counter)
  8544  0D62  3000               	movlw	high(0Ah)
  8545  0D63  00C0               	movwf	((_counter))+1
  8546  0D64  2FF8               	goto	l7865
  8547                           	
  8548  0D65                     l1276:	
  8549  0D65  2FF8               	goto	l7865
  8550                           	
  8551  0D66                     l1274:	
  8552  0D66  2FF8               	goto	l7865
  8553                           	
  8554  0D67                     l1272:	
  8555  0D67  2FF8               	goto	l7865
  8556                           	
  8557  0D68                     l1270:	
  8558  0D68  2FF8               	goto	l7865
  8559                           	
  8560  0D69                     l1268:	
  8561                           	line	457
  8562                           ;keyboard_and_mouse_in_a_glove.c: 457: }
  8563  0D69  2FF8               	goto	l7865
  8564                           	line	459
  8565                           	
  8566  0D6A                     l1254:	
  8567                           ;keyboard_and_mouse_in_a_glove.c: 459: else if( RB1!=0 ){
  8568  0D6A  1C86               	btfss	(49/8),(49)&7
  8569  0D6B  2D6D               	goto	u11111
  8570  0D6C  2D6E               	goto	u11110
  8571  0D6D                     u11111:
  8572  0D6D  2E6F               	goto	l1278
  8573  0D6E                     u11110:
  8574                           	line	460
  8575                           	
  8576  0D6E                     l7739:	
  8577                           ;keyboard_and_mouse_in_a_glove.c: 460: nop=1;
  8578  0D6E  1579               	bsf	(_nop/8),(_nop)&7
  8579                           	line	463
  8580                           	
  8581  0D6F                     l7741:	
  8582                           ;keyboard_and_mouse_in_a_glove.c: 463: _delay((unsigned long)((50)*(4000000/4000.0))); w
                                 hile(RC4!=0); _delay((unsigned long)((30)*(4000000/4000.0))); while(RC4!=0); _delay((uns
                                 igned long)((30)*(4000000/4000.0))); while(RC4!=0); _delay((unsigned long)((30)*(4000000
                                 /4000.0))); while(RC4!=0)
  8583                           	opt asmopt_off
  8584  0D6F  3041               movlw	65
  8585  0D70  00B4               movwf	((??_main+0)+0+1),f
  8586  0D71  30EE               	movlw	238
  8587  0D72  00B3               movwf	((??_main+0)+0),f
  8588  0D73                     u12477:
  8589  0D73  0BB3               	decfsz	((??_main+0)+0),f
  8590  0D74  2D73               	goto	u12477
  8591  0D75  0BB4               	decfsz	((??_main+0)+0+1),f
  8592  0D76  2D73               	goto	u12477
  8593  0D77  0064               	clrwdt
  8594                           opt asmopt_on
  8595                           
  8596  0D78  2D79               	goto	l1279
  8597                           	
  8598  0D79                     l1280:	
  8599                           	
  8600  0D79                     l1279:	
  8601  0D79  1283               	bcf	status, 5	;RP0=0, select bank0
  8602  0D7A  1303               	bcf	status, 6	;RP1=0, select bank0
  8603  0D7B  1A07               	btfsc	(60/8),(60)&7
  8604  0D7C  2D7E               	goto	u11121
  8605  0D7D  2D7F               	goto	u11120
  8606  0D7E                     u11121:
  8607  0D7E  2D79               	goto	l1279
  8608  0D7F                     u11120:
  8609  0D7F  2D80               	goto	l7743
  8610                           	
  8611  0D80                     l1281:	
  8612                           	
  8613  0D80                     l7743:	
  8614                           	opt asmopt_off
  8615  0D80  3027               movlw	39
  8616  0D81  00B4               movwf	((??_main+0)+0+1),f
  8617  0D82  30F5               	movlw	245
  8618  0D83  00B3               movwf	((??_main+0)+0),f
  8619  0D84                     u12487:
  8620  0D84  0BB3               	decfsz	((??_main+0)+0),f
  8621  0D85  2D84               	goto	u12487
  8622  0D86  0BB4               	decfsz	((??_main+0)+0+1),f
  8623  0D87  2D84               	goto	u12487
  8624                           opt asmopt_on
  8625                           
  8626  0D88  2D89               	goto	l1282
  8627                           	
  8628  0D89                     l1283:	
  8629                           	
  8630  0D89                     l1282:	
  8631  0D89  1283               	bcf	status, 5	;RP0=0, select bank0
  8632  0D8A  1303               	bcf	status, 6	;RP1=0, select bank0
  8633  0D8B  1A07               	btfsc	(60/8),(60)&7
  8634  0D8C  2D8E               	goto	u11131
  8635  0D8D  2D8F               	goto	u11130
  8636  0D8E                     u11131:
  8637  0D8E  2D89               	goto	l1282
  8638  0D8F                     u11130:
  8639  0D8F  2D90               	goto	l7745
  8640                           	
  8641  0D90                     l1284:	
  8642                           	
  8643  0D90                     l7745:	
  8644                           	opt asmopt_off
  8645  0D90  3027               movlw	39
  8646  0D91  00B4               movwf	((??_main+0)+0+1),f
  8647  0D92  30F5               	movlw	245
  8648  0D93  00B3               movwf	((??_main+0)+0),f
  8649  0D94                     u12497:
  8650  0D94  0BB3               	decfsz	((??_main+0)+0),f
  8651  0D95  2D94               	goto	u12497
  8652  0D96  0BB4               	decfsz	((??_main+0)+0+1),f
  8653  0D97  2D94               	goto	u12497
  8654                           opt asmopt_on
  8655                           
  8656  0D98  2D99               	goto	l1285
  8657                           	
  8658  0D99                     l1286:	
  8659                           	
  8660  0D99                     l1285:	
  8661  0D99  1283               	bcf	status, 5	;RP0=0, select bank0
  8662  0D9A  1303               	bcf	status, 6	;RP1=0, select bank0
  8663  0D9B  1A07               	btfsc	(60/8),(60)&7
  8664  0D9C  2D9E               	goto	u11141
  8665  0D9D  2D9F               	goto	u11140
  8666  0D9E                     u11141:
  8667  0D9E  2D99               	goto	l1285
  8668  0D9F                     u11140:
  8669  0D9F  2DA0               	goto	l7747
  8670                           	
  8671  0DA0                     l1287:	
  8672                           	
  8673  0DA0                     l7747:	
  8674                           	opt asmopt_off
  8675  0DA0  3027               movlw	39
  8676  0DA1  00B4               movwf	((??_main+0)+0+1),f
  8677  0DA2  30F5               	movlw	245
  8678  0DA3  00B3               movwf	((??_main+0)+0),f
  8679  0DA4                     u12507:
  8680  0DA4  0BB3               	decfsz	((??_main+0)+0),f
  8681  0DA5  2DA4               	goto	u12507
  8682  0DA6  0BB4               	decfsz	((??_main+0)+0+1),f
  8683  0DA7  2DA4               	goto	u12507
  8684                           opt asmopt_on
  8685                           
  8686  0DA8  2DA9               	goto	l1288
  8687                           	
  8688  0DA9                     l1289:	
  8689                           	
  8690  0DA9                     l1288:	
  8691  0DA9  1283               	bcf	status, 5	;RP0=0, select bank0
  8692  0DAA  1303               	bcf	status, 6	;RP1=0, select bank0
  8693  0DAB  1A07               	btfsc	(60/8),(60)&7
  8694  0DAC  2DAE               	goto	u11151
  8695  0DAD  2DAF               	goto	u11150
  8696  0DAE                     u11151:
  8697  0DAE  2DA9               	goto	l1288
  8698  0DAF                     u11150:
  8699  0DAF  2DB0               	goto	l7749
  8700                           	
  8701  0DB0                     l1290:	
  8702                           	line	466
  8703                           	
  8704  0DB0                     l7749:	
  8705                           ;keyboard_and_mouse_in_a_glove.c: 466: if ( counter==0 ){ KeySend('w'); prevChar='w'; co
                                 unter = 10; }
  8706  0DB0  0840               	movf	((_counter+1)),w
  8707  0DB1  043F               	iorwf	((_counter)),w
  8708  0DB2  1D03               	skipz
  8709  0DB3  2DB5               	goto	u11161
  8710  0DB4  2DB6               	goto	u11160
  8711  0DB5                     u11161:
  8712  0DB5  2DC7               	goto	l7757
  8713  0DB6                     u11160:
  8714                           	
  8715  0DB6                     l7751:	
  8716  0DB6  3077               	movlw	(077h)
  8717  0DB7  160A  118A  2008   	fcall	_KeySend
              120A  158A         
  8718                           	
  8719  0DBC                     l7753:	
  8720  0DBC  3077               	movlw	(077h)
  8721  0DBD  1283               	bcf	status, 5	;RP0=0, select bank0
  8722  0DBE  1303               	bcf	status, 6	;RP1=0, select bank0
  8723  0DBF  00B3               	movwf	(??_main+0)+0
  8724  0DC0  0833               	movf	(??_main+0)+0,w
  8725  0DC1  00C1               	movwf	(_prevChar)
  8726                           	
  8727  0DC2                     l7755:	
  8728  0DC2  300A               	movlw	low(0Ah)
  8729  0DC3  00BF               	movwf	(_counter)
  8730  0DC4  3000               	movlw	high(0Ah)
  8731  0DC5  00C0               	movwf	((_counter))+1
  8732  0DC6  2FF8               	goto	l7865
  8733                           	line	467
  8734                           	
  8735  0DC7                     l1291:	
  8736                           	
  8737  0DC7                     l7757:	
  8738                           ;keyboard_and_mouse_in_a_glove.c: 467: else if( prevChar=='w' ){ KeySend('^'); KeySend('
                                 x'); prevChar='x'; counter = 10; }
  8739  0DC7  0841               	movf	(_prevChar),w
  8740  0DC8  3A77               	xorlw	077h
  8741  0DC9  1D03               	skipz
  8742  0DCA  2DCC               	goto	u11171
  8743  0DCB  2DCD               	goto	u11170
  8744  0DCC                     u11171:
  8745  0DCC  2DE4               	goto	l7765
  8746  0DCD                     u11170:
  8747                           	
  8748  0DCD                     l7759:	
  8749  0DCD  305E               	movlw	(05Eh)
  8750  0DCE  160A  118A  2008   	fcall	_KeySend
              120A  158A         
  8751  0DD3  3078               	movlw	(078h)
  8752  0DD4  160A  118A  2008   	fcall	_KeySend
              120A  158A         
  8753                           	
  8754  0DD9                     l7761:	
  8755  0DD9  3078               	movlw	(078h)
  8756  0DDA  1283               	bcf	status, 5	;RP0=0, select bank0
  8757  0DDB  1303               	bcf	status, 6	;RP1=0, select bank0
  8758  0DDC  00B3               	movwf	(??_main+0)+0
  8759  0DDD  0833               	movf	(??_main+0)+0,w
  8760  0DDE  00C1               	movwf	(_prevChar)
  8761                           	
  8762  0DDF                     l7763:	
  8763  0DDF  300A               	movlw	low(0Ah)
  8764  0DE0  00BF               	movwf	(_counter)
  8765  0DE1  3000               	movlw	high(0Ah)
  8766  0DE2  00C0               	movwf	((_counter))+1
  8767  0DE3  2FF8               	goto	l7865
  8768                           	line	468
  8769                           	
  8770  0DE4                     l1293:	
  8771                           	
  8772  0DE4                     l7765:	
  8773                           ;keyboard_and_mouse_in_a_glove.c: 468: else if( prevChar=='x' ){ KeySend('^'); KeySend('
                                 y'); prevChar='y'; counter = 10; }
  8774  0DE4  0841               	movf	(_prevChar),w
  8775  0DE5  3A78               	xorlw	078h
  8776  0DE6  1D03               	skipz
  8777  0DE7  2DE9               	goto	u11181
  8778  0DE8  2DEA               	goto	u11180
  8779  0DE9                     u11181:
  8780  0DE9  2E01               	goto	l7773
  8781  0DEA                     u11180:
  8782                           	
  8783  0DEA                     l7767:	
  8784  0DEA  305E               	movlw	(05Eh)
  8785  0DEB  160A  118A  2008   	fcall	_KeySend
              120A  158A         
  8786  0DF0  3079               	movlw	(079h)
  8787  0DF1  160A  118A  2008   	fcall	_KeySend
              120A  158A         
  8788                           	
  8789  0DF6                     l7769:	
  8790  0DF6  3079               	movlw	(079h)
  8791  0DF7  1283               	bcf	status, 5	;RP0=0, select bank0
  8792  0DF8  1303               	bcf	status, 6	;RP1=0, select bank0
  8793  0DF9  00B3               	movwf	(??_main+0)+0
  8794  0DFA  0833               	movf	(??_main+0)+0,w
  8795  0DFB  00C1               	movwf	(_prevChar)
  8796                           	
  8797  0DFC                     l7771:	
  8798  0DFC  300A               	movlw	low(0Ah)
  8799  0DFD  00BF               	movwf	(_counter)
  8800  0DFE  3000               	movlw	high(0Ah)
  8801  0DFF  00C0               	movwf	((_counter))+1
  8802  0E00  2FF8               	goto	l7865
  8803                           	line	469
  8804                           	
  8805  0E01                     l1295:	
  8806                           	
  8807  0E01                     l7773:	
  8808                           ;keyboard_and_mouse_in_a_glove.c: 469: else if( prevChar=='y' ){ KeySend('^'); KeySend('
                                 z'); prevChar='z'; counter = 10; }
  8809  0E01  0841               	movf	(_prevChar),w
  8810  0E02  3A79               	xorlw	079h
  8811  0E03  1D03               	skipz
  8812  0E04  2E06               	goto	u11191
  8813  0E05  2E07               	goto	u11190
  8814  0E06                     u11191:
  8815  0E06  2E1E               	goto	l7781
  8816  0E07                     u11190:
  8817                           	
  8818  0E07                     l7775:	
  8819  0E07  305E               	movlw	(05Eh)
  8820  0E08  160A  118A  2008   	fcall	_KeySend
              120A  158A         
  8821  0E0D  307A               	movlw	(07Ah)
  8822  0E0E  160A  118A  2008   	fcall	_KeySend
              120A  158A         
  8823                           	
  8824  0E13                     l7777:	
  8825  0E13  307A               	movlw	(07Ah)
  8826  0E14  1283               	bcf	status, 5	;RP0=0, select bank0
  8827  0E15  1303               	bcf	status, 6	;RP1=0, select bank0
  8828  0E16  00B3               	movwf	(??_main+0)+0
  8829  0E17  0833               	movf	(??_main+0)+0,w
  8830  0E18  00C1               	movwf	(_prevChar)
  8831                           	
  8832  0E19                     l7779:	
  8833  0E19  300A               	movlw	low(0Ah)
  8834  0E1A  00BF               	movwf	(_counter)
  8835  0E1B  3000               	movlw	high(0Ah)
  8836  0E1C  00C0               	movwf	((_counter))+1
  8837  0E1D  2FF8               	goto	l7865
  8838                           	line	470
  8839                           	
  8840  0E1E                     l1297:	
  8841                           	
  8842  0E1E                     l7781:	
  8843                           ;keyboard_and_mouse_in_a_glove.c: 470: else if( prevChar=='z' ){ KeySend('^'); KeySend('
                                 9'); prevChar='9'; counter = 10; }
  8844  0E1E  0841               	movf	(_prevChar),w
  8845  0E1F  3A7A               	xorlw	07Ah
  8846  0E20  1D03               	skipz
  8847  0E21  2E23               	goto	u11201
  8848  0E22  2E24               	goto	u11200
  8849  0E23                     u11201:
  8850  0E23  2E3B               	goto	l7789
  8851  0E24                     u11200:
  8852                           	
  8853  0E24                     l7783:	
  8854  0E24  305E               	movlw	(05Eh)
  8855  0E25  160A  118A  2008   	fcall	_KeySend
              120A  158A         
  8856  0E2A  3039               	movlw	(039h)
  8857  0E2B  160A  118A  2008   	fcall	_KeySend
              120A  158A         
  8858                           	
  8859  0E30                     l7785:	
  8860  0E30  3039               	movlw	(039h)
  8861  0E31  1283               	bcf	status, 5	;RP0=0, select bank0
  8862  0E32  1303               	bcf	status, 6	;RP1=0, select bank0
  8863  0E33  00B3               	movwf	(??_main+0)+0
  8864  0E34  0833               	movf	(??_main+0)+0,w
  8865  0E35  00C1               	movwf	(_prevChar)
  8866                           	
  8867  0E36                     l7787:	
  8868  0E36  300A               	movlw	low(0Ah)
  8869  0E37  00BF               	movwf	(_counter)
  8870  0E38  3000               	movlw	high(0Ah)
  8871  0E39  00C0               	movwf	((_counter))+1
  8872  0E3A  2FF8               	goto	l7865
  8873                           	line	471
  8874                           	
  8875  0E3B                     l1299:	
  8876                           	
  8877  0E3B                     l7789:	
  8878                           ;keyboard_and_mouse_in_a_glove.c: 471: else if( prevChar=='9' ){ KeySend('^'); KeySend('
                                 w'); prevChar='w'; counter = 10; }
  8879  0E3B  0841               	movf	(_prevChar),w
  8880  0E3C  3A39               	xorlw	039h
  8881  0E3D  1D03               	skipz
  8882  0E3E  2E40               	goto	u11211
  8883  0E3F  2E41               	goto	u11210
  8884  0E40                     u11211:
  8885  0E40  2E58               	goto	l7797
  8886  0E41                     u11210:
  8887                           	
  8888  0E41                     l7791:	
  8889  0E41  305E               	movlw	(05Eh)
  8890  0E42  160A  118A  2008   	fcall	_KeySend
              120A  158A         
  8891  0E47  3077               	movlw	(077h)
  8892  0E48  160A  118A  2008   	fcall	_KeySend
              120A  158A         
  8893                           	
  8894  0E4D                     l7793:	
  8895  0E4D  3077               	movlw	(077h)
  8896  0E4E  1283               	bcf	status, 5	;RP0=0, select bank0
  8897  0E4F  1303               	bcf	status, 6	;RP1=0, select bank0
  8898  0E50  00B3               	movwf	(??_main+0)+0
  8899  0E51  0833               	movf	(??_main+0)+0,w
  8900  0E52  00C1               	movwf	(_prevChar)
  8901                           	
  8902  0E53                     l7795:	
  8903  0E53  300A               	movlw	low(0Ah)
  8904  0E54  00BF               	movwf	(_counter)
  8905  0E55  3000               	movlw	high(0Ah)
  8906  0E56  00C0               	movwf	((_counter))+1
  8907  0E57  2FF8               	goto	l7865
  8908                           	line	472
  8909                           	
  8910  0E58                     l1301:	
  8911                           	
  8912  0E58                     l7797:	
  8913                           ;keyboard_and_mouse_in_a_glove.c: 472: else { KeySend('w'); prevChar='w'; counter = 10; 
                                 }
  8914  0E58  3077               	movlw	(077h)
  8915  0E59  160A  118A  2008   	fcall	_KeySend
              120A  158A         
  8916                           	
  8917  0E5E                     l7799:	
  8918  0E5E  3077               	movlw	(077h)
  8919  0E5F  1283               	bcf	status, 5	;RP0=0, select bank0
  8920  0E60  1303               	bcf	status, 6	;RP1=0, select bank0
  8921  0E61  00B3               	movwf	(??_main+0)+0
  8922  0E62  0833               	movf	(??_main+0)+0,w
  8923  0E63  00C1               	movwf	(_prevChar)
  8924                           	
  8925  0E64                     l7801:	
  8926  0E64  300A               	movlw	low(0Ah)
  8927  0E65  00BF               	movwf	(_counter)
  8928  0E66  3000               	movlw	high(0Ah)
  8929  0E67  00C0               	movwf	((_counter))+1
  8930  0E68  2FF8               	goto	l7865
  8931                           	
  8932  0E69                     l1302:	
  8933  0E69  2FF8               	goto	l7865
  8934                           	
  8935  0E6A                     l1300:	
  8936  0E6A  2FF8               	goto	l7865
  8937                           	
  8938  0E6B                     l1298:	
  8939  0E6B  2FF8               	goto	l7865
  8940                           	
  8941  0E6C                     l1296:	
  8942  0E6C  2FF8               	goto	l7865
  8943                           	
  8944  0E6D                     l1294:	
  8945  0E6D  2FF8               	goto	l7865
  8946                           	
  8947  0E6E                     l1292:	
  8948                           	line	473
  8949                           ;keyboard_and_mouse_in_a_glove.c: 473: }
  8950  0E6E  2FF8               	goto	l7865
  8951                           	line	474
  8952                           	
  8953  0E6F                     l1278:	
  8954                           ;keyboard_and_mouse_in_a_glove.c: 474: else if( RC5!=0 ){
  8955  0E6F  1E87               	btfss	(61/8),(61)&7
  8956  0E70  2E72               	goto	u11221
  8957  0E71  2E73               	goto	u11220
  8958  0E72                     u11221:
  8959  0E72  2EBF               	goto	l1304
  8960  0E73                     u11220:
  8961                           	line	477
  8962                           	
  8963  0E73                     l7803:	
  8964                           ;keyboard_and_mouse_in_a_glove.c: 477: _delay((unsigned long)((50)*(4000000/4000.0))); w
                                 hile(RC4!=0); _delay((unsigned long)((30)*(4000000/4000.0))); while(RC4!=0); _delay((uns
                                 igned long)((30)*(4000000/4000.0))); while(RC4!=0); _delay((unsigned long)((30)*(4000000
                                 /4000.0))); while(RC4!=0)
  8965                           	opt asmopt_off
  8966  0E73  3041               movlw	65
  8967  0E74  00B4               movwf	((??_main+0)+0+1),f
  8968  0E75  30EE               	movlw	238
  8969  0E76  00B3               movwf	((??_main+0)+0),f
  8970  0E77                     u12517:
  8971  0E77  0BB3               	decfsz	((??_main+0)+0),f
  8972  0E78  2E77               	goto	u12517
  8973  0E79  0BB4               	decfsz	((??_main+0)+0+1),f
  8974  0E7A  2E77               	goto	u12517
  8975  0E7B  0064               	clrwdt
  8976                           opt asmopt_on
  8977                           
  8978  0E7C  2E7D               	goto	l1305
  8979                           	
  8980  0E7D                     l1306:	
  8981                           	
  8982  0E7D                     l1305:	
  8983  0E7D  1283               	bcf	status, 5	;RP0=0, select bank0
  8984  0E7E  1303               	bcf	status, 6	;RP1=0, select bank0
  8985  0E7F  1A07               	btfsc	(60/8),(60)&7
  8986  0E80  2E82               	goto	u11231
  8987  0E81  2E83               	goto	u11230
  8988  0E82                     u11231:
  8989  0E82  2E7D               	goto	l1305
  8990  0E83                     u11230:
  8991  0E83  2E84               	goto	l7805
  8992                           	
  8993  0E84                     l1307:	
  8994                           	
  8995  0E84                     l7805:	
  8996                           	opt asmopt_off
  8997  0E84  3027               movlw	39
  8998  0E85  00B4               movwf	((??_main+0)+0+1),f
  8999  0E86  30F5               	movlw	245
  9000  0E87  00B3               movwf	((??_main+0)+0),f
  9001  0E88                     u12527:
  9002  0E88  0BB3               	decfsz	((??_main+0)+0),f
  9003  0E89  2E88               	goto	u12527
  9004  0E8A  0BB4               	decfsz	((??_main+0)+0+1),f
  9005  0E8B  2E88               	goto	u12527
  9006                           opt asmopt_on
  9007                           
  9008  0E8C  2E8D               	goto	l1308
  9009                           	
  9010  0E8D                     l1309:	
  9011                           	
  9012  0E8D                     l1308:	
  9013  0E8D  1283               	bcf	status, 5	;RP0=0, select bank0
  9014  0E8E  1303               	bcf	status, 6	;RP1=0, select bank0
  9015  0E8F  1A07               	btfsc	(60/8),(60)&7
  9016  0E90  2E92               	goto	u11241
  9017  0E91  2E93               	goto	u11240
  9018  0E92                     u11241:
  9019  0E92  2E8D               	goto	l1308
  9020  0E93                     u11240:
  9021  0E93  2E94               	goto	l7807
  9022                           	
  9023  0E94                     l1310:	
  9024                           	
  9025  0E94                     l7807:	
  9026                           	opt asmopt_off
  9027  0E94  3027               movlw	39
  9028  0E95  00B4               movwf	((??_main+0)+0+1),f
  9029  0E96  30F5               	movlw	245
  9030  0E97  00B3               movwf	((??_main+0)+0),f
  9031  0E98                     u12537:
  9032  0E98  0BB3               	decfsz	((??_main+0)+0),f
  9033  0E99  2E98               	goto	u12537
  9034  0E9A  0BB4               	decfsz	((??_main+0)+0+1),f
  9035  0E9B  2E98               	goto	u12537
  9036                           opt asmopt_on
  9037                           
  9038  0E9C  2E9D               	goto	l1311
  9039                           	
  9040  0E9D                     l1312:	
  9041                           	
  9042  0E9D                     l1311:	
  9043  0E9D  1283               	bcf	status, 5	;RP0=0, select bank0
  9044  0E9E  1303               	bcf	status, 6	;RP1=0, select bank0
  9045  0E9F  1A07               	btfsc	(60/8),(60)&7
  9046  0EA0  2EA2               	goto	u11251
  9047  0EA1  2EA3               	goto	u11250
  9048  0EA2                     u11251:
  9049  0EA2  2E9D               	goto	l1311
  9050  0EA3                     u11250:
  9051  0EA3  2EA4               	goto	l7809
  9052                           	
  9053  0EA4                     l1313:	
  9054                           	
  9055  0EA4                     l7809:	
  9056                           	opt asmopt_off
  9057  0EA4  3027               movlw	39
  9058  0EA5  00B4               movwf	((??_main+0)+0+1),f
  9059  0EA6  30F5               	movlw	245
  9060  0EA7  00B3               movwf	((??_main+0)+0),f
  9061  0EA8                     u12547:
  9062  0EA8  0BB3               	decfsz	((??_main+0)+0),f
  9063  0EA9  2EA8               	goto	u12547
  9064  0EAA  0BB4               	decfsz	((??_main+0)+0+1),f
  9065  0EAB  2EA8               	goto	u12547
  9066                           opt asmopt_on
  9067                           
  9068  0EAC  2EAD               	goto	l1314
  9069                           	
  9070  0EAD                     l1315:	
  9071                           	
  9072  0EAD                     l1314:	
  9073  0EAD  1283               	bcf	status, 5	;RP0=0, select bank0
  9074  0EAE  1303               	bcf	status, 6	;RP1=0, select bank0
  9075  0EAF  1A07               	btfsc	(60/8),(60)&7
  9076  0EB0  2EB2               	goto	u11261
  9077  0EB1  2EB3               	goto	u11260
  9078  0EB2                     u11261:
  9079  0EB2  2EAD               	goto	l1314
  9080  0EB3                     u11260:
  9081                           	
  9082  0EB3                     l1316:	
  9083                           	line	479
  9084                           ;keyboard_and_mouse_in_a_glove.c: 479: MOUSE_SELECT = 1;
  9085  0EB3  14F9               	bsf	(_MOUSE_SELECT/8),(_MOUSE_SELECT)&7
  9086                           	line	480
  9087                           ;keyboard_and_mouse_in_a_glove.c: 480: RC1 = MOUSE_SELECT;
  9088  0EB4  18F9               	btfsc	(_MOUSE_SELECT/8),(_MOUSE_SELECT)&7
  9089  0EB5  2EB7               	goto	u11271
  9090  0EB6  2EBB               	goto	u11270
  9091                           	
  9092  0EB7                     u11271:
  9093  0EB7  1283               	bcf	status, 5	;RP0=0, select bank0
  9094  0EB8  1303               	bcf	status, 6	;RP1=0, select bank0
  9095  0EB9  1487               	bsf	(57/8),(57)&7
  9096  0EBA  2EBE               	goto	u11284
  9097  0EBB                     u11270:
  9098  0EBB  1283               	bcf	status, 5	;RP0=0, select bank0
  9099  0EBC  1303               	bcf	status, 6	;RP1=0, select bank0
  9100  0EBD  1087               	bcf	(57/8),(57)&7
  9101  0EBE                     u11284:
  9102                           	line	482
  9103                           ;keyboard_and_mouse_in_a_glove.c: 482: }
  9104  0EBE  2FF8               	goto	l7865
  9105                           	line	483
  9106                           	
  9107  0EBF                     l1304:	
  9108                           ;keyboard_and_mouse_in_a_glove.c: 483: else if( RD6!=0 ){
  9109  0EBF  1F08               	btfss	(70/8),(70)&7
  9110  0EC0  2EC2               	goto	u11291
  9111  0EC1  2EC3               	goto	u11290
  9112  0EC2                     u11291:
  9113  0EC2  2F3B               	goto	l1318
  9114  0EC3                     u11290:
  9115                           	line	484
  9116                           	
  9117  0EC3                     l7811:	
  9118                           ;keyboard_and_mouse_in_a_glove.c: 484: nop=1;
  9119  0EC3  1579               	bsf	(_nop/8),(_nop)&7
  9120                           	line	487
  9121                           	
  9122  0EC4                     l7813:	
  9123                           ;keyboard_and_mouse_in_a_glove.c: 487: _delay((unsigned long)((50)*(4000000/4000.0))); w
                                 hile(RC4!=0); _delay((unsigned long)((30)*(4000000/4000.0))); while(RC4!=0); _delay((uns
                                 igned long)((30)*(4000000/4000.0))); while(RC4!=0); _delay((unsigned long)((30)*(4000000
                                 /4000.0))); while(RC4!=0)
  9124                           	opt asmopt_off
  9125  0EC4  3041               movlw	65
  9126  0EC5  00B4               movwf	((??_main+0)+0+1),f
  9127  0EC6  30EE               	movlw	238
  9128  0EC7  00B3               movwf	((??_main+0)+0),f
  9129  0EC8                     u12557:
  9130  0EC8  0BB3               	decfsz	((??_main+0)+0),f
  9131  0EC9  2EC8               	goto	u12557
  9132  0ECA  0BB4               	decfsz	((??_main+0)+0+1),f
  9133  0ECB  2EC8               	goto	u12557
  9134  0ECC  0064               	clrwdt
  9135                           opt asmopt_on
  9136                           
  9137  0ECD  2ECE               	goto	l1319
  9138                           	
  9139  0ECE                     l1320:	
  9140                           	
  9141  0ECE                     l1319:	
  9142  0ECE  1283               	bcf	status, 5	;RP0=0, select bank0
  9143  0ECF  1303               	bcf	status, 6	;RP1=0, select bank0
  9144  0ED0  1A07               	btfsc	(60/8),(60)&7
  9145  0ED1  2ED3               	goto	u11301
  9146  0ED2  2ED4               	goto	u11300
  9147  0ED3                     u11301:
  9148  0ED3  2ECE               	goto	l1319
  9149  0ED4                     u11300:
  9150  0ED4  2ED5               	goto	l7815
  9151                           	
  9152  0ED5                     l1321:	
  9153                           	
  9154  0ED5                     l7815:	
  9155                           	opt asmopt_off
  9156  0ED5  3027               movlw	39
  9157  0ED6  00B4               movwf	((??_main+0)+0+1),f
  9158  0ED7  30F5               	movlw	245
  9159  0ED8  00B3               movwf	((??_main+0)+0),f
  9160  0ED9                     u12567:
  9161  0ED9  0BB3               	decfsz	((??_main+0)+0),f
  9162  0EDA  2ED9               	goto	u12567
  9163  0EDB  0BB4               	decfsz	((??_main+0)+0+1),f
  9164  0EDC  2ED9               	goto	u12567
  9165                           opt asmopt_on
  9166                           
  9167  0EDD  2EDE               	goto	l1322
  9168                           	
  9169  0EDE                     l1323:	
  9170                           	
  9171  0EDE                     l1322:	
  9172  0EDE  1283               	bcf	status, 5	;RP0=0, select bank0
  9173  0EDF  1303               	bcf	status, 6	;RP1=0, select bank0
  9174  0EE0  1A07               	btfsc	(60/8),(60)&7
  9175  0EE1  2EE3               	goto	u11311
  9176  0EE2  2EE4               	goto	u11310
  9177  0EE3                     u11311:
  9178  0EE3  2EDE               	goto	l1322
  9179  0EE4                     u11310:
  9180  0EE4  2EE5               	goto	l7817
  9181                           	
  9182  0EE5                     l1324:	
  9183                           	
  9184  0EE5                     l7817:	
  9185                           	opt asmopt_off
  9186  0EE5  3027               movlw	39
  9187  0EE6  00B4               movwf	((??_main+0)+0+1),f
  9188  0EE7  30F5               	movlw	245
  9189  0EE8  00B3               movwf	((??_main+0)+0),f
  9190  0EE9                     u12577:
  9191  0EE9  0BB3               	decfsz	((??_main+0)+0),f
  9192  0EEA  2EE9               	goto	u12577
  9193  0EEB  0BB4               	decfsz	((??_main+0)+0+1),f
  9194  0EEC  2EE9               	goto	u12577
  9195                           opt asmopt_on
  9196                           
  9197  0EED  2EEE               	goto	l1325
  9198                           	
  9199  0EEE                     l1326:	
  9200                           	
  9201  0EEE                     l1325:	
  9202  0EEE  1283               	bcf	status, 5	;RP0=0, select bank0
  9203  0EEF  1303               	bcf	status, 6	;RP1=0, select bank0
  9204  0EF0  1A07               	btfsc	(60/8),(60)&7
  9205  0EF1  2EF3               	goto	u11321
  9206  0EF2  2EF4               	goto	u11320
  9207  0EF3                     u11321:
  9208  0EF3  2EEE               	goto	l1325
  9209  0EF4                     u11320:
  9210  0EF4  2EF5               	goto	l7819
  9211                           	
  9212  0EF5                     l1327:	
  9213                           	
  9214  0EF5                     l7819:	
  9215                           	opt asmopt_off
  9216  0EF5  3027               movlw	39
  9217  0EF6  00B4               movwf	((??_main+0)+0+1),f
  9218  0EF7  30F5               	movlw	245
  9219  0EF8  00B3               movwf	((??_main+0)+0),f
  9220  0EF9                     u12587:
  9221  0EF9  0BB3               	decfsz	((??_main+0)+0),f
  9222  0EFA  2EF9               	goto	u12587
  9223  0EFB  0BB4               	decfsz	((??_main+0)+0+1),f
  9224  0EFC  2EF9               	goto	u12587
  9225                           opt asmopt_on
  9226                           
  9227  0EFD  2EFE               	goto	l1328
  9228                           	
  9229  0EFE                     l1329:	
  9230                           	
  9231  0EFE                     l1328:	
  9232  0EFE  1283               	bcf	status, 5	;RP0=0, select bank0
  9233  0EFF  1303               	bcf	status, 6	;RP1=0, select bank0
  9234  0F00  1A07               	btfsc	(60/8),(60)&7
  9235  0F01  2F03               	goto	u11331
  9236  0F02  2F04               	goto	u11330
  9237  0F03                     u11331:
  9238  0F03  2EFE               	goto	l1328
  9239  0F04                     u11330:
  9240  0F04  2F05               	goto	l7821
  9241                           	
  9242  0F05                     l1330:	
  9243                           	line	490
  9244                           	
  9245  0F05                     l7821:	
  9246                           ;keyboard_and_mouse_in_a_glove.c: 490: if ( counter==0 ){ KeySend('0'); prevChar='0'; co
                                 unter = 10; }
  9247  0F05  0840               	movf	((_counter+1)),w
  9248  0F06  043F               	iorwf	((_counter)),w
  9249  0F07  1D03               	skipz
  9250  0F08  2F0A               	goto	u11341
  9251  0F09  2F0B               	goto	u11340
  9252  0F0A                     u11341:
  9253  0F0A  2F1C               	goto	l7829
  9254  0F0B                     u11340:
  9255                           	
  9256  0F0B                     l7823:	
  9257  0F0B  3030               	movlw	(030h)
  9258  0F0C  160A  118A  2008   	fcall	_KeySend
              120A  158A         
  9259                           	
  9260  0F11                     l7825:	
  9261  0F11  3030               	movlw	(030h)
  9262  0F12  1283               	bcf	status, 5	;RP0=0, select bank0
  9263  0F13  1303               	bcf	status, 6	;RP1=0, select bank0
  9264  0F14  00B3               	movwf	(??_main+0)+0
  9265  0F15  0833               	movf	(??_main+0)+0,w
  9266  0F16  00C1               	movwf	(_prevChar)
  9267                           	
  9268  0F17                     l7827:	
  9269  0F17  300A               	movlw	low(0Ah)
  9270  0F18  00BF               	movwf	(_counter)
  9271  0F19  3000               	movlw	high(0Ah)
  9272  0F1A  00C0               	movwf	((_counter))+1
  9273  0F1B  2FF8               	goto	l7865
  9274                           	line	491
  9275                           	
  9276  0F1C                     l1331:	
  9277                           	
  9278  0F1C                     l7829:	
  9279                           ;keyboard_and_mouse_in_a_glove.c: 491: else if( prevChar=='0' ){ KeySend('^'); KeySend('
                                  '); prevChar=' '; counter = 10; }
  9280  0F1C  0841               	movf	(_prevChar),w
  9281  0F1D  3A30               	xorlw	030h
  9282  0F1E  1D03               	skipz
  9283  0F1F  2F21               	goto	u11351
  9284  0F20  2F22               	goto	u11350
  9285  0F21                     u11351:
  9286  0F21  2FF8               	goto	l7865
  9287  0F22                     u11350:
  9288                           	
  9289  0F22                     l7831:	
  9290  0F22  305E               	movlw	(05Eh)
  9291  0F23  160A  118A  2008   	fcall	_KeySend
              120A  158A         
  9292  0F28  3020               	movlw	(020h)
  9293  0F29  160A  118A  2008   	fcall	_KeySend
              120A  158A         
  9294                           	
  9295  0F2E                     l7833:	
  9296  0F2E  3020               	movlw	(020h)
  9297  0F2F  1283               	bcf	status, 5	;RP0=0, select bank0
  9298  0F30  1303               	bcf	status, 6	;RP1=0, select bank0
  9299  0F31  00B3               	movwf	(??_main+0)+0
  9300  0F32  0833               	movf	(??_main+0)+0,w
  9301  0F33  00C1               	movwf	(_prevChar)
  9302                           	
  9303  0F34                     l7835:	
  9304  0F34  300A               	movlw	low(0Ah)
  9305  0F35  00BF               	movwf	(_counter)
  9306  0F36  3000               	movlw	high(0Ah)
  9307  0F37  00C0               	movwf	((_counter))+1
  9308  0F38  2FF8               	goto	l7865
  9309                           	
  9310  0F39                     l1333:	
  9311  0F39  2FF8               	goto	l7865
  9312                           	line	492
  9313                           	
  9314  0F3A                     l1332:	
  9315                           ;keyboard_and_mouse_in_a_glove.c: 492: }
  9316  0F3A  2FF8               	goto	l7865
  9317                           	line	493
  9318                           	
  9319  0F3B                     l1318:	
  9320                           ;keyboard_and_mouse_in_a_glove.c: 493: else if( RB5!=0 ){
  9321  0F3B  1E86               	btfss	(53/8),(53)&7
  9322  0F3C  2F3E               	goto	u11361
  9323  0F3D  2F3F               	goto	u11360
  9324  0F3E                     u11361:
  9325  0F3E  2F98               	goto	l1335
  9326  0F3F                     u11360:
  9327                           	line	495
  9328                           	
  9329  0F3F                     l7837:	
  9330                           ;keyboard_and_mouse_in_a_glove.c: 495: _delay((unsigned long)((50)*(4000000/4000.0))); w
                                 hile(RC4!=0); _delay((unsigned long)((30)*(4000000/4000.0))); while(RC4!=0); _delay((uns
                                 igned long)((30)*(4000000/4000.0))); while(RC4!=0); _delay((unsigned long)((30)*(4000000
                                 /4000.0))); while(RC4!=0)
  9331                           	opt asmopt_off
  9332  0F3F  3041               movlw	65
  9333  0F40  00B4               movwf	((??_main+0)+0+1),f
  9334  0F41  30EE               	movlw	238
  9335  0F42  00B3               movwf	((??_main+0)+0),f
  9336  0F43                     u12597:
  9337  0F43  0BB3               	decfsz	((??_main+0)+0),f
  9338  0F44  2F43               	goto	u12597
  9339  0F45  0BB4               	decfsz	((??_main+0)+0+1),f
  9340  0F46  2F43               	goto	u12597
  9341  0F47  0064               	clrwdt
  9342                           opt asmopt_on
  9343                           
  9344  0F48  2F49               	goto	l1336
  9345                           	
  9346  0F49                     l1337:	
  9347                           	
  9348  0F49                     l1336:	
  9349  0F49  1283               	bcf	status, 5	;RP0=0, select bank0
  9350  0F4A  1303               	bcf	status, 6	;RP1=0, select bank0
  9351  0F4B  1A07               	btfsc	(60/8),(60)&7
  9352  0F4C  2F4E               	goto	u11371
  9353  0F4D  2F4F               	goto	u11370
  9354  0F4E                     u11371:
  9355  0F4E  2F49               	goto	l1336
  9356  0F4F                     u11370:
  9357  0F4F  2F50               	goto	l7839
  9358                           	
  9359  0F50                     l1338:	
  9360                           	
  9361  0F50                     l7839:	
  9362                           	opt asmopt_off
  9363  0F50  3027               movlw	39
  9364  0F51  00B4               movwf	((??_main+0)+0+1),f
  9365  0F52  30F5               	movlw	245
  9366  0F53  00B3               movwf	((??_main+0)+0),f
  9367  0F54                     u12607:
  9368  0F54  0BB3               	decfsz	((??_main+0)+0),f
  9369  0F55  2F54               	goto	u12607
  9370  0F56  0BB4               	decfsz	((??_main+0)+0+1),f
  9371  0F57  2F54               	goto	u12607
  9372                           opt asmopt_on
  9373                           
  9374  0F58  2F59               	goto	l1339
  9375                           	
  9376  0F59                     l1340:	
  9377                           	
  9378  0F59                     l1339:	
  9379  0F59  1283               	bcf	status, 5	;RP0=0, select bank0
  9380  0F5A  1303               	bcf	status, 6	;RP1=0, select bank0
  9381  0F5B  1A07               	btfsc	(60/8),(60)&7
  9382  0F5C  2F5E               	goto	u11381
  9383  0F5D  2F5F               	goto	u11380
  9384  0F5E                     u11381:
  9385  0F5E  2F59               	goto	l1339
  9386  0F5F                     u11380:
  9387  0F5F  2F60               	goto	l7841
  9388                           	
  9389  0F60                     l1341:	
  9390                           	
  9391  0F60                     l7841:	
  9392                           	opt asmopt_off
  9393  0F60  3027               movlw	39
  9394  0F61  00B4               movwf	((??_main+0)+0+1),f
  9395  0F62  30F5               	movlw	245
  9396  0F63  00B3               movwf	((??_main+0)+0),f
  9397  0F64                     u12617:
  9398  0F64  0BB3               	decfsz	((??_main+0)+0),f
  9399  0F65  2F64               	goto	u12617
  9400  0F66  0BB4               	decfsz	((??_main+0)+0+1),f
  9401  0F67  2F64               	goto	u12617
  9402                           opt asmopt_on
  9403                           
  9404  0F68  2F69               	goto	l1342
  9405                           	
  9406  0F69                     l1343:	
  9407                           	
  9408  0F69                     l1342:	
  9409  0F69  1283               	bcf	status, 5	;RP0=0, select bank0
  9410  0F6A  1303               	bcf	status, 6	;RP1=0, select bank0
  9411  0F6B  1A07               	btfsc	(60/8),(60)&7
  9412  0F6C  2F6E               	goto	u11391
  9413  0F6D  2F6F               	goto	u11390
  9414  0F6E                     u11391:
  9415  0F6E  2F69               	goto	l1342
  9416  0F6F                     u11390:
  9417  0F6F  2F70               	goto	l7843
  9418                           	
  9419  0F70                     l1344:	
  9420                           	
  9421  0F70                     l7843:	
  9422                           	opt asmopt_off
  9423  0F70  3027               movlw	39
  9424  0F71  00B4               movwf	((??_main+0)+0+1),f
  9425  0F72  30F5               	movlw	245
  9426  0F73  00B3               movwf	((??_main+0)+0),f
  9427  0F74                     u12627:
  9428  0F74  0BB3               	decfsz	((??_main+0)+0),f
  9429  0F75  2F74               	goto	u12627
  9430  0F76  0BB4               	decfsz	((??_main+0)+0+1),f
  9431  0F77  2F74               	goto	u12627
  9432                           opt asmopt_on
  9433                           
  9434  0F78  2F79               	goto	l1345
  9435                           	
  9436  0F79                     l1346:	
  9437                           	
  9438  0F79                     l1345:	
  9439  0F79  1283               	bcf	status, 5	;RP0=0, select bank0
  9440  0F7A  1303               	bcf	status, 6	;RP1=0, select bank0
  9441  0F7B  1A07               	btfsc	(60/8),(60)&7
  9442  0F7C  2F7E               	goto	u11401
  9443  0F7D  2F7F               	goto	u11400
  9444  0F7E                     u11401:
  9445  0F7E  2F79               	goto	l1345
  9446  0F7F                     u11400:
  9447  0F7F  2F80               	goto	l7845
  9448                           	
  9449  0F80                     l1347:	
  9450                           	line	498
  9451                           	
  9452  0F80                     l7845:	
  9453                           ;keyboard_and_mouse_in_a_glove.c: 498: if ( counter==0 ){ KeySend('^'); prevChar='^'; co
                                 unter = 10; }
  9454  0F80  0840               	movf	((_counter+1)),w
  9455  0F81  043F               	iorwf	((_counter)),w
  9456  0F82  1D03               	skipz
  9457  0F83  2F85               	goto	u11411
  9458  0F84  2F86               	goto	u11410
  9459  0F85                     u11411:
  9460  0F85  2FF8               	goto	l7865
  9461  0F86                     u11410:
  9462                           	
  9463  0F86                     l7847:	
  9464  0F86  305E               	movlw	(05Eh)
  9465  0F87  160A  118A  2008   	fcall	_KeySend
              120A  158A         
  9466                           	
  9467  0F8C                     l7849:	
  9468  0F8C  305E               	movlw	(05Eh)
  9469  0F8D  1283               	bcf	status, 5	;RP0=0, select bank0
  9470  0F8E  1303               	bcf	status, 6	;RP1=0, select bank0
  9471  0F8F  00B3               	movwf	(??_main+0)+0
  9472  0F90  0833               	movf	(??_main+0)+0,w
  9473  0F91  00C1               	movwf	(_prevChar)
  9474                           	
  9475  0F92                     l7851:	
  9476  0F92  300A               	movlw	low(0Ah)
  9477  0F93  00BF               	movwf	(_counter)
  9478  0F94  3000               	movlw	high(0Ah)
  9479  0F95  00C0               	movwf	((_counter))+1
  9480  0F96  2FF8               	goto	l7865
  9481                           	
  9482  0F97                     l1348:	
  9483                           	line	499
  9484                           ;keyboard_and_mouse_in_a_glove.c: 499: }
  9485  0F97  2FF8               	goto	l7865
  9486                           	line	500
  9487                           	
  9488  0F98                     l1335:	
  9489                           ;keyboard_and_mouse_in_a_glove.c: 500: else if( RC3!=0 ){
  9490  0F98  1D87               	btfss	(59/8),(59)&7
  9491  0F99  2F9B               	goto	u11421
  9492  0F9A  2F9C               	goto	u11420
  9493  0F9B                     u11421:
  9494  0F9B  2FF8               	goto	l7865
  9495  0F9C                     u11420:
  9496                           	line	503
  9497                           	
  9498  0F9C                     l7853:	
  9499                           ;keyboard_and_mouse_in_a_glove.c: 503: _delay((unsigned long)((50)*(4000000/4000.0))); w
                                 hile(RC4!=0); _delay((unsigned long)((30)*(4000000/4000.0))); while(RC4!=0); _delay((uns
                                 igned long)((30)*(4000000/4000.0))); while(RC4!=0); _delay((unsigned long)((30)*(4000000
                                 /4000.0))); while(RC4!=0)
  9500                           	opt asmopt_off
  9501  0F9C  3041               movlw	65
  9502  0F9D  00B4               movwf	((??_main+0)+0+1),f
  9503  0F9E  30EE               	movlw	238
  9504  0F9F  00B3               movwf	((??_main+0)+0),f
  9505  0FA0                     u12637:
  9506  0FA0  0BB3               	decfsz	((??_main+0)+0),f
  9507  0FA1  2FA0               	goto	u12637
  9508  0FA2  0BB4               	decfsz	((??_main+0)+0+1),f
  9509  0FA3  2FA0               	goto	u12637
  9510  0FA4  0064               	clrwdt
  9511                           opt asmopt_on
  9512                           
  9513  0FA5  2FA6               	goto	l1351
  9514                           	
  9515  0FA6                     l1352:	
  9516                           	
  9517  0FA6                     l1351:	
  9518  0FA6  1283               	bcf	status, 5	;RP0=0, select bank0
  9519  0FA7  1303               	bcf	status, 6	;RP1=0, select bank0
  9520  0FA8  1A07               	btfsc	(60/8),(60)&7
  9521  0FA9  2FAB               	goto	u11431
  9522  0FAA  2FAC               	goto	u11430
  9523  0FAB                     u11431:
  9524  0FAB  2FA6               	goto	l1351
  9525  0FAC                     u11430:
  9526  0FAC  2FAD               	goto	l7855
  9527                           	
  9528  0FAD                     l1353:	
  9529                           	
  9530  0FAD                     l7855:	
  9531                           	opt asmopt_off
  9532  0FAD  3027               movlw	39
  9533  0FAE  00B4               movwf	((??_main+0)+0+1),f
  9534  0FAF  30F5               	movlw	245
  9535  0FB0  00B3               movwf	((??_main+0)+0),f
  9536  0FB1                     u12647:
  9537  0FB1  0BB3               	decfsz	((??_main+0)+0),f
  9538  0FB2  2FB1               	goto	u12647
  9539  0FB3  0BB4               	decfsz	((??_main+0)+0+1),f
  9540  0FB4  2FB1               	goto	u12647
  9541                           opt asmopt_on
  9542                           
  9543  0FB5  2FB6               	goto	l1354
  9544                           	
  9545  0FB6                     l1355:	
  9546                           	
  9547  0FB6                     l1354:	
  9548  0FB6  1283               	bcf	status, 5	;RP0=0, select bank0
  9549  0FB7  1303               	bcf	status, 6	;RP1=0, select bank0
  9550  0FB8  1A07               	btfsc	(60/8),(60)&7
  9551  0FB9  2FBB               	goto	u11441
  9552  0FBA  2FBC               	goto	u11440
  9553  0FBB                     u11441:
  9554  0FBB  2FB6               	goto	l1354
  9555  0FBC                     u11440:
  9556  0FBC  2FBD               	goto	l7857
  9557                           	
  9558  0FBD                     l1356:	
  9559                           	
  9560  0FBD                     l7857:	
  9561                           	opt asmopt_off
  9562  0FBD  3027               movlw	39
  9563  0FBE  00B4               movwf	((??_main+0)+0+1),f
  9564  0FBF  30F5               	movlw	245
  9565  0FC0  00B3               movwf	((??_main+0)+0),f
  9566  0FC1                     u12657:
  9567  0FC1  0BB3               	decfsz	((??_main+0)+0),f
  9568  0FC2  2FC1               	goto	u12657
  9569  0FC3  0BB4               	decfsz	((??_main+0)+0+1),f
  9570  0FC4  2FC1               	goto	u12657
  9571                           opt asmopt_on
  9572                           
  9573  0FC5  2FC6               	goto	l1357
  9574                           	
  9575  0FC6                     l1358:	
  9576                           	
  9577  0FC6                     l1357:	
  9578  0FC6  1283               	bcf	status, 5	;RP0=0, select bank0
  9579  0FC7  1303               	bcf	status, 6	;RP1=0, select bank0
  9580  0FC8  1A07               	btfsc	(60/8),(60)&7
  9581  0FC9  2FCB               	goto	u11451
  9582  0FCA  2FCC               	goto	u11450
  9583  0FCB                     u11451:
  9584  0FCB  2FC6               	goto	l1357
  9585  0FCC                     u11450:
  9586  0FCC  2FCD               	goto	l7859
  9587                           	
  9588  0FCD                     l1359:	
  9589                           	
  9590  0FCD                     l7859:	
  9591                           	opt asmopt_off
  9592  0FCD  3027               movlw	39
  9593  0FCE  00B4               movwf	((??_main+0)+0+1),f
  9594  0FCF  30F5               	movlw	245
  9595  0FD0  00B3               movwf	((??_main+0)+0),f
  9596  0FD1                     u12667:
  9597  0FD1  0BB3               	decfsz	((??_main+0)+0),f
  9598  0FD2  2FD1               	goto	u12667
  9599  0FD3  0BB4               	decfsz	((??_main+0)+0+1),f
  9600  0FD4  2FD1               	goto	u12667
  9601                           opt asmopt_on
  9602                           
  9603  0FD5  2FD6               	goto	l1360
  9604                           	
  9605  0FD6                     l1361:	
  9606                           	
  9607  0FD6                     l1360:	
  9608  0FD6  1283               	bcf	status, 5	;RP0=0, select bank0
  9609  0FD7  1303               	bcf	status, 6	;RP1=0, select bank0
  9610  0FD8  1A07               	btfsc	(60/8),(60)&7
  9611  0FD9  2FDB               	goto	u11461
  9612  0FDA  2FDC               	goto	u11460
  9613  0FDB                     u11461:
  9614  0FDB  2FD6               	goto	l1360
  9615  0FDC                     u11460:
  9616  0FDC  2FDD               	goto	l7861
  9617                           	
  9618  0FDD                     l1362:	
  9619                           	line	507
  9620                           	
  9621  0FDD                     l7861:	
  9622                           ;keyboard_and_mouse_in_a_glove.c: 507: CAPSLOCK = !CAPSLOCK ;
  9623  0FDD  3001               	movlw	1<<((_CAPSLOCK)&7)
  9624  0FDE  06F9               	xorwf	((_CAPSLOCK)/8),f
  9625                           	line	508
  9626                           	
  9627  0FDF                     l7863:	
  9628                           ;keyboard_and_mouse_in_a_glove.c: 508: RC2 = CAPSLOCK;
  9629  0FDF  1879               	btfsc	(_CAPSLOCK/8),(_CAPSLOCK)&7
  9630  0FE0  2FE2               	goto	u11471
  9631  0FE1  2FE6               	goto	u11470
  9632                           	
  9633  0FE2                     u11471:
  9634  0FE2  1283               	bcf	status, 5	;RP0=0, select bank0
  9635  0FE3  1303               	bcf	status, 6	;RP1=0, select bank0
  9636  0FE4  1507               	bsf	(58/8),(58)&7
  9637  0FE5  2FE9               	goto	u11484
  9638  0FE6                     u11470:
  9639  0FE6  1283               	bcf	status, 5	;RP0=0, select bank0
  9640  0FE7  1303               	bcf	status, 6	;RP1=0, select bank0
  9641  0FE8  1107               	bcf	(58/8),(58)&7
  9642  0FE9                     u11484:
  9643  0FE9  2FF8               	goto	l7865
  9644                           	line	509
  9645                           	
  9646  0FEA                     l1350:	
  9647  0FEA  2FF8               	goto	l7865
  9648                           	line	510
  9649                           	
  9650  0FEB                     l1349:	
  9651  0FEB  2FF8               	goto	l7865
  9652                           	
  9653  0FEC                     l1334:	
  9654  0FEC  2FF8               	goto	l7865
  9655                           	
  9656  0FED                     l1317:	
  9657  0FED  2FF8               	goto	l7865
  9658                           	
  9659  0FEE                     l1303:	
  9660  0FEE  2FF8               	goto	l7865
  9661                           	
  9662  0FEF                     l1277:	
  9663  0FEF  2FF8               	goto	l7865
  9664                           	
  9665  0FF0                     l1253:	
  9666  0FF0  2FF8               	goto	l7865
  9667                           	
  9668  0FF1                     l1227:	
  9669  0FF1  2FF8               	goto	l7865
  9670                           	
  9671  0FF2                     l1203:	
  9672  0FF2  2FF8               	goto	l7865
  9673                           	
  9674  0FF3                     l1179:	
  9675  0FF3  2FF8               	goto	l7865
  9676                           	
  9677  0FF4                     l1155:	
  9678  0FF4  2FF8               	goto	l7865
  9679                           	
  9680  0FF5                     l1131:	
  9681  0FF5  2FF8               	goto	l7865
  9682                           	
  9683  0FF6                     l1107:	
  9684  0FF6  2FF8               	goto	l7865
  9685                           	
  9686  0FF7                     l1082:	
  9687  0FF7  2FF8               	goto	l7865
  9688                           	line	512
  9689                           	
  9690  0FF8                     l800:	
  9691                           	line	513
  9692                           	
  9693  0FF8                     l7865:	
  9694                           ;keyboard_and_mouse_in_a_glove.c: 509: }
  9695                           ;keyboard_and_mouse_in_a_glove.c: 510: }
  9696                           ;keyboard_and_mouse_in_a_glove.c: 512: }
  9697                           ;keyboard_and_mouse_in_a_glove.c: 513: nop=1;
  9698  0FF8  1579               	bsf	(_nop/8),(_nop)&7
  9699  0FF9  2FFA               	goto	l6623
  9700                           	line	514
  9701                           	
  9702  0FFA                     l1363:	
  9703                           	line	98
  9704  0FFA  160A  118A  2A10   	goto	l6623
  9705                           	
  9706  0FFD                     l1364:	
  9707                           	line	515
  9708                           	
  9709  0FFD                     l1365:	
  9710                           	global	start
  9711  0FFD  120A  118A  2812   	ljmp	start
  9712                           	opt stack 0
  9713                           GLOBAL	__end_of_main
  9714  1000                     	__end_of_main:
  9715 ;; =============== function _main ends ============
  9716                           
  9717                           	signat	_main,88
  9718                           	global	_a2d_read
  9719                           psect	text376,local,class=CODE,delta=2
  9720                           global __ptext376
  9721  103C                     __ptext376:
  9722                           
  9723 ;; *************** function _a2d_read *****************
  9724 ;; Defined at:
  9725 ;;		line 638 in file "F:\ELECTRONIC\2015\Projects\40. Mouse with keyboard\PGM\Keyboard and Mouse in a glove\ver3\keyboar
       d_and_mouse_in_a_glove.c"
  9726 ;; Parameters:    Size  Location     Type
  9727 ;;		None
  9728 ;; Auto vars:     Size  Location     Type
  9729 ;;		None
  9730 ;; Return value:  Size  Location     Type
  9731 ;;		None               void
  9732 ;; Registers used:
  9733 ;;		wreg, status,2, status,0, pclath, cstack
  9734 ;; Tracked objects:
  9735 ;;		On entry : 0/0
  9736 ;;		On exit  : 0/0
  9737 ;;		Unchanged: 0/0
  9738 ;; Data sizes:     COMMON   BANK0   BANK1   BANK3   BANK2
  9739 ;;      Params:         0       0       0       0       0
  9740 ;;      Locals:         0       0       0       0       0
  9741 ;;      Temps:          0       0       0       0       0
  9742 ;;      Totals:         0       0       0       0       0
  9743 ;;Total ram usage:        0 bytes
  9744 ;; Hardware stack levels used:    1
  9745 ;; Hardware stack levels required when called:    2
  9746 ;; This function calls:
  9747 ;;		_read_a2d_value
  9748 ;; This function is called by:
  9749 ;;		_main
  9750 ;; This function uses a non-reentrant model
  9751 ;;
  9752                           psect	text376
  9753                           	file	"F:\ELECTRONIC\2015\Projects\40. Mouse with keyboard\PGM\Keyboard and Mouse in a g
                                 love\ver3\keyboard_and_mouse_in_a_glove.c"
  9754                           	line	638
  9755                           	global	__size_of_a2d_read
  9756  007C                     	__size_of_a2d_read	equ	__end_of_a2d_read-_a2d_read
  9757                           	
  9758  103C                     _a2d_read:	
  9759                           	opt	stack 5
  9760                           ; Regs used in _a2d_read: [wreg+status,2+status,0+pclath+cstack]
  9761                           	line	639
  9762                           	
  9763  103C                     l6553:	
  9764                           ;keyboard_and_mouse_in_a_glove.c: 639: read_a2d_value(0);
  9765  103C  3000               	movlw	(0)
  9766  103D  160A  158A  270C   	fcall	_read_a2d_value
              160A  118A         
  9767                           	line	640
  9768                           ;keyboard_and_mouse_in_a_glove.c: 640: vblAccX = read_a2d_value(0);
  9769  1042  3000               	movlw	(0)
  9770  1043  160A  158A  270C   	fcall	_read_a2d_value
              160A  118A         
  9771  1048  1283               	bcf	status, 5	;RP0=0, select bank0
  9772  1049  1303               	bcf	status, 6	;RP1=0, select bank0
  9773  104A  0820               	movf	(0+(?_read_a2d_value)),w
  9774  104B  00B9               	movwf	(_vblAccX)
  9775  104C  0821               	movf	(1+(?_read_a2d_value)),w
  9776  104D  00BA               	movwf	(_vblAccX+1)
  9777  104E  01BB               	clrf	(_vblAccX+2)
  9778                           	line	641
  9779                           ;keyboard_and_mouse_in_a_glove.c: 641: read_a2d_value(1);
  9780  104F  3001               	movlw	(01h)
  9781  1050  160A  158A  270C   	fcall	_read_a2d_value
              160A  118A         
  9782                           	line	642
  9783                           ;keyboard_and_mouse_in_a_glove.c: 642: vblAccY = read_a2d_value(1);
  9784  1055  3001               	movlw	(01h)
  9785  1056  160A  158A  270C   	fcall	_read_a2d_value
              160A  118A         
  9786  105B  1283               	bcf	status, 5	;RP0=0, select bank0
  9787  105C  1303               	bcf	status, 6	;RP1=0, select bank0
  9788  105D  0820               	movf	(0+(?_read_a2d_value)),w
  9789  105E  00BC               	movwf	(_vblAccY)
  9790  105F  0821               	movf	(1+(?_read_a2d_value)),w
  9791  1060  00BD               	movwf	(_vblAccY+1)
  9792  1061  01BE               	clrf	(_vblAccY+2)
  9793                           	line	644
  9794                           	
  9795  1062                     l6555:	
  9796                           ;keyboard_and_mouse_in_a_glove.c: 644: if(vblAccX > 402) vblAccX = 402;
  9797  1062  3000               	movlw	0
  9798  1063  023B               	subwf	(_vblAccX+2),w
  9799  1064  1D03               	skipz
  9800  1065  286C               	goto	u8745
  9801  1066  3001               	movlw	01h
  9802  1067  023A               	subwf	(_vblAccX+1),w
  9803  1068  1D03               	skipz
  9804  1069  286C               	goto	u8745
  9805  106A  3093               	movlw	093h
  9806  106B  0239               	subwf	(_vblAccX),w
  9807  106C                     u8745:
  9808  106C  1C03               	skipc
  9809  106D  286F               	goto	u8741
  9810  106E  2870               	goto	u8740
  9811  106F                     u8741:
  9812  106F  2877               	goto	l6559
  9813  1070                     u8740:
  9814                           	
  9815  1070                     l6557:	
  9816  1070  3092               	movlw	092h
  9817  1071  00B9               	movwf	(_vblAccX)
  9818  1072  3001               	movlw	01h
  9819  1073  00BA               	movwf	(_vblAccX+1)
  9820  1074  3000               	movlw	0
  9821  1075  00BB               	movwf	(_vblAccX+2)
  9822  1076  288C               	goto	l1465
  9823                           	line	645
  9824                           	
  9825  1077                     l1464:	
  9826                           	
  9827  1077                     l6559:	
  9828                           ;keyboard_and_mouse_in_a_glove.c: 645: else if ( vblAccX < 262) vblAccX = 262;
  9829  1077  3000               	movlw	0
  9830  1078  023B               	subwf	(_vblAccX+2),w
  9831  1079  1D03               	skipz
  9832  107A  2881               	goto	u8755
  9833  107B  3001               	movlw	01h
  9834  107C  023A               	subwf	(_vblAccX+1),w
  9835  107D  1D03               	skipz
  9836  107E  2881               	goto	u8755
  9837  107F  3006               	movlw	06h
  9838  1080  0239               	subwf	(_vblAccX),w
  9839  1081                     u8755:
  9840  1081  1803               	skipnc
  9841  1082  2884               	goto	u8751
  9842  1083  2885               	goto	u8750
  9843  1084                     u8751:
  9844  1084  288C               	goto	l1465
  9845  1085                     u8750:
  9846                           	
  9847  1085                     l6561:	
  9848  1085  3006               	movlw	06h
  9849  1086  00B9               	movwf	(_vblAccX)
  9850  1087  3001               	movlw	01h
  9851  1088  00BA               	movwf	(_vblAccX+1)
  9852  1089  3000               	movlw	0
  9853  108A  00BB               	movwf	(_vblAccX+2)
  9854  108B  288C               	goto	l1465
  9855                           	
  9856  108C                     l1466:	
  9857                           	line	646
  9858                           	
  9859  108C                     l1465:	
  9860                           ;keyboard_and_mouse_in_a_glove.c: 646: if(vblAccY > 406) vblAccY = 406;
  9861  108C  3000               	movlw	0
  9862  108D  023E               	subwf	(_vblAccY+2),w
  9863  108E  1D03               	skipz
  9864  108F  2896               	goto	u8765
  9865  1090  3001               	movlw	01h
  9866  1091  023D               	subwf	(_vblAccY+1),w
  9867  1092  1D03               	skipz
  9868  1093  2896               	goto	u8765
  9869  1094  3097               	movlw	097h
  9870  1095  023C               	subwf	(_vblAccY),w
  9871  1096                     u8765:
  9872  1096  1C03               	skipc
  9873  1097  2899               	goto	u8761
  9874  1098  289A               	goto	u8760
  9875  1099                     u8761:
  9876  1099  28A1               	goto	l6565
  9877  109A                     u8760:
  9878                           	
  9879  109A                     l6563:	
  9880  109A  3096               	movlw	096h
  9881  109B  00BC               	movwf	(_vblAccY)
  9882  109C  3001               	movlw	01h
  9883  109D  00BD               	movwf	(_vblAccY+1)
  9884  109E  3000               	movlw	0
  9885  109F  00BE               	movwf	(_vblAccY+2)
  9886  10A0  28B7               	goto	l1470
  9887                           	line	647
  9888                           	
  9889  10A1                     l1467:	
  9890                           	
  9891  10A1                     l6565:	
  9892                           ;keyboard_and_mouse_in_a_glove.c: 647: else if ( vblAccY < 266) vblAccY = 266;
  9893  10A1  3000               	movlw	0
  9894  10A2  023E               	subwf	(_vblAccY+2),w
  9895  10A3  1D03               	skipz
  9896  10A4  28AB               	goto	u8775
  9897  10A5  3001               	movlw	01h
  9898  10A6  023D               	subwf	(_vblAccY+1),w
  9899  10A7  1D03               	skipz
  9900  10A8  28AB               	goto	u8775
  9901  10A9  300A               	movlw	0Ah
  9902  10AA  023C               	subwf	(_vblAccY),w
  9903  10AB                     u8775:
  9904  10AB  1803               	skipnc
  9905  10AC  28AE               	goto	u8771
  9906  10AD  28AF               	goto	u8770
  9907  10AE                     u8771:
  9908  10AE  28B7               	goto	l1470
  9909  10AF                     u8770:
  9910                           	
  9911  10AF                     l6567:	
  9912  10AF  300A               	movlw	0Ah
  9913  10B0  00BC               	movwf	(_vblAccY)
  9914  10B1  3001               	movlw	01h
  9915  10B2  00BD               	movwf	(_vblAccY+1)
  9916  10B3  3000               	movlw	0
  9917  10B4  00BE               	movwf	(_vblAccY+2)
  9918  10B5  28B7               	goto	l1470
  9919                           	
  9920  10B6                     l1469:	
  9921  10B6  28B7               	goto	l1470
  9922                           	line	648
  9923                           	
  9924  10B7                     l1468:	
  9925                           	
  9926  10B7                     l1470:	
  9927  10B7  0008               	return
  9928                           	opt stack 0
  9929                           GLOBAL	__end_of_a2d_read
  9930  10B8                     	__end_of_a2d_read:
  9931 ;; =============== function _a2d_read ends ============
  9932                           
  9933                           	signat	_a2d_read,88
  9934                           	global	_read_a2d_value
  9935                           psect	text377,local,class=CODE,delta=2
  9936                           global __ptext377
  9937  1F0C                     __ptext377:
  9938                           
  9939 ;; *************** function _read_a2d_value *****************
  9940 ;; Defined at:
  9941 ;;		line 652 in file "F:\ELECTRONIC\2015\Projects\40. Mouse with keyboard\PGM\Keyboard and Mouse in a glove\ver3\keyboar
       d_and_mouse_in_a_glove.c"
  9942 ;; Parameters:    Size  Location     Type
  9943 ;;  channel         1    wreg     unsigned char 
  9944 ;; Auto vars:     Size  Location     Type
  9945 ;;  channel         1    4[BANK0 ] unsigned char 
  9946 ;;  a2d_value       2    5[BANK0 ] unsigned int 
  9947 ;; Return value:  Size  Location     Type
  9948 ;;                  2    0[BANK0 ] unsigned int 
  9949 ;; Registers used:
  9950 ;;		wreg, status,2, status,0
  9951 ;; Tracked objects:
  9952 ;;		On entry : 0/0
  9953 ;;		On exit  : 0/0
  9954 ;;		Unchanged: 0/0
  9955 ;; Data sizes:     COMMON   BANK0   BANK1   BANK3   BANK2
  9956 ;;      Params:         0       2       0       0       0
  9957 ;;      Locals:         0       3       0       0       0
  9958 ;;      Temps:          0       2       0       0       0
  9959 ;;      Totals:         0       7       0       0       0
  9960 ;;Total ram usage:        7 bytes
  9961 ;; Hardware stack levels used:    1
  9962 ;; Hardware stack levels required when called:    1
  9963 ;; This function calls:
  9964 ;;		Nothing
  9965 ;; This function is called by:
  9966 ;;		_a2d_read
  9967 ;; This function uses a non-reentrant model
  9968 ;;
  9969                           psect	text377
  9970                           	file	"F:\ELECTRONIC\2015\Projects\40. Mouse with keyboard\PGM\Keyboard and Mouse in a g
                                 love\ver3\keyboard_and_mouse_in_a_glove.c"
  9971                           	line	652
  9972                           	global	__size_of_read_a2d_value
  9973  0046                     	__size_of_read_a2d_value	equ	__end_of_read_a2d_value-_read_a2d_value
  9974                           	
  9975  1F0C                     _read_a2d_value:	
  9976                           	opt	stack 5
  9977                           ; Regs used in _read_a2d_value: [wreg+status,2+status,0]
  9978                           ;read_a2d_value@channel stored from wreg
  9979                           	line	654
  9980  1F0C  1283               	bcf	status, 5	;RP0=0, select bank0
  9981  1F0D  1303               	bcf	status, 6	;RP1=0, select bank0
  9982  1F0E  00A4               	movwf	(read_a2d_value@channel)
  9983                           	
  9984  1F0F                     l6535:	
  9985                           ;keyboard_and_mouse_in_a_glove.c: 653: unsigned int a2d_value;
  9986                           ;keyboard_and_mouse_in_a_glove.c: 654: channel = channel << 3;
  9987  1F0F  0824               	movf	(read_a2d_value@channel),w
  9988  1F10  00A2               	movwf	(??_read_a2d_value+0)+0
  9989  1F11  3002               	movlw	(03h)-1
  9990  1F12                     u8725:
  9991  1F12  1003               	clrc
  9992  1F13  0DA2               	rlf	(??_read_a2d_value+0)+0,f
  9993  1F14  3EFF               	addlw	-1
  9994  1F15  1D03               	skipz
  9995  1F16  2F12               	goto	u8725
  9996  1F17  1003               	clrc
  9997  1F18  0D22               	rlf	(??_read_a2d_value+0)+0,w
  9998  1F19  00A3               	movwf	(??_read_a2d_value+1)+0
  9999  1F1A  0823               	movf	(??_read_a2d_value+1)+0,w
 10000  1F1B  00A4               	movwf	(read_a2d_value@channel)
 10001                           	line	655
 10002                           	
 10003  1F1C                     l6537:	
 10004                           ;keyboard_and_mouse_in_a_glove.c: 655: ADCON0 = ADCON0 & 0b11000111;
 10005  1F1C  081F               	movf	(31),w
 10006  1F1D  39C7               	andlw	0C7h
 10007  1F1E  009F               	movwf	(31)	;volatile
 10008                           	line	656
 10009                           	
 10010  1F1F                     l6539:	
 10011                           ;keyboard_and_mouse_in_a_glove.c: 656: ADCON0 = ADCON0 | channel;
 10012  1F1F  081F               	movf	(31),w	;volatile
 10013  1F20  0424               	iorwf	(read_a2d_value@channel),w
 10014  1F21  009F               	movwf	(31)	;volatile
 10015                           	line	657
 10016                           	
 10017  1F22                     l6541:	
 10018                           ;keyboard_and_mouse_in_a_glove.c: 657: ADON = 1;
 10019  1F22  141F               	bsf	(248/8),(248)&7
 10020                           	line	658
 10021                           	
 10022  1F23                     l6543:	
 10023                           ;keyboard_and_mouse_in_a_glove.c: 658: _delay(50);
 10024                           	opt asmopt_off
 10025  1F23  3010               movlw	16
 10026  1F24  00A2               movwf	(??_read_a2d_value+0)+0,f
 10027  1F25                     u12677:
 10028  1F25  0BA2               decfsz	(??_read_a2d_value+0)+0,f
 10029  1F26  2F25               	goto	u12677
 10030  1F27  0064               	clrwdt
 10031                           opt asmopt_on
 10032                           
 10033                           	line	659
 10034                           	
 10035  1F28                     l6545:	
 10036                           ;keyboard_and_mouse_in_a_glove.c: 659: GO = 1;
 10037  1F28  1283               	bcf	status, 5	;RP0=0, select bank0
 10038  1F29  1303               	bcf	status, 6	;RP1=0, select bank0
 10039  1F2A  151F               	bsf	(250/8),(250)&7
 10040                           	line	660
 10041                           ;keyboard_and_mouse_in_a_glove.c: 660: while( GO == 1 );
 10042  1F2B  2F2C               	goto	l1473
 10043                           	
 10044  1F2C                     l1474:	
 10045                           	
 10046  1F2C                     l1473:	
 10047  1F2C  191F               	btfsc	(250/8),(250)&7
 10048  1F2D  2F2F               	goto	u8731
 10049  1F2E  2F30               	goto	u8730
 10050  1F2F                     u8731:
 10051  1F2F  2F2C               	goto	l1473
 10052  1F30                     u8730:
 10053  1F30  2F31               	goto	l6547
 10054                           	
 10055  1F31                     l1475:	
 10056                           	line	664
 10057                           	
 10058  1F31                     l6547:	
 10059                           ;keyboard_and_mouse_in_a_glove.c: 661: {
 10060                           ;keyboard_and_mouse_in_a_glove.c: 663: }
 10061                           ;keyboard_and_mouse_in_a_glove.c: 664: a2d_value = ADRESH;
 10062  1F31  081E               	movf	(30),w	;volatile
 10063  1F32  00A2               	movwf	(??_read_a2d_value+0)+0
 10064  1F33  01A3               	clrf	(??_read_a2d_value+0)+0+1
 10065  1F34  0822               	movf	0+(??_read_a2d_value+0)+0,w
 10066  1F35  00A5               	movwf	(read_a2d_value@a2d_value)
 10067  1F36  0823               	movf	1+(??_read_a2d_value+0)+0,w
 10068  1F37  00A6               	movwf	(read_a2d_value@a2d_value+1)
 10069                           	line	665
 10070                           ;keyboard_and_mouse_in_a_glove.c: 665: a2d_value = a2d_value << 8;
 10071  1F38  0825               	movf	(read_a2d_value@a2d_value),w
 10072  1F39  00A3               	movwf	(??_read_a2d_value+0)+0+1
 10073  1F3A  01A2               	clrf	(??_read_a2d_value+0)+0
 10074  1F3B  0822               	movf	0+(??_read_a2d_value+0)+0,w
 10075  1F3C  00A5               	movwf	(read_a2d_value@a2d_value)
 10076  1F3D  0823               	movf	1+(??_read_a2d_value+0)+0,w
 10077  1F3E  00A6               	movwf	(read_a2d_value@a2d_value+1)
 10078                           	line	666
 10079                           ;keyboard_and_mouse_in_a_glove.c: 666: a2d_value = a2d_value + ADRESL;
 10080  1F3F  1683               	bsf	status, 5	;RP0=1, select bank1
 10081  1F40  1303               	bcf	status, 6	;RP1=0, select bank1
 10082  1F41  081E               	movf	(158)^080h,w	;volatile
 10083  1F42  1283               	bcf	status, 5	;RP0=0, select bank0
 10084  1F43  1303               	bcf	status, 6	;RP1=0, select bank0
 10085  1F44  0725               	addwf	(read_a2d_value@a2d_value),w
 10086  1F45  00A5               	movwf	(read_a2d_value@a2d_value)
 10087  1F46  0826               	movf	(read_a2d_value@a2d_value+1),w
 10088  1F47  1803               	skipnc
 10089  1F48  0A26               	incf	(read_a2d_value@a2d_value+1),w
 10090  1F49  00A6               	movwf	((read_a2d_value@a2d_value))+1
 10091                           	line	667
 10092                           	
 10093  1F4A                     l6549:	
 10094                           ;keyboard_and_mouse_in_a_glove.c: 667: return a2d_value;
 10095  1F4A  0826               	movf	(read_a2d_value@a2d_value+1),w
 10096  1F4B  01A1               	clrf	(?_read_a2d_value+1)
 10097  1F4C  07A1               	addwf	(?_read_a2d_value+1)
 10098  1F4D  0825               	movf	(read_a2d_value@a2d_value),w
 10099  1F4E  01A0               	clrf	(?_read_a2d_value)
 10100  1F4F  07A0               	addwf	(?_read_a2d_value)
 10101                           
 10102  1F50  2F51               	goto	l1476
 10103                           	
 10104  1F51                     l6551:	
 10105                           	line	668
 10106                           	
 10107  1F51                     l1476:	
 10108  1F51  0008               	return
 10109                           	opt stack 0
 10110                           GLOBAL	__end_of_read_a2d_value
 10111  1F52                     	__end_of_read_a2d_value:
 10112 ;; =============== function _read_a2d_value ends ============
 10113                           
 10114                           	signat	_read_a2d_value,4218
 10115                           	global	___ltmod
 10116                           psect	text378,local,class=CODE,delta=2
 10117                           global __ptext378
 10118  07A5                     __ptext378:
 10119                           
 10120 ;; *************** function ___ltmod *****************
 10121 ;; Defined at:
 10122 ;;		line 5 in file "C:\Program Files (x86)\HI-TECH Software\PICC\9.83\sources\ltmod.c"
 10123 ;; Parameters:    Size  Location     Type
 10124 ;;  divisor         3    0[BANK0 ] unsigned um
 10125 ;;  dividend        3    3[BANK0 ] unsigned um
 10126 ;; Auto vars:     Size  Location     Type
 10127 ;;  counter         1    7[BANK0 ] unsigned char 
 10128 ;; Return value:  Size  Location     Type
 10129 ;;                  3    0[BANK0 ] unsigned um
 10130 ;; Registers used:
 10131 ;;		wreg, status,2, status,0
 10132 ;; Tracked objects:
 10133 ;;		On entry : 0/0
 10134 ;;		On exit  : 0/0
 10135 ;;		Unchanged: 0/0
 10136 ;; Data sizes:     COMMON   BANK0   BANK1   BANK3   BANK2
 10137 ;;      Params:         0       6       0       0       0
 10138 ;;      Locals:         0       1       0       0       0
 10139 ;;      Temps:          0       1       0       0       0
 10140 ;;      Totals:         0       8       0       0       0
 10141 ;;Total ram usage:        8 bytes
 10142 ;; Hardware stack levels used:    1
 10143 ;; Hardware stack levels required when called:    1
 10144 ;; This function calls:
 10145 ;;		Nothing
 10146 ;; This function is called by:
 10147 ;;		_main
 10148 ;; This function uses a non-reentrant model
 10149 ;;
 10150                           psect	text378
 10151                           	file	"C:\Program Files (x86)\HI-TECH Software\PICC\9.83\sources\ltmod.c"
 10152                           	line	5
 10153                           	global	__size_of___ltmod
 10154  0051                     	__size_of___ltmod	equ	__end_of___ltmod-___ltmod
 10155                           	
 10156  07A5                     ___ltmod:	
 10157                           	opt	stack 6
 10158                           ; Regs used in ___ltmod: [wreg+status,2+status,0]
 10159                           	line	8
 10160                           	
 10161  07A5                     l6515:	
 10162  07A5  1283               	bcf	status, 5	;RP0=0, select bank0
 10163  07A6  1303               	bcf	status, 6	;RP1=0, select bank0
 10164  07A7  0822               	movf	(___ltmod@divisor+2),w
 10165  07A8  0421               	iorwf	(___ltmod@divisor+1),w
 10166  07A9  0420               	iorwf	(___ltmod@divisor),w
 10167  07AA  1903               	skipnz
 10168  07AB  2FAD               	goto	u8661
 10169  07AC  2FAE               	goto	u8660
 10170  07AD                     u8661:
 10171  07AD  2FEE               	goto	l6531
 10172  07AE                     u8660:
 10173                           	line	9
 10174                           	
 10175  07AE                     l6517:	
 10176  07AE  01A7               	clrf	(___ltmod@counter)
 10177  07AF  1403               	bsf	status,0
 10178  07B0  0DA7               	rlf	(___ltmod@counter),f
 10179                           	line	10
 10180  07B1  2FBF               	goto	l6521
 10181                           	
 10182  07B2                     l2477:	
 10183                           	line	11
 10184                           	
 10185  07B2                     l6519:	
 10186  07B2  3001               	movlw	01h
 10187  07B3                     u8675:
 10188  07B3  1003               	clrc
 10189  07B4  0DA0               	rlf	(___ltmod@divisor),f
 10190  07B5  0DA1               	rlf	(___ltmod@divisor+1),f
 10191  07B6  0DA2               	rlf	(___ltmod@divisor+2),f
 10192  07B7  3EFF               	addlw	-1
 10193  07B8  1D03               	skipz
 10194  07B9  2FB3               	goto	u8675
 10195                           	line	12
 10196  07BA  3001               	movlw	(01h)
 10197  07BB  00A6               	movwf	(??___ltmod+0)+0
 10198  07BC  0826               	movf	(??___ltmod+0)+0,w
 10199  07BD  07A7               	addwf	(___ltmod@counter),f
 10200  07BE  2FBF               	goto	l6521
 10201                           	line	13
 10202                           	
 10203  07BF                     l2476:	
 10204                           	line	10
 10205                           	
 10206  07BF                     l6521:	
 10207  07BF  1FA2               	btfss	(___ltmod@divisor+2),(23)&7
 10208  07C0  2FC2               	goto	u8681
 10209  07C1  2FC3               	goto	u8680
 10210  07C2                     u8681:
 10211  07C2  2FB2               	goto	l6519
 10212  07C3                     u8680:
 10213  07C3  2FC5               	goto	l6523
 10214                           	
 10215  07C4                     l2478:	
 10216  07C4  2FC5               	goto	l6523
 10217                           	line	14
 10218                           	
 10219  07C5                     l2479:	
 10220                           	line	15
 10221                           	
 10222  07C5                     l6523:	
 10223  07C5  0822               	movf	(___ltmod@divisor+2),w
 10224  07C6  0225               	subwf	(___ltmod@dividend+2),w
 10225  07C7  1D03               	skipz
 10226  07C8  2FCF               	goto	u8695
 10227  07C9  0821               	movf	(___ltmod@divisor+1),w
 10228  07CA  0224               	subwf	(___ltmod@dividend+1),w
 10229  07CB  1D03               	skipz
 10230  07CC  2FCF               	goto	u8695
 10231  07CD  0820               	movf	(___ltmod@divisor),w
 10232  07CE  0223               	subwf	(___ltmod@dividend),w
 10233  07CF                     u8695:
 10234  07CF  1C03               	skipc
 10235  07D0  2FD2               	goto	u8691
 10236  07D1  2FD3               	goto	u8690
 10237  07D2                     u8691:
 10238  07D2  2FDE               	goto	l6527
 10239  07D3                     u8690:
 10240                           	line	16
 10241                           	
 10242  07D3                     l6525:	
 10243  07D3  0820               	movf	(___ltmod@divisor),w
 10244  07D4  02A3               	subwf	(___ltmod@dividend),f
 10245  07D5  0821               	movf	(___ltmod@divisor+1),w
 10246  07D6  1C03               	skipc
 10247  07D7  0F21               	incfsz	(___ltmod@divisor+1),w
 10248  07D8  02A4               	subwf	(___ltmod@dividend+1),f
 10249  07D9  0822               	movf	(___ltmod@divisor+2),w
 10250  07DA  1C03               	skipc
 10251  07DB  0A22               	incf	(___ltmod@divisor+2),w
 10252  07DC  02A5               	subwf	(___ltmod@dividend+2),f
 10253  07DD  2FDE               	goto	l6527
 10254                           	
 10255  07DE                     l2480:	
 10256                           	line	17
 10257                           	
 10258  07DE                     l6527:	
 10259  07DE  3001               	movlw	01h
 10260  07DF                     u8705:
 10261  07DF  1003               	clrc
 10262  07E0  0CA2               	rrf	(___ltmod@divisor+2),f
 10263  07E1  0CA1               	rrf	(___ltmod@divisor+1),f
 10264  07E2  0CA0               	rrf	(___ltmod@divisor),f
 10265  07E3  3EFF               	addlw	-1
 10266  07E4  1D03               	skipz
 10267  07E5  2FDF               	goto	u8705
 10268                           
 10269                           	line	18
 10270                           	
 10271  07E6                     l6529:	
 10272  07E6  3001               	movlw	low(01h)
 10273  07E7  02A7               	subwf	(___ltmod@counter),f
 10274  07E8  1D03               	btfss	status,2
 10275  07E9  2FEB               	goto	u8711
 10276  07EA  2FEC               	goto	u8710
 10277  07EB                     u8711:
 10278  07EB  2FC5               	goto	l6523
 10279  07EC                     u8710:
 10280  07EC  2FEE               	goto	l6531
 10281                           	
 10282  07ED                     l2481:	
 10283  07ED  2FEE               	goto	l6531
 10284                           	line	19
 10285                           	
 10286  07EE                     l2475:	
 10287                           	line	20
 10288                           	
 10289  07EE                     l6531:	
 10290  07EE  0823               	movf	(___ltmod@dividend),w
 10291  07EF  00A0               	movwf	(?___ltmod)
 10292  07F0  0824               	movf	(___ltmod@dividend+1),w
 10293  07F1  00A1               	movwf	(?___ltmod+1)
 10294  07F2  0825               	movf	(___ltmod@dividend+2),w
 10295  07F3  00A2               	movwf	(?___ltmod+2)
 10296  07F4  2FF5               	goto	l2482
 10297                           	
 10298  07F5                     l6533:	
 10299                           	line	21
 10300                           	
 10301  07F5                     l2482:	
 10302  07F5  0008               	return
 10303                           	opt stack 0
 10304                           GLOBAL	__end_of___ltmod
 10305  07F6                     	__end_of___ltmod:
 10306 ;; =============== function ___ltmod ends ============
 10307                           
 10308                           	signat	___ltmod,8315
 10309                           	global	___ltdiv
 10310                           psect	text379,local,class=CODE,delta=2
 10311                           global __ptext379
 10312  1FA0                     __ptext379:
 10313                           
 10314 ;; *************** function ___ltdiv *****************
 10315 ;; Defined at:
 10316 ;;		line 5 in file "C:\Program Files (x86)\HI-TECH Software\PICC\9.83\sources\ltdiv.c"
 10317 ;; Parameters:    Size  Location     Type
 10318 ;;  divisor         3    8[BANK0 ] unsigned um
 10319 ;;  dividend        3   11[BANK0 ] unsigned um
 10320 ;; Auto vars:     Size  Location     Type
 10321 ;;  quotient        3   15[BANK0 ] unsigned um
 10322 ;;  counter         1   18[BANK0 ] unsigned char 
 10323 ;; Return value:  Size  Location     Type
 10324 ;;                  3    8[BANK0 ] unsigned um
 10325 ;; Registers used:
 10326 ;;		wreg, status,2, status,0
 10327 ;; Tracked objects:
 10328 ;;		On entry : 0/0
 10329 ;;		On exit  : 0/0
 10330 ;;		Unchanged: 0/0
 10331 ;; Data sizes:     COMMON   BANK0   BANK1   BANK3   BANK2
 10332 ;;      Params:         0       6       0       0       0
 10333 ;;      Locals:         0       4       0       0       0
 10334 ;;      Temps:          0       1       0       0       0
 10335 ;;      Totals:         0      11       0       0       0
 10336 ;;Total ram usage:       11 bytes
 10337 ;; Hardware stack levels used:    1
 10338 ;; Hardware stack levels required when called:    1
 10339 ;; This function calls:
 10340 ;;		Nothing
 10341 ;; This function is called by:
 10342 ;;		_main
 10343 ;; This function uses a non-reentrant model
 10344 ;;
 10345                           psect	text379
 10346                           	file	"C:\Program Files (x86)\HI-TECH Software\PICC\9.83\sources\ltdiv.c"
 10347                           	line	5
 10348                           	global	__size_of___ltdiv
 10349  0060                     	__size_of___ltdiv	equ	__end_of___ltdiv-___ltdiv
 10350                           	
 10351  1FA0                     ___ltdiv:	
 10352                           	opt	stack 6
 10353                           ; Regs used in ___ltdiv: [wreg+status,2+status,0]
 10354                           	line	9
 10355                           	
 10356  1FA0                     l6491:	
 10357  1FA0  3000               	movlw	0
 10358  1FA1  1283               	bcf	status, 5	;RP0=0, select bank0
 10359  1FA2  1303               	bcf	status, 6	;RP1=0, select bank0
 10360  1FA3  00AF               	movwf	(___ltdiv@quotient)
 10361  1FA4  3000               	movlw	0
 10362  1FA5  00B0               	movwf	(___ltdiv@quotient+1)
 10363  1FA6  3000               	movlw	0
 10364  1FA7  00B1               	movwf	(___ltdiv@quotient+2)
 10365                           	line	10
 10366  1FA8  082A               	movf	(___ltdiv@divisor+2),w
 10367  1FA9  0429               	iorwf	(___ltdiv@divisor+1),w
 10368  1FAA  0428               	iorwf	(___ltdiv@divisor),w
 10369  1FAB  1903               	skipnz
 10370  1FAC  2FAE               	goto	u8591
 10371  1FAD  2FAF               	goto	u8590
 10372  1FAE                     u8591:
 10373  1FAE  2FF8               	goto	l6511
 10374  1FAF                     u8590:
 10375                           	line	11
 10376                           	
 10377  1FAF                     l6493:	
 10378  1FAF  01B2               	clrf	(___ltdiv@counter)
 10379  1FB0  1403               	bsf	status,0
 10380  1FB1  0DB2               	rlf	(___ltdiv@counter),f
 10381                           	line	12
 10382  1FB2  2FC0               	goto	l6497
 10383                           	
 10384  1FB3                     l2467:	
 10385                           	line	13
 10386                           	
 10387  1FB3                     l6495:	
 10388  1FB3  3001               	movlw	01h
 10389  1FB4                     u8605:
 10390  1FB4  1003               	clrc
 10391  1FB5  0DA8               	rlf	(___ltdiv@divisor),f
 10392  1FB6  0DA9               	rlf	(___ltdiv@divisor+1),f
 10393  1FB7  0DAA               	rlf	(___ltdiv@divisor+2),f
 10394  1FB8  3EFF               	addlw	-1
 10395  1FB9  1D03               	skipz
 10396  1FBA  2FB4               	goto	u8605
 10397                           	line	14
 10398  1FBB  3001               	movlw	(01h)
 10399  1FBC  00AE               	movwf	(??___ltdiv+0)+0
 10400  1FBD  082E               	movf	(??___ltdiv+0)+0,w
 10401  1FBE  07B2               	addwf	(___ltdiv@counter),f
 10402  1FBF  2FC0               	goto	l6497
 10403                           	line	15
 10404                           	
 10405  1FC0                     l2466:	
 10406                           	line	12
 10407                           	
 10408  1FC0                     l6497:	
 10409  1FC0  1FAA               	btfss	(___ltdiv@divisor+2),(23)&7
 10410  1FC1  2FC3               	goto	u8611
 10411  1FC2  2FC4               	goto	u8610
 10412  1FC3                     u8611:
 10413  1FC3  2FB3               	goto	l6495
 10414  1FC4                     u8610:
 10415  1FC4  2FC6               	goto	l6499
 10416                           	
 10417  1FC5                     l2468:	
 10418  1FC5  2FC6               	goto	l6499
 10419                           	line	16
 10420                           	
 10421  1FC6                     l2469:	
 10422                           	line	17
 10423                           	
 10424  1FC6                     l6499:	
 10425  1FC6  3001               	movlw	01h
 10426  1FC7                     u8625:
 10427  1FC7  1003               	clrc
 10428  1FC8  0DAF               	rlf	(___ltdiv@quotient),f
 10429  1FC9  0DB0               	rlf	(___ltdiv@quotient+1),f
 10430  1FCA  0DB1               	rlf	(___ltdiv@quotient+2),f
 10431  1FCB  3EFF               	addlw	-1
 10432  1FCC  1D03               	skipz
 10433  1FCD  2FC7               	goto	u8625
 10434                           	line	18
 10435                           	
 10436  1FCE                     l6501:	
 10437  1FCE  082A               	movf	(___ltdiv@divisor+2),w
 10438  1FCF  022D               	subwf	(___ltdiv@dividend+2),w
 10439  1FD0  1D03               	skipz
 10440  1FD1  2FD8               	goto	u8635
 10441  1FD2  0829               	movf	(___ltdiv@divisor+1),w
 10442  1FD3  022C               	subwf	(___ltdiv@dividend+1),w
 10443  1FD4  1D03               	skipz
 10444  1FD5  2FD8               	goto	u8635
 10445  1FD6  0828               	movf	(___ltdiv@divisor),w
 10446  1FD7  022B               	subwf	(___ltdiv@dividend),w
 10447  1FD8                     u8635:
 10448  1FD8  1C03               	skipc
 10449  1FD9  2FDB               	goto	u8631
 10450  1FDA  2FDC               	goto	u8630
 10451  1FDB                     u8631:
 10452  1FDB  2FE8               	goto	l6507
 10453  1FDC                     u8630:
 10454                           	line	19
 10455                           	
 10456  1FDC                     l6503:	
 10457  1FDC  0828               	movf	(___ltdiv@divisor),w
 10458  1FDD  02AB               	subwf	(___ltdiv@dividend),f
 10459  1FDE  0829               	movf	(___ltdiv@divisor+1),w
 10460  1FDF  1C03               	skipc
 10461  1FE0  0F29               	incfsz	(___ltdiv@divisor+1),w
 10462  1FE1  02AC               	subwf	(___ltdiv@dividend+1),f
 10463  1FE2  082A               	movf	(___ltdiv@divisor+2),w
 10464  1FE3  1C03               	skipc
 10465  1FE4  0A2A               	incf	(___ltdiv@divisor+2),w
 10466  1FE5  02AD               	subwf	(___ltdiv@dividend+2),f
 10467                           	line	20
 10468                           	
 10469  1FE6                     l6505:	
 10470  1FE6  142F               	bsf	(___ltdiv@quotient)+(0/8),(0)&7
 10471  1FE7  2FE8               	goto	l6507
 10472                           	line	21
 10473                           	
 10474  1FE8                     l2470:	
 10475                           	line	22
 10476                           	
 10477  1FE8                     l6507:	
 10478  1FE8  3001               	movlw	01h
 10479  1FE9                     u8645:
 10480  1FE9  1003               	clrc
 10481  1FEA  0CAA               	rrf	(___ltdiv@divisor+2),f
 10482  1FEB  0CA9               	rrf	(___ltdiv@divisor+1),f
 10483  1FEC  0CA8               	rrf	(___ltdiv@divisor),f
 10484  1FED  3EFF               	addlw	-1
 10485  1FEE  1D03               	skipz
 10486  1FEF  2FE9               	goto	u8645
 10487                           
 10488                           	line	23
 10489                           	
 10490  1FF0                     l6509:	
 10491  1FF0  3001               	movlw	low(01h)
 10492  1FF1  02B2               	subwf	(___ltdiv@counter),f
 10493  1FF2  1D03               	btfss	status,2
 10494  1FF3  2FF5               	goto	u8651
 10495  1FF4  2FF6               	goto	u8650
 10496  1FF5                     u8651:
 10497  1FF5  2FC6               	goto	l6499
 10498  1FF6                     u8650:
 10499  1FF6  2FF8               	goto	l6511
 10500                           	
 10501  1FF7                     l2471:	
 10502  1FF7  2FF8               	goto	l6511
 10503                           	line	24
 10504                           	
 10505  1FF8                     l2465:	
 10506                           	line	25
 10507                           	
 10508  1FF8                     l6511:	
 10509  1FF8  082F               	movf	(___ltdiv@quotient),w
 10510  1FF9  00A8               	movwf	(?___ltdiv)
 10511  1FFA  0830               	movf	(___ltdiv@quotient+1),w
 10512  1FFB  00A9               	movwf	(?___ltdiv+1)
 10513  1FFC  0831               	movf	(___ltdiv@quotient+2),w
 10514  1FFD  00AA               	movwf	(?___ltdiv+2)
 10515  1FFE  2FFF               	goto	l2472
 10516                           	
 10517  1FFF                     l6513:	
 10518                           	line	26
 10519                           	
 10520  1FFF                     l2472:	
 10521  1FFF  0008               	return
 10522                           	opt stack 0
 10523                           GLOBAL	__end_of___ltdiv
 10524  2000                     	__end_of___ltdiv:
 10525 ;; =============== function ___ltdiv ends ============
 10526                           
 10527                           	signat	___ltdiv,8315
 10528                           	global	_MouseSendRC
 10529                           psect	text380,local,class=CODE,delta=2
 10530                           global __ptext380
 10531  1ED9                     __ptext380:
 10532                           
 10533 ;; *************** function _MouseSendRC *****************
 10534 ;; Defined at:
 10535 ;;		line 593 in file "F:\ELECTRONIC\2015\Projects\40. Mouse with keyboard\PGM\Keyboard and Mouse in a glove\ver3\keyboar
       d_and_mouse_in_a_glove.c"
 10536 ;; Parameters:    Size  Location     Type
 10537 ;;		None
 10538 ;; Auto vars:     Size  Location     Type
 10539 ;;		None
 10540 ;; Return value:  Size  Location     Type
 10541 ;;		None               void
 10542 ;; Registers used:
 10543 ;;		wreg
 10544 ;; Tracked objects:
 10545 ;;		On entry : 0/0
 10546 ;;		On exit  : 0/0
 10547 ;;		Unchanged: 0/0
 10548 ;; Data sizes:     COMMON   BANK0   BANK1   BANK3   BANK2
 10549 ;;      Params:         0       0       0       0       0
 10550 ;;      Locals:         0       0       0       0       0
 10551 ;;      Temps:          0       0       0       0       0
 10552 ;;      Totals:         0       0       0       0       0
 10553 ;;Total ram usage:        0 bytes
 10554 ;; Hardware stack levels used:    1
 10555 ;; Hardware stack levels required when called:    1
 10556 ;; This function calls:
 10557 ;;		Nothing
 10558 ;; This function is called by:
 10559 ;;		_main
 10560 ;; This function uses a non-reentrant model
 10561 ;;
 10562                           psect	text380
 10563                           	file	"F:\ELECTRONIC\2015\Projects\40. Mouse with keyboard\PGM\Keyboard and Mouse in a g
                                 love\ver3\keyboard_and_mouse_in_a_glove.c"
 10564                           	line	593
 10565                           	global	__size_of_MouseSendRC
 10566  0033                     	__size_of_MouseSendRC	equ	__end_of_MouseSendRC-_MouseSendRC
 10567                           	
 10568  1ED9                     _MouseSendRC:	
 10569                           	opt	stack 6
 10570                           ; Regs used in _MouseSendRC: [wreg]
 10571                           	line	594
 10572                           	
 10573  1ED9                     l6477:	
 10574                           ;keyboard_and_mouse_in_a_glove.c: 594: while(!TXIF);
 10575  1ED9  2EDA               	goto	l1401
 10576                           	
 10577  1EDA                     l1402:	
 10578                           	
 10579  1EDA                     l1401:	
 10580  1EDA  1283               	bcf	status, 5	;RP0=0, select bank0
 10581  1EDB  1303               	bcf	status, 6	;RP1=0, select bank0
 10582  1EDC  1E0C               	btfss	(100/8),(100)&7
 10583  1EDD  2EDF               	goto	u8531
 10584  1EDE  2EE0               	goto	u8530
 10585  1EDF                     u8531:
 10586  1EDF  2EDA               	goto	l1401
 10587  1EE0                     u8530:
 10588  1EE0  2EE1               	goto	l6479
 10589                           	
 10590  1EE1                     l1403:	
 10591                           	line	595
 10592                           	
 10593  1EE1                     l6479:	
 10594                           ;keyboard_and_mouse_in_a_glove.c: 595: TXREG = '%';
 10595  1EE1  3025               	movlw	(025h)
 10596  1EE2  0099               	movwf	(25)	;volatile
 10597                           	line	596
 10598                           ;keyboard_and_mouse_in_a_glove.c: 596: while(!TXIF);
 10599  1EE3  2EE4               	goto	l1404
 10600                           	
 10601  1EE4                     l1405:	
 10602                           	
 10603  1EE4                     l1404:	
 10604  1EE4  1E0C               	btfss	(100/8),(100)&7
 10605  1EE5  2EE7               	goto	u8541
 10606  1EE6  2EE8               	goto	u8540
 10607  1EE7                     u8541:
 10608  1EE7  2EE4               	goto	l1404
 10609  1EE8                     u8540:
 10610  1EE8  2EE9               	goto	l6481
 10611                           	
 10612  1EE9                     l1406:	
 10613                           	line	597
 10614                           	
 10615  1EE9                     l6481:	
 10616                           ;keyboard_and_mouse_in_a_glove.c: 597: TXREG = 'R';
 10617  1EE9  3052               	movlw	(052h)
 10618  1EEA  0099               	movwf	(25)	;volatile
 10619                           	line	598
 10620                           ;keyboard_and_mouse_in_a_glove.c: 598: while(!TXIF);
 10621  1EEB  2EEC               	goto	l1407
 10622                           	
 10623  1EEC                     l1408:	
 10624                           	
 10625  1EEC                     l1407:	
 10626  1EEC  1E0C               	btfss	(100/8),(100)&7
 10627  1EED  2EEF               	goto	u8551
 10628  1EEE  2EF0               	goto	u8550
 10629  1EEF                     u8551:
 10630  1EEF  2EEC               	goto	l1407
 10631  1EF0                     u8550:
 10632  1EF0  2EF1               	goto	l6483
 10633                           	
 10634  1EF1                     l1409:	
 10635                           	line	599
 10636                           	
 10637  1EF1                     l6483:	
 10638                           ;keyboard_and_mouse_in_a_glove.c: 599: TXREG = ' ';
 10639  1EF1  3020               	movlw	(020h)
 10640  1EF2  0099               	movwf	(25)	;volatile
 10641                           	line	600
 10642                           ;keyboard_and_mouse_in_a_glove.c: 600: while(!TXIF);
 10643  1EF3  2EF4               	goto	l1410
 10644                           	
 10645  1EF4                     l1411:	
 10646                           	
 10647  1EF4                     l1410:	
 10648  1EF4  1E0C               	btfss	(100/8),(100)&7
 10649  1EF5  2EF7               	goto	u8561
 10650  1EF6  2EF8               	goto	u8560
 10651  1EF7                     u8561:
 10652  1EF7  2EF4               	goto	l1410
 10653  1EF8                     u8560:
 10654  1EF8  2EF9               	goto	l6485
 10655                           	
 10656  1EF9                     l1412:	
 10657                           	line	601
 10658                           	
 10659  1EF9                     l6485:	
 10660                           ;keyboard_and_mouse_in_a_glove.c: 601: TXREG = ' ';
 10661  1EF9  3020               	movlw	(020h)
 10662  1EFA  0099               	movwf	(25)	;volatile
 10663                           	line	602
 10664                           ;keyboard_and_mouse_in_a_glove.c: 602: while(!TXIF);
 10665  1EFB  2EFC               	goto	l1413
 10666                           	
 10667  1EFC                     l1414:	
 10668                           	
 10669  1EFC                     l1413:	
 10670  1EFC  1E0C               	btfss	(100/8),(100)&7
 10671  1EFD  2EFF               	goto	u8571
 10672  1EFE  2F00               	goto	u8570
 10673  1EFF                     u8571:
 10674  1EFF  2EFC               	goto	l1413
 10675  1F00                     u8570:
 10676  1F00  2F01               	goto	l6487
 10677                           	
 10678  1F01                     l1415:	
 10679                           	line	603
 10680                           	
 10681  1F01                     l6487:	
 10682                           ;keyboard_and_mouse_in_a_glove.c: 603: TXREG = ' ';
 10683  1F01  3020               	movlw	(020h)
 10684  1F02  0099               	movwf	(25)	;volatile
 10685                           	line	604
 10686                           ;keyboard_and_mouse_in_a_glove.c: 604: while(!TXIF);
 10687  1F03  2F04               	goto	l1416
 10688                           	
 10689  1F04                     l1417:	
 10690                           	
 10691  1F04                     l1416:	
 10692  1F04  1E0C               	btfss	(100/8),(100)&7
 10693  1F05  2F07               	goto	u8581
 10694  1F06  2F08               	goto	u8580
 10695  1F07                     u8581:
 10696  1F07  2F04               	goto	l1416
 10697  1F08                     u8580:
 10698  1F08  2F09               	goto	l6489
 10699                           	
 10700  1F09                     l1418:	
 10701                           	line	605
 10702                           	
 10703  1F09                     l6489:	
 10704                           ;keyboard_and_mouse_in_a_glove.c: 605: TXREG = '?';
 10705  1F09  303F               	movlw	(03Fh)
 10706  1F0A  0099               	movwf	(25)	;volatile
 10707                           	line	606
 10708                           	
 10709  1F0B                     l1419:	
 10710  1F0B  0008               	return
 10711                           	opt stack 0
 10712                           GLOBAL	__end_of_MouseSendRC
 10713  1F0C                     	__end_of_MouseSendRC:
 10714 ;; =============== function _MouseSendRC ends ============
 10715                           
 10716                           	signat	_MouseSendRC,88
 10717                           	global	_MouseSendLC
 10718                           psect	text381,local,class=CODE,delta=2
 10719                           global __ptext381
 10720  1EA6                     __ptext381:
 10721                           
 10722 ;; *************** function _MouseSendLC *****************
 10723 ;; Defined at:
 10724 ;;		line 578 in file "F:\ELECTRONIC\2015\Projects\40. Mouse with keyboard\PGM\Keyboard and Mouse in a glove\ver3\keyboar
       d_and_mouse_in_a_glove.c"
 10725 ;; Parameters:    Size  Location     Type
 10726 ;;		None
 10727 ;; Auto vars:     Size  Location     Type
 10728 ;;		None
 10729 ;; Return value:  Size  Location     Type
 10730 ;;		None               void
 10731 ;; Registers used:
 10732 ;;		wreg
 10733 ;; Tracked objects:
 10734 ;;		On entry : 0/0
 10735 ;;		On exit  : 0/0
 10736 ;;		Unchanged: 0/0
 10737 ;; Data sizes:     COMMON   BANK0   BANK1   BANK3   BANK2
 10738 ;;      Params:         0       0       0       0       0
 10739 ;;      Locals:         0       0       0       0       0
 10740 ;;      Temps:          0       0       0       0       0
 10741 ;;      Totals:         0       0       0       0       0
 10742 ;;Total ram usage:        0 bytes
 10743 ;; Hardware stack levels used:    1
 10744 ;; Hardware stack levels required when called:    1
 10745 ;; This function calls:
 10746 ;;		Nothing
 10747 ;; This function is called by:
 10748 ;;		_main
 10749 ;; This function uses a non-reentrant model
 10750 ;;
 10751                           psect	text381
 10752                           	file	"F:\ELECTRONIC\2015\Projects\40. Mouse with keyboard\PGM\Keyboard and Mouse in a g
                                 love\ver3\keyboard_and_mouse_in_a_glove.c"
 10753                           	line	578
 10754                           	global	__size_of_MouseSendLC
 10755  0033                     	__size_of_MouseSendLC	equ	__end_of_MouseSendLC-_MouseSendLC
 10756                           	
 10757  1EA6                     _MouseSendLC:	
 10758                           	opt	stack 6
 10759                           ; Regs used in _MouseSendLC: [wreg]
 10760                           	line	579
 10761                           	
 10762  1EA6                     l6463:	
 10763                           ;keyboard_and_mouse_in_a_glove.c: 579: while(!TXIF);
 10764  1EA6  2EA7               	goto	l1380
 10765                           	
 10766  1EA7                     l1381:	
 10767                           	
 10768  1EA7                     l1380:	
 10769  1EA7  1283               	bcf	status, 5	;RP0=0, select bank0
 10770  1EA8  1303               	bcf	status, 6	;RP1=0, select bank0
 10771  1EA9  1E0C               	btfss	(100/8),(100)&7
 10772  1EAA  2EAC               	goto	u8471
 10773  1EAB  2EAD               	goto	u8470
 10774  1EAC                     u8471:
 10775  1EAC  2EA7               	goto	l1380
 10776  1EAD                     u8470:
 10777  1EAD  2EAE               	goto	l6465
 10778                           	
 10779  1EAE                     l1382:	
 10780                           	line	580
 10781                           	
 10782  1EAE                     l6465:	
 10783                           ;keyboard_and_mouse_in_a_glove.c: 580: TXREG = '%';
 10784  1EAE  3025               	movlw	(025h)
 10785  1EAF  0099               	movwf	(25)	;volatile
 10786                           	line	581
 10787                           ;keyboard_and_mouse_in_a_glove.c: 581: while(!TXIF);
 10788  1EB0  2EB1               	goto	l1383
 10789                           	
 10790  1EB1                     l1384:	
 10791                           	
 10792  1EB1                     l1383:	
 10793  1EB1  1E0C               	btfss	(100/8),(100)&7
 10794  1EB2  2EB4               	goto	u8481
 10795  1EB3  2EB5               	goto	u8480
 10796  1EB4                     u8481:
 10797  1EB4  2EB1               	goto	l1383
 10798  1EB5                     u8480:
 10799  1EB5  2EB6               	goto	l6467
 10800                           	
 10801  1EB6                     l1385:	
 10802                           	line	582
 10803                           	
 10804  1EB6                     l6467:	
 10805                           ;keyboard_and_mouse_in_a_glove.c: 582: TXREG = 'L';
 10806  1EB6  304C               	movlw	(04Ch)
 10807  1EB7  0099               	movwf	(25)	;volatile
 10808                           	line	583
 10809                           ;keyboard_and_mouse_in_a_glove.c: 583: while(!TXIF);
 10810  1EB8  2EB9               	goto	l1386
 10811                           	
 10812  1EB9                     l1387:	
 10813                           	
 10814  1EB9                     l1386:	
 10815  1EB9  1E0C               	btfss	(100/8),(100)&7
 10816  1EBA  2EBC               	goto	u8491
 10817  1EBB  2EBD               	goto	u8490
 10818  1EBC                     u8491:
 10819  1EBC  2EB9               	goto	l1386
 10820  1EBD                     u8490:
 10821  1EBD  2EBE               	goto	l6469
 10822                           	
 10823  1EBE                     l1388:	
 10824                           	line	584
 10825                           	
 10826  1EBE                     l6469:	
 10827                           ;keyboard_and_mouse_in_a_glove.c: 584: TXREG = ' ';
 10828  1EBE  3020               	movlw	(020h)
 10829  1EBF  0099               	movwf	(25)	;volatile
 10830                           	line	585
 10831                           ;keyboard_and_mouse_in_a_glove.c: 585: while(!TXIF);
 10832  1EC0  2EC1               	goto	l1389
 10833                           	
 10834  1EC1                     l1390:	
 10835                           	
 10836  1EC1                     l1389:	
 10837  1EC1  1E0C               	btfss	(100/8),(100)&7
 10838  1EC2  2EC4               	goto	u8501
 10839  1EC3  2EC5               	goto	u8500
 10840  1EC4                     u8501:
 10841  1EC4  2EC1               	goto	l1389
 10842  1EC5                     u8500:
 10843  1EC5  2EC6               	goto	l6471
 10844                           	
 10845  1EC6                     l1391:	
 10846                           	line	586
 10847                           	
 10848  1EC6                     l6471:	
 10849                           ;keyboard_and_mouse_in_a_glove.c: 586: TXREG = ' ';
 10850  1EC6  3020               	movlw	(020h)
 10851  1EC7  0099               	movwf	(25)	;volatile
 10852                           	line	587
 10853                           ;keyboard_and_mouse_in_a_glove.c: 587: while(!TXIF);
 10854  1EC8  2EC9               	goto	l1392
 10855                           	
 10856  1EC9                     l1393:	
 10857                           	
 10858  1EC9                     l1392:	
 10859  1EC9  1E0C               	btfss	(100/8),(100)&7
 10860  1ECA  2ECC               	goto	u8511
 10861  1ECB  2ECD               	goto	u8510
 10862  1ECC                     u8511:
 10863  1ECC  2EC9               	goto	l1392
 10864  1ECD                     u8510:
 10865  1ECD  2ECE               	goto	l6473
 10866                           	
 10867  1ECE                     l1394:	
 10868                           	line	588
 10869                           	
 10870  1ECE                     l6473:	
 10871                           ;keyboard_and_mouse_in_a_glove.c: 588: TXREG = ' ';
 10872  1ECE  3020               	movlw	(020h)
 10873  1ECF  0099               	movwf	(25)	;volatile
 10874                           	line	589
 10875                           ;keyboard_and_mouse_in_a_glove.c: 589: while(!TXIF);
 10876  1ED0  2ED1               	goto	l1395
 10877                           	
 10878  1ED1                     l1396:	
 10879                           	
 10880  1ED1                     l1395:	
 10881  1ED1  1E0C               	btfss	(100/8),(100)&7
 10882  1ED2  2ED4               	goto	u8521
 10883  1ED3  2ED5               	goto	u8520
 10884  1ED4                     u8521:
 10885  1ED4  2ED1               	goto	l1395
 10886  1ED5                     u8520:
 10887  1ED5  2ED6               	goto	l6475
 10888                           	
 10889  1ED6                     l1397:	
 10890                           	line	590
 10891                           	
 10892  1ED6                     l6475:	
 10893                           ;keyboard_and_mouse_in_a_glove.c: 590: TXREG = '?';
 10894  1ED6  303F               	movlw	(03Fh)
 10895  1ED7  0099               	movwf	(25)	;volatile
 10896                           	line	591
 10897                           	
 10898  1ED8                     l1398:	
 10899  1ED8  0008               	return
 10900                           	opt stack 0
 10901                           GLOBAL	__end_of_MouseSendLC
 10902  1ED9                     	__end_of_MouseSendLC:
 10903 ;; =============== function _MouseSendLC ends ============
 10904                           
 10905                           	signat	_MouseSendLC,88
 10906                           	global	_KeySend
 10907                           psect	text382,local,class=CODE,delta=2
 10908                           global __ptext382
 10909  1008                     __ptext382:
 10910                           
 10911 ;; *************** function _KeySend *****************
 10912 ;; Defined at:
 10913 ;;		line 623 in file "F:\ELECTRONIC\2015\Projects\40. Mouse with keyboard\PGM\Keyboard and Mouse in a glove\ver3\keyboar
       d_and_mouse_in_a_glove.c"
 10914 ;; Parameters:    Size  Location     Type
 10915 ;;  key             1    wreg     unsigned char 
 10916 ;; Auto vars:     Size  Location     Type
 10917 ;;  key             1    0[BANK0 ] unsigned char 
 10918 ;; Return value:  Size  Location     Type
 10919 ;;		None               void
 10920 ;; Registers used:
 10921 ;;		wreg
 10922 ;; Tracked objects:
 10923 ;;		On entry : 0/0
 10924 ;;		On exit  : 0/0
 10925 ;;		Unchanged: 0/0
 10926 ;; Data sizes:     COMMON   BANK0   BANK1   BANK3   BANK2
 10927 ;;      Params:         0       0       0       0       0
 10928 ;;      Locals:         0       1       0       0       0
 10929 ;;      Temps:          0       0       0       0       0
 10930 ;;      Totals:         0       1       0       0       0
 10931 ;;Total ram usage:        1 bytes
 10932 ;; Hardware stack levels used:    1
 10933 ;; Hardware stack levels required when called:    1
 10934 ;; This function calls:
 10935 ;;		Nothing
 10936 ;; This function is called by:
 10937 ;;		_main
 10938 ;; This function uses a non-reentrant model
 10939 ;;
 10940                           psect	text382
 10941                           	file	"F:\ELECTRONIC\2015\Projects\40. Mouse with keyboard\PGM\Keyboard and Mouse in a g
                                 love\ver3\keyboard_and_mouse_in_a_glove.c"
 10942                           	line	623
 10943                           	global	__size_of_KeySend
 10944  0034                     	__size_of_KeySend	equ	__end_of_KeySend-_KeySend
 10945                           	
 10946  1008                     _KeySend:	
 10947                           	opt	stack 6
 10948                           ; Regs used in _KeySend: [wreg]
 10949                           ;KeySend@key stored from wreg
 10950  1008  1283               	bcf	status, 5	;RP0=0, select bank0
 10951  1009  1303               	bcf	status, 6	;RP1=0, select bank0
 10952  100A  00A0               	movwf	(KeySend@key)
 10953                           	line	624
 10954                           	
 10955  100B                     l6449:	
 10956                           ;keyboard_and_mouse_in_a_glove.c: 624: while(!TXIF);
 10957  100B  280C               	goto	l1443
 10958                           	
 10959  100C                     l1444:	
 10960                           	
 10961  100C                     l1443:	
 10962  100C  1E0C               	btfss	(100/8),(100)&7
 10963  100D  280F               	goto	u8411
 10964  100E  2810               	goto	u8410
 10965  100F                     u8411:
 10966  100F  280C               	goto	l1443
 10967  1010                     u8410:
 10968  1010  2811               	goto	l6451
 10969                           	
 10970  1011                     l1445:	
 10971                           	line	625
 10972                           	
 10973  1011                     l6451:	
 10974                           ;keyboard_and_mouse_in_a_glove.c: 625: TXREG = '%';
 10975  1011  3025               	movlw	(025h)
 10976  1012  0099               	movwf	(25)	;volatile
 10977                           	line	626
 10978                           ;keyboard_and_mouse_in_a_glove.c: 626: while(!TXIF);
 10979  1013  2814               	goto	l1446
 10980                           	
 10981  1014                     l1447:	
 10982                           	
 10983  1014                     l1446:	
 10984  1014  1E0C               	btfss	(100/8),(100)&7
 10985  1015  2817               	goto	u8421
 10986  1016  2818               	goto	u8420
 10987  1017                     u8421:
 10988  1017  2814               	goto	l1446
 10989  1018                     u8420:
 10990  1018  2819               	goto	l6453
 10991                           	
 10992  1019                     l1448:	
 10993                           	line	627
 10994                           	
 10995  1019                     l6453:	
 10996                           ;keyboard_and_mouse_in_a_glove.c: 627: TXREG = 'K';
 10997  1019  304B               	movlw	(04Bh)
 10998  101A  0099               	movwf	(25)	;volatile
 10999                           	line	628
 11000                           ;keyboard_and_mouse_in_a_glove.c: 628: while(!TXIF);
 11001  101B  281C               	goto	l1449
 11002                           	
 11003  101C                     l1450:	
 11004                           	
 11005  101C                     l1449:	
 11006  101C  1E0C               	btfss	(100/8),(100)&7
 11007  101D  281F               	goto	u8431
 11008  101E  2820               	goto	u8430
 11009  101F                     u8431:
 11010  101F  281C               	goto	l1449
 11011  1020                     u8430:
 11012  1020  2821               	goto	l6455
 11013                           	
 11014  1021                     l1451:	
 11015                           	line	629
 11016                           	
 11017  1021                     l6455:	
 11018                           ;keyboard_and_mouse_in_a_glove.c: 629: TXREG = key;
 11019  1021  0820               	movf	(KeySend@key),w
 11020  1022  0099               	movwf	(25)	;volatile
 11021                           	line	630
 11022                           ;keyboard_and_mouse_in_a_glove.c: 630: while(!TXIF);
 11023  1023  2824               	goto	l1452
 11024                           	
 11025  1024                     l1453:	
 11026                           	
 11027  1024                     l1452:	
 11028  1024  1E0C               	btfss	(100/8),(100)&7
 11029  1025  2827               	goto	u8441
 11030  1026  2828               	goto	u8440
 11031  1027                     u8441:
 11032  1027  2824               	goto	l1452
 11033  1028                     u8440:
 11034  1028  2829               	goto	l6457
 11035                           	
 11036  1029                     l1454:	
 11037                           	line	631
 11038                           	
 11039  1029                     l6457:	
 11040                           ;keyboard_and_mouse_in_a_glove.c: 631: TXREG = ' ';
 11041  1029  3020               	movlw	(020h)
 11042  102A  0099               	movwf	(25)	;volatile
 11043                           	line	632
 11044                           ;keyboard_and_mouse_in_a_glove.c: 632: while(!TXIF);
 11045  102B  282C               	goto	l1455
 11046                           	
 11047  102C                     l1456:	
 11048                           	
 11049  102C                     l1455:	
 11050  102C  1E0C               	btfss	(100/8),(100)&7
 11051  102D  282F               	goto	u8451
 11052  102E  2830               	goto	u8450
 11053  102F                     u8451:
 11054  102F  282C               	goto	l1455
 11055  1030                     u8450:
 11056  1030  2831               	goto	l6459
 11057                           	
 11058  1031                     l1457:	
 11059                           	line	633
 11060                           	
 11061  1031                     l6459:	
 11062                           ;keyboard_and_mouse_in_a_glove.c: 633: TXREG = ' ';
 11063  1031  3020               	movlw	(020h)
 11064  1032  0099               	movwf	(25)	;volatile
 11065                           	line	634
 11066                           ;keyboard_and_mouse_in_a_glove.c: 634: while(!TXIF);
 11067  1033  2834               	goto	l1458
 11068                           	
 11069  1034                     l1459:	
 11070                           	
 11071  1034                     l1458:	
 11072  1034  1E0C               	btfss	(100/8),(100)&7
 11073  1035  2837               	goto	u8461
 11074  1036  2838               	goto	u8460
 11075  1037                     u8461:
 11076  1037  2834               	goto	l1458
 11077  1038                     u8460:
 11078  1038  2839               	goto	l6461
 11079                           	
 11080  1039                     l1460:	
 11081                           	line	635
 11082                           	
 11083  1039                     l6461:	
 11084                           ;keyboard_and_mouse_in_a_glove.c: 635: TXREG = '?';
 11085  1039  303F               	movlw	(03Fh)
 11086  103A  0099               	movwf	(25)	;volatile
 11087                           	line	636
 11088                           	
 11089  103B                     l1461:	
 11090  103B  0008               	return
 11091                           	opt stack 0
 11092                           GLOBAL	__end_of_KeySend
 11093  103C                     	__end_of_KeySend:
 11094 ;; =============== function _KeySend ends ============
 11095                           
 11096                           	signat	_KeySend,4216
 11097                           	global	_InterruptEn
 11098                           psect	text383,local,class=CODE,delta=2
 11099                           global __ptext383
 11100  1E93                     __ptext383:
 11101                           
 11102 ;; *************** function _InterruptEn *****************
 11103 ;; Defined at:
 11104 ;;		line 550 in file "F:\ELECTRONIC\2015\Projects\40. Mouse with keyboard\PGM\Keyboard and Mouse in a glove\ver3\keyboar
       d_and_mouse_in_a_glove.c"
 11105 ;; Parameters:    Size  Location     Type
 11106 ;;		None
 11107 ;; Auto vars:     Size  Location     Type
 11108 ;;		None
 11109 ;; Return value:  Size  Location     Type
 11110 ;;		None               void
 11111 ;; Registers used:
 11112 ;;		None
 11113 ;; Tracked objects:
 11114 ;;		On entry : 0/0
 11115 ;;		On exit  : 0/0
 11116 ;;		Unchanged: 0/0
 11117 ;; Data sizes:     COMMON   BANK0   BANK1   BANK3   BANK2
 11118 ;;      Params:         0       0       0       0       0
 11119 ;;      Locals:         0       0       0       0       0
 11120 ;;      Temps:          0       0       0       0       0
 11121 ;;      Totals:         0       0       0       0       0
 11122 ;;Total ram usage:        0 bytes
 11123 ;; Hardware stack levels used:    1
 11124 ;; Hardware stack levels required when called:    1
 11125 ;; This function calls:
 11126 ;;		Nothing
 11127 ;; This function is called by:
 11128 ;;		_main
 11129 ;; This function uses a non-reentrant model
 11130 ;;
 11131                           psect	text383
 11132                           	file	"F:\ELECTRONIC\2015\Projects\40. Mouse with keyboard\PGM\Keyboard and Mouse in a g
                                 love\ver3\keyboard_and_mouse_in_a_glove.c"
 11133                           	line	550
 11134                           	global	__size_of_InterruptEn
 11135  0013                     	__size_of_InterruptEn	equ	__end_of_InterruptEn-_InterruptEn
 11136                           	
 11137  1E93                     _InterruptEn:	
 11138                           	opt	stack 6
 11139                           ; Regs used in _InterruptEn: []
 11140                           	line	552
 11141                           	
 11142  1E93                     l6447:	
 11143                           ;keyboard_and_mouse_in_a_glove.c: 552: RBIE = 0;
 11144  1E93  118B               	bcf	(91/8),(91)&7
 11145                           	line	553
 11146                           ;keyboard_and_mouse_in_a_glove.c: 553: INTE = 0;
 11147  1E94  120B               	bcf	(92/8),(92)&7
 11148                           	line	555
 11149                           ;keyboard_and_mouse_in_a_glove.c: 555: PSPIE = 0;
 11150  1E95  1683               	bsf	status, 5	;RP0=1, select bank1
 11151  1E96  1303               	bcf	status, 6	;RP1=0, select bank1
 11152  1E97  138C               	bcf	(1127/8)^080h,(1127)&7
 11153                           	line	556
 11154                           ;keyboard_and_mouse_in_a_glove.c: 556: ADIE = 0;
 11155  1E98  130C               	bcf	(1126/8)^080h,(1126)&7
 11156                           	line	558
 11157                           ;keyboard_and_mouse_in_a_glove.c: 558: TXIE = 0;
 11158  1E99  120C               	bcf	(1124/8)^080h,(1124)&7
 11159                           	line	559
 11160                           ;keyboard_and_mouse_in_a_glove.c: 559: RCIE = 0;
 11161  1E9A  128C               	bcf	(1125/8)^080h,(1125)&7
 11162                           	line	561
 11163                           ;keyboard_and_mouse_in_a_glove.c: 561: SSPIE = 0;
 11164  1E9B  118C               	bcf	(1123/8)^080h,(1123)&7
 11165                           	line	562
 11166                           ;keyboard_and_mouse_in_a_glove.c: 562: CCP1IE = 0;
 11167  1E9C  110C               	bcf	(1122/8)^080h,(1122)&7
 11168                           	line	564
 11169                           ;keyboard_and_mouse_in_a_glove.c: 564: TMR1IE = 1;
 11170  1E9D  140C               	bsf	(1120/8)^080h,(1120)&7
 11171                           	line	565
 11172                           ;keyboard_and_mouse_in_a_glove.c: 565: TMR2IE = 0;
 11173  1E9E  108C               	bcf	(1121/8)^080h,(1121)&7
 11174                           	line	566
 11175                           ;keyboard_and_mouse_in_a_glove.c: 566: T0IE = 0;
 11176  1E9F  128B               	bcf	(93/8),(93)&7
 11177                           	line	568
 11178                           ;keyboard_and_mouse_in_a_glove.c: 568: EEIE = 0;
 11179  1EA0  120D               	bcf	(1132/8)^080h,(1132)&7
 11180                           	line	569
 11181                           ;keyboard_and_mouse_in_a_glove.c: 569: BCLIE = 0;
 11182  1EA1  118D               	bcf	(1131/8)^080h,(1131)&7
 11183                           	line	570
 11184                           ;keyboard_and_mouse_in_a_glove.c: 570: CCP2IE = 0;
 11185  1EA2  100D               	bcf	(1128/8)^080h,(1128)&7
 11186                           	line	573
 11187                           ;keyboard_and_mouse_in_a_glove.c: 573: GIE = 1;
 11188  1EA3  178B               	bsf	(95/8),(95)&7
 11189                           	line	574
 11190                           ;keyboard_and_mouse_in_a_glove.c: 574: PEIE = 1;
 11191  1EA4  170B               	bsf	(94/8),(94)&7
 11192                           	line	576
 11193                           	
 11194  1EA5                     l1377:	
 11195  1EA5  0008               	return
 11196                           	opt stack 0
 11197                           GLOBAL	__end_of_InterruptEn
 11198  1EA6                     	__end_of_InterruptEn:
 11199 ;; =============== function _InterruptEn ends ============
 11200                           
 11201                           	signat	_InterruptEn,88
 11202                           	global	_isr
 11203                           psect	text384,local,class=CODE,delta=2
 11204                           global __ptext384
 11205  1F52                     __ptext384:
 11206                           
 11207 ;; *************** function _isr *****************
 11208 ;; Defined at:
 11209 ;;		line 518 in file "F:\ELECTRONIC\2015\Projects\40. Mouse with keyboard\PGM\Keyboard and Mouse in a glove\ver3\keyboar
       d_and_mouse_in_a_glove.c"
 11210 ;; Parameters:    Size  Location     Type
 11211 ;;		None
 11212 ;; Auto vars:     Size  Location     Type
 11213 ;;		None
 11214 ;; Return value:  Size  Location     Type
 11215 ;;		None               void
 11216 ;; Registers used:
 11217 ;;		wreg, status,2, status,0
 11218 ;; Tracked objects:
 11219 ;;		On entry : 0/0
 11220 ;;		On exit  : 0/0
 11221 ;;		Unchanged: 0/0
 11222 ;; Data sizes:     COMMON   BANK0   BANK1   BANK3   BANK2
 11223 ;;      Params:         0       0       0       0       0
 11224 ;;      Locals:         0       0       0       0       0
 11225 ;;      Temps:          5       0       0       0       0
 11226 ;;      Totals:         5       0       0       0       0
 11227 ;;Total ram usage:        5 bytes
 11228 ;; Hardware stack levels used:    1
 11229 ;; This function calls:
 11230 ;;		Nothing
 11231 ;; This function is called by:
 11232 ;;		Interrupt level 1
 11233 ;; This function uses a non-reentrant model
 11234 ;;
 11235                           psect	text384
 11236                           	file	"F:\ELECTRONIC\2015\Projects\40. Mouse with keyboard\PGM\Keyboard and Mouse in a g
                                 love\ver3\keyboard_and_mouse_in_a_glove.c"
 11237                           	line	518
 11238                           	global	__size_of_isr
 11239  004E                     	__size_of_isr	equ	__end_of_isr-_isr
 11240                           	
 11241  1F52                     _isr:	
 11242                           	opt	stack 5
 11243                           ; Regs used in _isr: [wreg+status,2+status,0]
 11244                           psect	intentry,class=CODE,delta=2
 11245                           global __pintentry
 11246  0004                     __pintentry:
 11247                           global interrupt_function
 11248  0004                     interrupt_function:
 11249                           	global saved_w
 11250  007E                     	saved_w	set	btemp+0
 11251  0004  00FE               	movwf	saved_w
 11252  0005  0E03               	swapf	status,w
 11253  0006  00F1               	movwf	(??_isr+1)
 11254  0007  0804               	movf	fsr0,w
 11255  0008  00F2               	movwf	(??_isr+2)
 11256  0009  080A               	movf	pclath,w
 11257  000A  00F3               	movwf	(??_isr+3)
 11258  000B  1283               	bcf	status, 5	;RP0=0, select bank0
 11259  000C  1303               	bcf	status, 6	;RP1=0, select bank0
 11260  000D  087F               	movf	btemp+1,w
 11261  000E  00F4               	movwf	(??_isr+4)
 11262  000F  160A  158A  2F52   	ljmp	_isr
 11263                           psect	text384
 11264                           	line	520
 11265                           	
 11266  1F52                     i1l5017:	
 11267                           ;keyboard_and_mouse_in_a_glove.c: 520: if(TMR1IF==1){
 11268  1F52  1C0C               	btfss	(96/8),(96)&7
 11269  1F53  2F55               	goto	u546_21
 11270  1F54  2F56               	goto	u546_20
 11271  1F55                     u546_21:
 11272  1F55  2F95               	goto	i1l1374
 11273  1F56                     u546_20:
 11274                           	line	525
 11275                           	
 11276  1F56                     i1l5019:	
 11277                           ;keyboard_and_mouse_in_a_glove.c: 525: if( counter>0 ) counter--;
 11278  1F56  0840               	movf	(_counter+1),w
 11279  1F57  043F               	iorwf	(_counter),w
 11280  1F58  1903               	skipnz
 11281  1F59  2F5B               	goto	u547_21
 11282  1F5A  2F5C               	goto	u547_20
 11283  1F5B                     u547_21:
 11284  1F5B  2F63               	goto	i1l5023
 11285  1F5C                     u547_20:
 11286                           	
 11287  1F5C                     i1l5021:	
 11288  1F5C  3001               	movlw	low(01h)
 11289  1F5D  02BF               	subwf	(_counter),f
 11290  1F5E  3000               	movlw	high(01h)
 11291  1F5F  1C03               	skipc
 11292  1F60  03C0               	decf	(_counter+1),f
 11293  1F61  02C0               	subwf	(_counter+1),f
 11294  1F62  2F63               	goto	i1l5023
 11295                           	
 11296  1F63                     i1l1369:	
 11297                           	line	526
 11298                           	
 11299  1F63                     i1l5023:	
 11300                           ;keyboard_and_mouse_in_a_glove.c: 526: msecond ++;
 11301  1F63  3001               	movlw	(01h)
 11302  1F64  00F0               	movwf	(??_isr+0)+0
 11303  1F65  0870               	movf	(??_isr+0)+0,w
 11304  1F66  07F7               	addwf	(_msecond),f
 11305                           	line	527
 11306                           	
 11307  1F67                     i1l5025:	
 11308                           ;keyboard_and_mouse_in_a_glove.c: 527: if(msecond == 10)
 11309  1F67  0877               	movf	(_msecond),w
 11310  1F68  3A0A               	xorlw	0Ah
 11311  1F69  1D03               	skipz
 11312  1F6A  2F6C               	goto	u548_21
 11313  1F6B  2F6D               	goto	u548_20
 11314  1F6C                     u548_21:
 11315  1F6C  2F8F               	goto	i1l5047
 11316  1F6D                     u548_20:
 11317                           	line	529
 11318                           	
 11319  1F6D                     i1l5027:	
 11320                           ;keyboard_and_mouse_in_a_glove.c: 528: {
 11321                           ;keyboard_and_mouse_in_a_glove.c: 529: second ++;
 11322  1F6D  3001               	movlw	(01h)
 11323  1F6E  00F0               	movwf	(??_isr+0)+0
 11324  1F6F  0870               	movf	(??_isr+0)+0,w
 11325  1F70  07F8               	addwf	(_second),f
 11326                           	line	530
 11327                           	
 11328  1F71                     i1l5029:	
 11329                           ;keyboard_and_mouse_in_a_glove.c: 530: msecond = 0;
 11330  1F71  01F7               	clrf	(_msecond)
 11331                           	line	531
 11332                           	
 11333  1F72                     i1l5031:	
 11334                           ;keyboard_and_mouse_in_a_glove.c: 531: RC0 = !RC0;
 11335  1F72  3001               	movlw	1<<((56)&7)
 11336  1F73  0687               	xorwf	((56)/8),f
 11337                           	line	532
 11338                           	
 11339  1F74                     i1l5033:	
 11340                           ;keyboard_and_mouse_in_a_glove.c: 532: if( second == 60)
 11341  1F74  0878               	movf	(_second),w
 11342  1F75  3A3C               	xorlw	03Ch
 11343  1F76  1D03               	skipz
 11344  1F77  2F79               	goto	u549_21
 11345  1F78  2F7A               	goto	u549_20
 11346  1F79                     u549_21:
 11347  1F79  2F8F               	goto	i1l5047
 11348  1F7A                     u549_20:
 11349                           	line	534
 11350                           	
 11351  1F7A                     i1l5035:	
 11352                           ;keyboard_and_mouse_in_a_glove.c: 533: {
 11353                           ;keyboard_and_mouse_in_a_glove.c: 534: minute ++;
 11354  1F7A  3001               	movlw	(01h)
 11355  1F7B  00F0               	movwf	(??_isr+0)+0
 11356  1F7C  0870               	movf	(??_isr+0)+0,w
 11357  1F7D  07F6               	addwf	(_minute),f
 11358                           	line	535
 11359                           	
 11360  1F7E                     i1l5037:	
 11361                           ;keyboard_and_mouse_in_a_glove.c: 535: second = 0;
 11362  1F7E  01F8               	clrf	(_second)
 11363                           	line	536
 11364                           	
 11365  1F7F                     i1l5039:	
 11366                           ;keyboard_and_mouse_in_a_glove.c: 536: if( minute == 60)
 11367  1F7F  0876               	movf	(_minute),w
 11368  1F80  3A3C               	xorlw	03Ch
 11369  1F81  1D03               	skipz
 11370  1F82  2F84               	goto	u550_21
 11371  1F83  2F85               	goto	u550_20
 11372  1F84                     u550_21:
 11373  1F84  2F8F               	goto	i1l5047
 11374  1F85                     u550_20:
 11375                           	line	538
 11376                           	
 11377  1F85                     i1l5041:	
 11378                           ;keyboard_and_mouse_in_a_glove.c: 537: {
 11379                           ;keyboard_and_mouse_in_a_glove.c: 538: minute = 0;
 11380  1F85  01F6               	clrf	(_minute)
 11381                           	line	539
 11382                           	
 11383  1F86                     i1l5043:	
 11384                           ;keyboard_and_mouse_in_a_glove.c: 539: hour ++;
 11385  1F86  3001               	movlw	(01h)
 11386  1F87  00F0               	movwf	(??_isr+0)+0
 11387  1F88  0870               	movf	(??_isr+0)+0,w
 11388  1F89  07F5               	addwf	(_hour),f
 11389  1F8A  2F8F               	goto	i1l5047
 11390                           	line	540
 11391                           	
 11392  1F8B                     i1l5045:	
 11393  1F8B  2F8F               	goto	i1l5047
 11394                           	
 11395  1F8C                     i1l1373:	
 11396  1F8C  2F8F               	goto	i1l5047
 11397                           	line	541
 11398                           	
 11399  1F8D                     i1l1372:	
 11400  1F8D  2F8F               	goto	i1l5047
 11401                           	line	542
 11402                           	
 11403  1F8E                     i1l1371:	
 11404  1F8E  2F8F               	goto	i1l5047
 11405                           	line	543
 11406                           	
 11407  1F8F                     i1l1370:	
 11408                           	line	544
 11409                           	
 11410  1F8F                     i1l5047:	
 11411                           ;keyboard_and_mouse_in_a_glove.c: 541: }
 11412                           ;keyboard_and_mouse_in_a_glove.c: 542: }
 11413                           ;keyboard_and_mouse_in_a_glove.c: 543: }
 11414                           ;keyboard_and_mouse_in_a_glove.c: 544: TMR1L = 176;
 11415  1F8F  30B0               	movlw	(0B0h)
 11416  1F90  008E               	movwf	(14)	;volatile
 11417                           	line	545
 11418                           ;keyboard_and_mouse_in_a_glove.c: 545: TMR1H = 60;
 11419  1F91  303C               	movlw	(03Ch)
 11420  1F92  008F               	movwf	(15)	;volatile
 11421                           	line	546
 11422                           	
 11423  1F93                     i1l5049:	
 11424                           ;keyboard_and_mouse_in_a_glove.c: 546: TMR1IF = 0;
 11425  1F93  100C               	bcf	(96/8),(96)&7
 11426  1F94  2F95               	goto	i1l1374
 11427                           	line	547
 11428                           	
 11429  1F95                     i1l1368:	
 11430                           	line	548
 11431                           	
 11432  1F95                     i1l1374:	
 11433  1F95  0874               	movf	(??_isr+4),w
 11434  1F96  00FF               	movwf	btemp+1
 11435  1F97  0873               	movf	(??_isr+3),w
 11436  1F98  008A               	movwf	pclath
 11437  1F99  0872               	movf	(??_isr+2),w
 11438  1F9A  0084               	movwf	fsr0
 11439  1F9B  0E71               	swapf	(??_isr+1)^0FFFFFF80h,w
 11440  1F9C  0083               	movwf	status
 11441  1F9D  0EFE               	swapf	saved_w,f
 11442  1F9E  0E7E               	swapf	saved_w,w
 11443  1F9F  0009               	retfie
 11444                           	opt stack 0
 11445                           GLOBAL	__end_of_isr
 11446  1FA0                     	__end_of_isr:
 11447 ;; =============== function _isr ends ============
 11448                           
 11449                           	signat	_isr,88
 11450                           psect	text385,local,class=CODE,delta=2
 11451                           global __ptext385
 11452  0000                     __ptext385:
 11453                           	global	btemp
 11454  007E                     	btemp set 07Eh
 11455                           
 11456                           	DABS	1,126,2	;btemp
 11457                           	global	wtemp0
 11458  007E                     	wtemp0 set btemp


HI-TECH Software PICC Macro Assembler V9.83 build 10920 
Symbol Table                                                                                   Sun Aug 30 14:54:44 2015

                     _GO 00FA                       _RD 0C60                       _WR 0C61  
                    l800 0FF8                      l801 0041                      l721 1210  
                    l810 0649                      l802 01B4                      l730 1230  
                    l722 060E                      l811 0650                      l803 0629  
                    l731 1235                      l723 1220                      l900 10DF  
                    l820 01B1                      l812 0659                      l804 0629  
                    l740 12B5                      l732 124C                      l724 1220  
                    l901 10DF                      l821 0172                      l813 0659  
                    l805 0630                      l741 12B8                      l733 124C  
                    l725 1225                      l910 110F                      l902 10E6  
                    l830 01CC                      l822 01B0                      l814 0660  
                    l806 0639                      l750 1712                      l742 12B8  
                    l734 1251                      l726 1228                      l911 1116  
                    l903 10EF                      l831 01D5                      l823 018F  
                    l815 0677                      l807 0639                      l751 1712  
                    l743 12BD                      l735 127B                      l727 1228  
                    l920 11A1                      l912 112D                      l904 10EF  
                    l840 0213                      l832 01D5                      l816 01B3  
                    l824 01AF                      l808 0640                      l760 1795  
                    l752 1717                      l744 12C0                      l736 127B  
                    l728 122D                      l913 11B6                      l921 11B2  
                    l905 10F6                      l841 1422                      l833 01DC  
                    l825 01AE                      l817 0138                      l809 0649  
                    l761 1795                      l753 1741                      l745 12C0  
                    l737 1280                      l729 1230                      l826 0040  
                    l850 003F                      l922 003C                      l930 06C1  
                    l914 114A                      l906 10FF                      l842 0230  
                    l834 01E5                      l818 01B2                      l770 17C5  
                    l762 179C                      l754 1741                      l746 16F3  
                    l738 12B0                      l931 06C1                      l923 077B  
                    l915 11B5                      l907 10FF                      l851 12FC  
                    l843 1421                      l835 01E5                      l827 1423  
                    l819 0155                      l771 17CC                      l763 17A5  
                    l755 1746                      l747 16F6                      l739 12B0  
                    l940 0729                      l932 06C8                      l924 06A1  
                    l916 1167                      l908 1106                      l860 145B  
                    l852 1434                      l844 13D1                      l836 01EC  
                    l828 01C5                      l772 060D                      l780 05A0  
                    l764 17A5                      l756 1776                      l748 16F6  
                    l941 0778                      l933 06D1                      l925 06A1  
                    l917 11B4                      l909 110F                      l861 1464  
                    l853 1434                      l845 1420                      l837 01F5  
                    l829 01C5                      l781 05A0                      l773 05BD  
                    l765 17AC                      l757 1776                      l749 16FB  
                    l950 0793                      l942 0746                      l934 06D1  
                    l926 06A8                      l918 1184                      l870 12C7  
                    l862 1464                      l854 143B                      l846 13EE  
                    l838 01F5                      l790 05D5                      l782 05A7  
                    l774 17F7                      l766 17B5                      l758 177B  
                    l951 079C                      l943 0777                      l935 06D8  
                    l927 06B1                      l919 11B3                      l871 12F8  
                    l863 146B                      l855 1444                      l847 141F  
                    l839 01FC                      l791 05DE                      l783 05B0  
                    l775 17F7                      l767 17B5                      l759 17E6  
                    l960 1512                      l952 079C                      l944 0763  
                    l936 06EF                      l928 06B1                      l880 131D  
                    l872 12E4                      l864 1482                      l856 1444  
                    l848 140B                      l792 05DE                      l784 05B0  
                    l776 0587                      l768 17BC                      l961 15BB  
                    l953 14DB                      l937 077A                      l945 0774  
                    l929 06B8                      l881 1324                      l865 12FB  
                    l873 12F5                      l857 144B                      l849 141C  
                    l793 05E5                      l785 05B7                      l777 0590  
                    l769 17C5                      l874 003E                      l946 003B  
                    l970 15A3                      l962 152F                      l954 14E4  
                    l938 070C                      l890 1378                      l882 132D  
                    l866 149F                      l858 1454                      l786 060C  
                    l794 05EE                      l778 0590                      l963 15BA  
                    l971 15B4                      l955 14E4                      l947 15BC  
                    l939 0779                      l891 10CE                      l883 132D  
                    l875 10D0                      l867 12FA                      l859 1454  
                    l787 060B                      l795 05EE                      l779 0597  
                    l972 003A                      l980 15EF                      l964 154C  
                    l956 14EB                      l948 078C                      l892 1395  
                    l884 1334                      l876 130D                      l868 14BC  
                    l796 05F5                      l788 05CE                      l981 15EF  
                    l973 16A9                      l965 15B9                      l957 14F4  
                    l949 078C                      l893 10CD                      l885 133D  
                    l877 130D                      l869 12F9                      l797 05FE  
                    l789 05CE                      l990 1657                      l982 15F6  
                    l974 15CD                      l966 1569                      l958 14F4  
                    l894 13B2                      l886 133D                      l878 1314  
                    l798 05FE                      l991 16A6                      l983 15FF  
                    l975 15CD                      l967 15B8                      l959 14FB  
                    l895 10CC                      l887 1344                      l879 131D  
                    l799 0605                      l992 1674                      l984 15FF  
                    l976 15D4                      l968 1586                      l896 10B8  
                    l888 135B                      l993 16A5                      l985 1606  
                    l977 15DD                      l969 15B7                      l889 10CF  
                    l897 10C9                      l898 003D                      l994 1691  
                    l986 161D                      l978 15DD                      l987 16A8  
                    l995 16A2                      l979 15E6                      l899 11B7  
                    _GIE 005F                      l996 0039                      l988 163A  
                    l997 0310                      l989 16A7                      l998 16BA  
                    l999 16BA                      _RB0 0030                      _RB1 0031  
                    _RC0 0038                      _RB2 0032                      _RC1 0039  
                    _RB3 0033                      _RC2 003A                      _RB4 0034  
                    _RC3 003B                      _RB5 0035                      _RC4 003C  
                    _RD3 0043                      _RC5 003D                      _RD4 0044  
                    _RD5 0045                      _RD6 0046                      _RX9 00C6  
                    _TX9 04C6               KeySend@key 0020                      _isr 1F52  
                    _nop 03CA                      fsr0 0004                     l1000 16C1  
                   l1001 16CA                     l1010 0266                     l1002 16CA  
                   l1011 030F                     l1003 16D1                     l1100 00DB  
                   l1020 02F7                     l1012 0283                     l1004 16DA  
                   l1101 0135                     l1013 030E                     l1021 0308  
                   l1005 16DA                     l1110 0371                     l1102 00F8  
                   l1022 0038                     l1030 0340                     l1014 02A0  
                   l1006 16E1                     l1111 0378                     l1103 0134  
                   l1031 0340                     l1023 0475                     l1015 030D  
                   l1007 16EA                     l1200 0A93                     l1120 03A8  
                   l1112 0381                     l1104 0115                     l1040 048B  
                   l1032 0347                     l1024 0320                     l1016 02BD  
                   l1008 16EA                     l1201 0A81                     l1121 03BF  
                   l1113 0381                     l1105 0133                     l1041 0494  
                   l1033 0350                     l1025 0320                     l1017 030C  
                   l1009 024F                     l1210 0ABD                     l1202 0A92  
                   l1122 044A                     l1130 0444                     l1114 0388  
                   l1106 0132                     l1050 04D2                     l1042 0494  
                   l1034 0350                     l1026 0327                     l1018 02DA  
                   l1107 0FF6                     l1131 0FF5                     l1203 0FF2  
                   l1211 0AC6                     l1123 03DC                     l1115 0391  
                   l1051 04F2                     l1043 049B                     l1035 0356  
                   l1027 0330                     l1019 030B                     l1300 0E6A  
                   l1220 0B7C                     l1212 0AC6                     l1204 0B7E  
                   l1140 0811                     l1132 08C9                     l1124 0449  
                   l1116 0391                     l1108 044B                     l1036 0037  
                   l1060 0518                     l1052 04F1                     l1044 04A4  
                   l1028 0330                     l1301 0E58                     l1221 0B2E  
                   l1213 0ACD                     l1205 0AA6                     l1141 0818  
                   l1133 045C                     l1125 03F9                     l1117 0398  
                   l1109 0371                     l1053 0036                     l1061 0521  
                   l1045 04A4                     l1037 04F3                     l1029 0337  
                   l1310 0E94                     l1302 0E69                     l1230 0B8D  
                   l1222 0B7B                     l1214 0AD6                     l1206 0AA6  
                   l1150 08C6                     l1142 0821                     l1134 045C  
                   l1126 0448                     l1118 03A1                     l1070 055E  
                   l1062 0521                     l1054 0550                     l1046 04AB  
                   l1038 0484                     l1303 0FEE                     l1311 0E9D  
                   l1231 0B94                     l1223 0B4B                     l1215 0AD6  
                   l1207 0AAD                     l1151 0896                     l1143 0821  
                   l1135 0463                     l1127 0416                     l1119 03A1  
                   l1071 055E                     l1063 0528                     l1055 0501  
                   l1047 04B4                     l1039 0484                     l1320 0ECE  
                   l1312 0E9D                     l1304 0EBF                     l1240 0BC4  
                   l1232 0B9D                     l1224 0B7A                     l1216 0ADD  
                   l1208 0AB6                     l1160 08E8                     l1152 08C5  
                   l1144 0828                     l1136 046C                     l1128 0447  
                   l1080 001E                     l1072 0565                     l1064 0531  
                   l1056 0501                     l1048 04B4                     l1401 1EDA  
                   l1321 0ED5                     l1313 0EA4                     l1305 0E7D  
                   l1241 0BDB                     l1233 0B9D                     l1225 0B68  
                   l1217 0AF4                     l1209 0AB6                     l1161 08E8  
                   l1153 08B3                     l1145 083F                     l1137 046C  
                   l1129 0433                     l1081 0025                     l1073 056E  
                   l1065 0531                     l1057 0508                     l1049 04BB  
                   l1410 1EF4                     l1402 1EDA                     l1082 0FF7  
                   l1330 0F05                     l1322 0EDE                     l1314 0EAD  
                   l1306 0E7D                     l1242 0C82                     l1250 0C7E  
                   l1234 0BA4                     l1218 0B7D                     l1226 0B79  
                   l1170 09AF                     l1162 08EF                     l1146 08C8  
                   l1154 08C4                     l1138 0808                     l1090 0073  
                   l1074 056E                     l1066 0538                     l1058 0511  
                   l1411 1EF4                     l1403 1EE1                     l1155 0FF4  
                   l1227 0FF1                     l1331 0F1C                     l1323 0EDE  
                   l1315 0EAD                     l1307 0E84                     l1251 0C6C  
                   l1243 0BF8                     l1235 0BAD                     l1219 0B11  
                   l1171 0943                     l1163 08F8                     l1147 085C  
                   l1139 0811                     l1091 0073                     l1083 0362  
                   l1075 0575                     l1067 054F                     l1059 0511  
                   l1412 1EF9                     l1404 1EE4                     l1340 0F59  
                   l1332 0F3A                     l1324 0EE5                     l1316 0EB3  
                   l1308 0E8D                     l1260 0CA9                     l1244 0C81  
                   l1252 0C7D                     l1236 0BAD                     l1228 0C83  
                   l1180 0A97                     l1172 09AE                     l1164 08F8  
                   l1156 09B0                     l1148 08C7                     l1092 007A  
                   l1084 0053                     l1068 0035                     l1076 057E  
                   l1413 1EFC                     l1405 1EE4                     l1253 0FF0  
                   l1317 0FED                     l1341 0F60                     l1333 0F39  
                   l1325 0EEE                     l1309 0E8D                     l1261 0CB2  
                   l1245 0C15                     l1237 0BB4                     l1229 0B8D  
                   l1181 09BF                     l1173 0960                     l1165 08FF  
                   l1157 08D8                     l1149 0879                     l1093 0083  
                   l1085 0053                     l1069 0034                     l1077 057E  
                   l1414 1EFC                     l1406 1EE9                     l1334 0FEC  
                   l1350 0FEA                     l1342 0F69                     l1326 0EEE  
                   l1318 0F3B                     l1270 0D68                     l1262 0CB2  
                   l1254 0D6A                     l1246 0C80                     l1238 0BBD  
                   l1190 09EF                     l1182 09BF                     l1174 09AD  
                   l1166 0908                     l1158 08D8                     l1094 0083  
                   l1086 005A                     l1078 0015                     l1415 1F01  
                   l1407 1EEC                     l1351 0FA6                     l1343 0F69  
                   l1335 0F98                     l1327 0EF5                     l1319 0ECE  
                   l1271 0D1A                     l1263 0CB9                     l1255 0C92  
                   l1247 0C32                     l1239 0BBD                     l1191 09EF  
                   l1183 09C6                     l1175 097D                     l1167 0908  
                   l1159 08DF                     l1095 008A                     l1087 0063  
                   l1079 001E                     l1416 1F04                     l1408 1EEC  
                   l1360 0FD6                     l1352 0FA6                     l1344 0F70  
                   l1336 0F49                     l1328 0EFE                     l1280 0D79  
                   l1272 0D67                     l1264 0CC2                     l1256 0C92  
                   l1248 0C7F                     l1192 09F6                     l1184 09CF  
                   l1176 09AC                     l1168 090F                     l1096 00A1  
                   l1088 0063                     l1417 1F04                     l1409 1EF1  
                   l1361 0FD6                     l1353 0FAD                     l1345 0F79  
                   l1337 0F49                     l1329 0EFE                     l1281 0D80  
                   l1273 0D37                     l1265 0CC2                     l1257 0C99  
                   l1249 0C4F                     l1193 0A0D                     l1185 09CF  
                   l1177 099A                     l1169 0926                     l1097 0137  
                   l1089 006A                     l1450 101C                     l1418 1F09  
                   l1362 0FDD                     l1354 0FB6                     l1346 0F79  
                   l1338 0F50                     l1290 0DB0                     l1282 0D89  
                   l1274 0D66                     l1266 0CC9                     l1258 0CA2  
                   l1194 0A96                     l1186 09D6                     l1178 09AB  
                   l1098 00BE                     l1451 1021                     l1443 100C  
                   l1419 1F0B                     l1363 0FFA                     l1179 0FF3  
                   l1355 0FB6                     l1347 0F80                     l1339 0F59  
                   l1291 0DC7                     l1283 0D89                     l1275 0D54  
                   l1267 0CE0                     l1259 0CA2                     l1195 0A2A  
                   l1187 09DF                     l1099 0136                     l1460 1039  
                   l1452 1024                     l1444 100C                     l1380 1EA7  
                   l1364 0FFD                     l1356 0FBD                     l1348 0F97  
                   l1292 0E6E                     l1284 0D90                     l1268 0D69  
                   l1276 0D65                     l1196 0A95                     l1188 09DF  
                   l1461 103B                     l1453 1024                     l1445 1011  
                   l1381 1EA7                     l1365 0FFD                     l1277 0FEF  
                   l1349 0FEB                     l1357 0FC6                     l1293 0DE4  
                   l1285 0D99                     l1269 0CFD                     l1197 0A47  
                   l1189 09E6                     l1454 1029                     l1446 1014  
                   l1390 1EC1                     l1382 1EAE                     l1470 10B7  
                   l1358 0FC6                     l1294 0E6D                     l1286 0D99  
                   l1278 0E6F                     l1198 0A94                     l1455 102C  
                   l1447 1014                     l1391 1EC6                     l1383 1EB1  
                   l1359 0FCD                     l1295 0E01                     l1287 0DA0  
                   l1279 0D79                     l1199 0A64                     l1456 102C  
                   l1448 1019                     l1392 1EC9                     l1384 1EB1  
                   l1464 1077                     l1296 0E6C                     l1288 0DA9  
                   l1377 1EA5                     l1457 1031                     l1449 101C  
                   l1393 1EC9                     l1385 1EB6                     l1473 1F2C  
                   l1465 108C                     l1297 0E1E                     l1289 0DA9  
                   l1458 1034                     l1394 1ECE                     l1386 1EB9  
                   l1474 1F2C                     l1466 108C                     l1298 0E6B  
                   l1459 1034                     l1395 1ED1                     l1387 1EB9  
                   l1475 1F31                     l1467 10A1                     l1299 0E3B  
                   l1396 1ED1                     l1388 1EBE                     l1476 1F51  
                   l1468 10B7                     l1397 1ED6                     l1389 1EC1  
                   l1469 10B6                     l1398 1ED8                     l2470 1FE8  
                   l2471 1FF7                     l2472 1FFF                     l2480 07DE  
                   l2465 1FF8                     l2481 07ED                     l2466 1FC0  
                   l2482 07F5                     l2467 1FB3                     l2475 07EE  
                   l2468 1FC5                     l2476 07BF                     l2469 1FC6  
                   l2477 07B2                     l2478 07C4                     l2479 07C5  
                   l7001 0701                     l7011 0724                     l7003 0707  
                   l7101 15C3                     l7021 0746                     l7013 0729  
                   l7005 070C                     l7111 160C                     l7103 15D4  
                   l7031 0769                     l7023 074C                     l7015 072F  
                   l7007 0712                     l7201 02CF                     l7121 162F  
                   l7113 1612                     l7105 15E6                     l7041 14DB  
                   l7033 076F                     l7025 0758                     l7017 073B  
                   l7009 071E                     l7211 02F2                     l7203 02D5  
                   l7131 1652                     l7123 1635                     l7115 1618  
                   l7107 15F6                     l7051 150D                     l7043 14EB  
                   l7035 0781                     l7027 075E                     l7019 0741  
                   l6501 1FCE                     l7301 00A7                     l7221 0327  
                   l7213 02F7                     l7205 02DA                     l7141 1674  
                   l7133 1657                     l7125 163A                     l7117 161D  
                   l7109 1606                     l7061 152F                     l7053 1512  
                   l7045 14FB                     l7037 0782                     l7029 0763  
                   l6503 1FDC                     l6511 1FF8                     l7311 00D0  
                   l7303 00B3                     l7231 048B                     l7223 0337  
                   l7215 02FD                     l7207 02E0                     l7151 1697  
                   l7143 167A                     l7135 165D                     l7127 1640  
                   l7119 1623                     l7071 1552                     l7063 1535  
                   l7055 1518                     l7047 1501                     l7039 0793  
                   l6513 1FFF                     l6505 1FE6                     l6521 07BF  
                   l7401 0808                     l7321 00F3                     l7313 00D6  
                   l7305 00B9                     l7241 04C7                     l7233 049B  
                   l7225 0347                     l7217 0303                     l7209 02EC  
                   l7161 16D1                     l7153 169D                     l7145 1686  
                   l7137 1669                     l7129 164C                     l7081 157B  
                   l7073 155E                     l7065 1541                     l7057 1524  
                   l7049 1507                     l6601 11F8                     l6451 1011  
                   l6507 1FE8                     l6523 07C5                     l6531 07EE  
                   l6515 07A5                     l7411 083A                     l7403 0818  
                   l7331 0115                     l7323 00F8                     l7315 00DB  
                   l7307 00BE                     l7251 04EC                     l7243 04CD  
                   l7235 04AB                     l7227 0479                     l7219 0316  
                   l7171 0261                     l7163 16E1                     l7155 16AF  
                   l7147 168C                     l7139 166F                     l7091 159E  
                   l7083 1581                     l7075 1564                     l7067 1547  
                   l7059 152A                     l6611 11FF                     l6603 11FB  
                   l6461 1039                     l6453 1019                     l6509 1FF0  
                   l6533 07F5                     l6525 07D3                     l6517 07AE  
                   l6541 1F22                     l7501 099A                     l7421 085C  
                   l7413 083F                     l7405 0828                     l7341 0367  
                   l7333 011B                     l7325 00FE                     l7317 00E1  
                   l7309 00C4                     l7261 0538                     l7253 04F7  
                   l7245 04D2                     l7237 04BB                     l7229 047A  
                   l7181 0283                     l7173 0266                     l7165 024F  
                   l7157 16B0                     l7149 1691                     l7093 15A3  
                   l7085 1586                     l7077 1569                     l7069 154C  
                   l6701 0630                     l6621 120E                     l6613 1201  
                   l6605 11FC                     l6447 1E93                     l6455 1021  
                   l6471 1EC6                     l6463 1EA6                     l6527 07DE  
                   l6519 07B2                     l6551 1F51                     l6543 1F23  
                   l6535 1F0F                     l7511 09C6                     l7503 09A0  
                   l7431 087F                     l7423 0862                     l7415 0845  
                   l7407 082E                     l7351 03AE                     l7343 0378  
                   l7335 0127                     l7327 010A                     l7319 00ED  
                   l7271 0565                     l7263 053E                     l7255 0508  
                   l7247 04DA                     l7239 04C1                     l7191 02A6  
                   l7183 0289                     l7175 026C                     l7167 0255  
                   l7159 16C1                     l7095 15A9                     l7087 158C  
                   l7079 156F                     l6711 066C                     l6703 0640  
                   l6631 1225                     l6623 1210                     l6615 1203  
                   l6607 11FD                     _ADIE 0466                     l6457 1029  
                   l6449 100B                     l6473 1ECE                     l6465 1EAE  
                   l6481 1EE9                     l6529 07E6                     l6545 1F28  
                   l6537 1F1C                     l6561 1085                     l6553 103C  
                   l7601 0B40                     l7521 0A02                     l7513 09D6  
                   l7505 09A6                     l7441 08A8                     l7433 088B  
                   l7425 086E                     l7417 0851                     l7409 0834  
                   l7361 03D1                     l7353 03B4                     l7345 0388  
                   l7337 012D                     l7329 0110                     l7281 0048  
                   l7273 0575                     l7265 0544                     l7257 0518  
                   l7249 04E6                     l7193 02B2                     l7185 0295  
                   l7177 0278                     l7169 025B                     l7097 15AF  
                   l7089 1598                     l6801 1400                     l6721 0691  
                   l6713 0672                     l6705 0650                     l6641 12B5  
                   l6633 122D                     l6625 1211                     l6617 1206  
                   l6609 11FE                     l6459 1031                     l6475 1ED6  
                   l6467 1EB6                     l6483 1EF1                     l6491 1FA0  
                   l6547 1F31                     l6539 1F1F                     l6563 109A  
                   l6555 1062                     l7611 0B63                     l7603 0B46  
                   l7531 0A25                     l7523 0A08                     l7515 09E6  
                   l7507 09B4                     l7451 08CD                     l7443 08AE  
                   l7435 0891                     l7427 0874                     l7419 0857  
                   l7371 03F4                     l7363 03D7                     l7355 03BA  
                   l7347 0398                     l7339 0366                     l7291 008A  
                   l7283 0049                     l7275 0015                     l7267 054A  
                   l7259 0528                     l7195 02B8                     l7187 029B  
                   l7179 027E                     l7099 15C2                     l6811 1429  
                   l6803 1406                     l6731 0155                     l6723 0138  
                   l6715 0677                     l6707 0660                     l6651 1746  
                   l6643 12BD                     l6635 1235                     l6627 1217  
                   l6619 1209                     l6571 11CF                     ?_isr 0070  
                   l6469 1EBE                     l6485 1EF9                     l6477 1ED9  
                   l6493 1FAF                     l6549 1F4A                     l6565 10A1  
                   l6557 1070                     l7701 0CE0                     l7621 0B83  
                   l7613 0B68                     l7605 0B4B                     l7541 0A47  
                   l7533 0A2A                     l7525 0A0D                     l7517 09F6  
                   l7509 09B5                     l7461 090F                     l7453 08CE  
                   l7445 08B3                     l7437 0896                     l7429 0879  
                   l7381 0416                     l7373 03F9                     l7365 03DC  
                   l7357 03BF                     l7349 03A8                     l7293 0090  
                   l7285 005A                     l7277 0025                     l7269 0554  
                   l7197 02BD                     l7189 02A0                     l6901 1395  
                   l6821 146B                     l6813 142A                     l6805 140B  
                   l6741 0178                     l6733 015B                     l6725 013E  
                   l6717 067F                     l6709 0666                     l6661 17AC  
                   l6653 177B                     l6645 16F3                     l6637 1251  
                   l6629 121C                     l6581 11DD                     l6573 11D0  
                   l6487 1F01                     l6479 1EE1                     l6495 1FB3  
                   l6567 10AF                     l6559 1077                     l7711 0D03  
                   l7703 0CE6                     l7631 0BCA                     l7623 0B94  
                   l7615 0B6E                     l7607 0B51                     l7551 0A6A  
                   l7543 0A4D                     l7535 0A30                     l7527 0A13  
                   l7519 09FC                     l7471 092C                     l7463 0915  
                   l7455 08DF                     l7447 08B9                     l7439 089C  
                   l7391 0439                     l7383 041C                     l7375 03FF  
                   l7367 03E2                     l7359 03C5                     l7295 0096  
                   l7287 006A                     l7279 0027                     l7199 02C3  
                   l6911 13BA                     l6903 139B                     l6831 1488  
                   l6823 1471                     l6815 143B                     l6807 1411  
                   l6751 01A3                     l6743 0184                     l6735 0167  
                   l6727 014A                     l6719 068B                     l6671 17EC  
                   l6663 17BC                     l6655 1785                     l6647 16FB  
                   l6639 1280                     l6591 11E4                     l6583 11DE  
                   l6575 11D4                     l6489 1F09                     l6497 1FC0  
                   l7801 0E64                     l7721 0D2C                     l7713 0D0F  
                   l7705 0CF2                     l7641 0BED                     l7633 0BD0  
                   l7625 0BA4                     l7617 0B74                     l7609 0B5D  
                   l7561 0A8D                     l7553 0A76                     l7545 0A59  
                   l7537 0A3C                     l7529 0A1F                     l7481 0955  
                   l7473 0938                     l7465 091B                     l7457 08EF  
                   l7449 08BF                     l7393 043F                     l7385 0428  
                   l7377 040B                     l7369 03EE                     l7297 009C  
                   l7289 007A                     l6921 10C4                     l6913 13C6  
                   l6905 13A7                     l6841 14B1                     l6833 1494  
                   l6825 1477                     l6817 144B                     l6809 1417  
                   l6761 01DC                     l6753 01A9                     l6745 018A  
                   l6737 016D                     l6729 0150                     l6681 05B7  
                   l6673 17ED                     l6665 17CC                     l6657 178B  
                   l6649 1717                     l6593 11E5                     l6585 11DF  
                   l6577 11D8                     l6569 11BF                     l6499 1FC6  
                   l7811 0EC3                     l7803 0E73                     l7731 0D4F  
                   l7723 0D32                     l7715 0D15                     l7707 0CF8  
                   l7651 0C10                     l7643 0BF3                     l7635 0BD6  
                   l7627 0BB4                     l7619 0B82                     l7571 0ACD  
                   l7563 0A9B                     l7555 0A7C                     l7547 0A5F  
                   l7539 0A42                     l7491 0978                     l7483 095B  
                   l7475 093E                     l7467 0921                     l7459 08FF  
                   l7395 0451                     l7387 042E                     l7379 0411  
                   l7299 00A1                     l6931 1106                     l6923 10D4  
                   l6915 13CC                     l6907 13AD                     l6851 14D6  
                   l6843 14B7                     l6835 149A                     l6827 147D  
                   l6819 145B                     l6771 020E                     l6763 01EC  
                   l6755 01BA                     l6747 018F                     l6739 0172  
                   l6691 05F5                     l6683 05C3                     l6675 0587  
                   l6667 17D8                     l6659 179C                     l6595 11E7  
                   l6587 11E2                     l6579 11DA                     l7821 0F05  
                   l7813 0EC4                     l7805 0E84                     l7741 0D6F  
                   l7733 0D54                     l7725 0D37                     l7717 0D1A  
                   l7709 0CFD                     l7661 0C32                     l7653 0C15  
                   l7645 0BF8                     l7637 0BDB                     l7629 0BC4  
                   l7581 0AF4                     l7573 0ADD                     l7565 0A9C  
                   l7557 0A81                     l7549 0A64                     l7493 097D  
                   l7485 0960                     l7477 0943                     l7469 0926  
                   l7397 0452                     l7389 0433                     l6941 112D  
                   l6933 1116                     l6925 10D5                     l6917 10B8  
                   l6909 13B2                     l6861 12E4                     l6853 12C7  
                   l6845 14BC                     l6837 149F                     l6829 1482  
                   l6781 0230                     l6773 0213                     l6765 01FC  
                   l6757 01BB                     l6749 0197                     l6693 0605  
                   l6685 05C4                     l6677 0597                     l6669 17D9  
                   l6597 11E8                     l6589 11E3                     l7831 0F22  
                   l7823 0F0B                     l7815 0ED5                     l7807 0E94  
                   l7751 0DB6                     l7743 0D80                     l7735 0D5A  
                   l7727 0D3D                     l7719 0D20                     l7671 0C55  
                   l7663 0C38                     l7655 0C1B                     l7647 0BFE  
                   l7639 0BE1                     l7591 0B17                     l7583 0AFA  
                   l7575 0AE3                     l7567 0AAD                     l7559 0A87  
                   l7495 0983                     l7487 0966                     l7479 0949  
                   l7399 0463                     l6951 1150                     l6943 1133  
                   l6935 111C                     l6927 10E6                     l6919 10BE  
                   l6871 1314                     l6863 12EA                     l6855 12CD  
                   l6847 14C4                     l6839 14A5                     l6791 13D7  
                   l6783 0238                     l6775 0219                     l6767 0202  
                   l6759 01CC                     l6695 0617                     l6687 05D5  
                   l6679 05A7                     l6599 11E9                     l7841 0F60  
                   l7833 0F2E                     l7825 0F11                     l7817 0EE5  
                   l7809 0EA4                     l7761 0DD9                     l7753 0DBC  
                   l7745 0D90                     l7737 0D60                     l7729 0D49  
                   l7681 0C78                     l7673 0C61                     l7665 0C44  
                   l7657 0C27                     l7649 0C0A                     l7593 0B23  
                   l7585 0B06                     l7577 0AE9                     l7569 0ABD  
                   l7497 098F                     l7489 0972                     l6961 1179  
                   l6953 115C                     l6945 113F                     l6937 1122  
                   l6929 10F6                     l6881 1350                     l6873 1324  
                   l6865 12F0                     l6857 12D9                     l6849 14D0  
                   l6793 13E3                     l6785 0244                     l6777 0225  
                   l6769 0208                     l6697 061E                     l6689 05E5  
                   l7851 0F92                     l7843 0F70                     l7835 0F34  
                   l7827 0F17                     l7819 0EF5                     l7771 0DFC  
                   l7763 0DDF                     l7755 0DC2                     l7747 0DA0  
                   l7739 0D6E                     l7691 0CB9                     l7683 0C87  
                   l7675 0C67                     l7667 0C4A                     l7659 0C2D  
                   l7595 0B29                     l7587 0B0C                     l7579 0AEF  
                   l7499 0995                     l6971 119C                     l6963 117F  
                   l6955 1162                     l6947 1145                     l6939 1128  
                   l6891 1373                     l6883 1356                     l6875 1334  
                   l6867 1302                     l6859 12DF                     l6795 13E9  
                   l6787 024A                     l6779 022B                     l6699 061F  
                   _ADON 00F8                     l7861 0FDD                     l7853 0F9C  
                   l7845 0F80                     l7837 0F3F                     l7829 0F1C  
                   l7781 0E1E                     l7773 0E01                     l7765 0DE4  
                   l7757 0DC7                     l7749 0DB0                     l7693 0CC9  
                   l7685 0C88                     l7677 0C6C                     l7669 0C4F  
                   l7597 0B2E                     l7589 0B11                     l6981 0697  
                   l6973 11A1                     l6965 1184                     l6957 1167  
                   l6949 114A                     l6893 1378                     l6885 135B  
                   l6877 1344                     l6869 1303                     l6797 13EE  
                   l6789 13D1                     l7863 0FDF                     l7855 0FAD  
                   l7847 0F86                     l7839 0F50                     l7791 0E41  
                   l7783 0E24                     l7775 0E07                     l7767 0DEA  
                   l7759 0DCD                     l7695 0CCF                     l7687 0C99  
                   l7679 0C72                     l7599 0B34                     l6991 06DE  
                   l6983 06A8                     l6975 11A7                     l6967 118A  
                   l6959 116D                     l6895 137E                     l6887 1361  
                   l6879 134A                     l6799 13F4                     l7857 0FBD  
                   l7849 0F8C                     l7793 0E4D                     l7785 0E30  
                   l7777 0E13                     l7769 0DF6                     l7697 0CD5  
                   l7689 0CA9                     l6993 06E4                     l6985 06B8  
                   l6977 11AD                     l6969 1196                     l6897 138A  
                   l6889 136D                     l7865 0FF8                     l7859 0FCD  
                   l7795 0E53                     l7787 0E36                     l7779 0E19  
                   l7699 0CDB                     l6995 06EA                     l6987 06C8  
                   l6979 0696                     l6899 1390                     l7797 0E58  
                   l7789 0E3B                     l6997 06EF                     l6989 06D8  
                   l7799 0E5E                     l6999 06F5                     _EEIE 046C  
                   _BRGH 04C2                     _T0IE 005D                     _CREN 00C4  
                   _PEIE 005E                     _INTE 005C                     _RBIE 005B  
                   _RCIE 0465                     u9000 0596                     u9001 0595  
                   u9010 05A6                     u9011 05A5                     u9100 062F  
                   u9020 05B6                     u9101 062E                     u9021 05B5  
                   u9110 063F                     u9030 05C3                     u9111 063E  
                   u9031 05C0                     u9200 01BA                     u9120 064F  
                   u9040 05D4                     u9201 01B7                     u9121 064E  
                   u9041 05D3                     u8410 1010                     u9210 01CB  
                   u9130 065F                     u9050 05E4                     u8411 100F  
                   u9211 01CA                     u9131 065E                     u9051 05E3  
                   u8420 1018                     u8500 1EC5                     u9300 1429  
                   u9220 01DB                     u9140 0666                     u9060 05F4  
                   u8421 1017                     u8501 1EC4                     u9301 1426  
                   u9221 01DA                     u9141 0665                     u9061 05F3  
                   u8430 1020                     u8510 1ECD                     u9310 143A  
                   u9230 01EB                     u9150 067F                     u9070 0604  
                   u8431 101F                     u8511 1ECC                     u9311 1439  
                   u9231 01EA                     u9151 067C                     u9071 0603  
                   u8440 1028                     u8520 1ED5                     u9400 1302  
                   u9320 144A                     u9240 01FB                     u9160 013E  
                   u9080 0617                     u8441 1027                     u8521 1ED4  
                   u9401 12FF                     u9321 1449                     u9241 01FA  
                   u9161 013D                     u9081 0614                     u8450 1030  
                   u8530 1EE0                     u8610 1FC4                     u9410 1313  
                   u9330 145A                     u9250 0202                     u9170 015B  
                   u9090 061E                     u8451 102F                     u8531 1EDF  
                   u8611 1FC3                     u9411 1312                     u9331 1459  
                   u9251 0201                     u9171 015A                     u9091 061B  
                   u8460 1038                     u8540 1EE8                     u9500 10D4  
                   u9420 1323                     u9340 146A                     u9260 0219  
                   u9180 0178                     u8461 1037                     u8541 1EE7  
                   u8605 1FB4                     u9501 10D3                     u9421 1322  
                   u9341 1469                     u9261 0218                     u9181 0177  
                   u8470 1EAD                     u8550 1EF0                     u8630 1FDC  
                   u8710 07EC                     u9510 10E5                     u9430 1333  
                   u9350 1471                     u9270 0238                     u9190 0197  
                   u8471 1EAC                     u8551 1EEF                     u8631 1FDB  
                   u8711 07EB                     u9511 10E4                     u9431 1332  
                   u9351 1470                     u9271 0235                     u9191 0194  
                   u8480 1EB5                     u8560 1EF8                     u9600 0696  
                   u9520 10F5                     u9440 1343                     u9360 1488  
                   u9280 13D7                     u8800 122C                     u8481 1EB4  
                   u8561 1EF7                     u8625 1FC7                     u8705 07DF  
                   u9601 11BC                     u9521 10F4                     u9441 1342  
                   u9361 1487                     u9281 13D6                     u8801 122B  
                   u8490 1EBD                     u8570 1F00                     u8650 1FF6  
                   u8730 1F30                     u9610 06A7                     u9530 1105  
                   u9450 134A                     u9370 14A5                     u9290 13F4  
                   u8810 1234                     u8491 1EBC                     u8571 1EFF  
                   u8651 1FF5                     u8635 1FD8                     u8731 1F2F  
                   u9611 06A6                     u9531 1104                     u9451 1349  
                   u9371 14A4                     u9291 13F3                     u8811 1233  
                   u8580 1F08                     u8660 07AE                     u8740 1070  
                   u9700 0781                     u9620 06B7                     u9540 1115  
                   u9460 1361                     u9380 14C4                     u8900 177A  
                   u8820 1250                     u8581 1F07                     u8645 1FE9  
                   u8661 07AD                     u8725 1F12                     u8741 106F  
                   u9701 077E                     u9621 06B6                     u9541 1114  
                   u9461 1360                     u9381 14C1                     u8901 1779  
                   u8821 124F                     u8590 1FAF                     u8750 1085  
                   u9710 0792                     u9630 06C7                     u9550 111C  
                   u9470 137E                     u9390 12CD                     u8910 178B  
                   u8830 127F                     u8591 1FAE                     u8751 1084  
                   u9711 0791                     u9631 06C6                     u9551 111B  
                   u9471 137D                     u9391 12CC                     u8911 178A  
                   u8831 127E                     u8680 07C3                     u8760 109A  
                   u9800 158C                     u9720 07A2                     u9640 06D7  
                   u9560 1133                     u9480 139B                     u8920 179B  
                   u8840 12B4                     u8681 07C2                     u8761 1099  
                   u8745 106C                     u9801 158B                     u9721 07A1  
                   u9641 06D6                     u9561 1132                     u9481 139A  
                   u8921 179A                     u8841 12B3                     u8690 07D3  
                   u8770 10AF                     u9810 15C2                     u9730 14EA  
                   u9650 06DE                     u9570 1150                     u9490 13BA  
                   u8930 17AB                     u8850 12BC                     u8691 07D2  
                   u8675 07B3                     u8771 10AE                     u8755 1081  
                   u9811 15BF                     u9731 14E9                     u9651 06DD  
                   u9571 114F                     u9491 13B7                     u8931 17AA  
                   u8851 12BB                     u9900 167A                     u9820 15D3  
                   u9740 14FA                     u9660 06F5                     u9580 116D  
                   u8940 17BB                     u8860 12C4                     u8780 1217  
                   u8765 1096                     u9901 1679                     u9821 15D2  
                   u9741 14F9                     u9661 06F4                     u9581 116C  
                   u8941 17BA                     u8861 12C3                     u8781 1214  
                   u9910 16AF                     u9830 15E3                     u9750 1501  
                   u9670 0712                     u9590 118A                     u8950 17CB  
                   u8870 16FA                     u8790 1224                     u8695 07CF  
                   u8775 10AB                     u9911 16AC                     u9831 15E2  
                   u9751 1500                     u9671 0711                     u9591 1189  
                   u8951 17CA                     u8871 16F9                     u8791 1223  
                   u9920 16C0                     u9840 15F5                     u9760 1518  
                   u9680 072F                     u8960 17E0                     u8880 1716  
                   u9921 16BF                     u9841 15F4                     u9761 1517  
                   u9681 072E                     u8961 17DC                     u8881 1715  
                   u9930 16D0                     u9850 1605                     u9770 1535  
                   u9690 074C                     u8890 1745                     u9931 16CF  
                   u9851 1604                     u9771 1534                     u9691 074B  
                   u8891 1744                     u9940 16E0                     u9860 160C  
                   u9780 1552                     u8980 17EC                     u9941 16DF  
                   u9861 160B                     u9781 1551                     u8981 17E9  
                   u9950 16F0                     u9870 1623                     u9790 156F  
                   u8990 17FD                     u8974 17E3                     u9951 16EF  
                   u9871 1622                     u9791 156E                     u8991 17FC  
                   u9960 0255                     u9880 1640                     u9961 0254  
                   u9881 163F                     u9970 026C                     u9890 165D  
                   u9971 026B                     u9891 165C                     u9980 0289  
                   u9981 0288                     u9990 02A6                     u9991 02A5  
                   _SPEN 00C7                     _TXIE 0464                     _WREN 0C62  
                   _TXEN 04C5                     _TXIF 0064                     _SYNC 04C4  
                   _main 11BF                     _hour 0075                     btemp 007E  
                   start 0012          __end_of_KeySend 103C                    ??_isr 0070  
                  ?_main 0070                    _BCLIE 046B                    _EEADR 010D  
                  _CARRY 0018                    u10000 02C3                    u10001 02C2  
                  u10010 02E0                    u10011 02DF                    u10100 048A  
                  u10020 0316                    u10101 0489                    u10021 0313  
                  u10110 049A                    u10030 0326                    u10111 0499  
                  u10031 0325                    u11000 0C55                    u10200 0537  
                  u10120 04AA                    u10040 0336                    u11001 0C54  
                  u10201 0536                    u10121 04A9                    u10041 0335  
                  u11010 0C87                    u10210 053E                    u10130 04BA  
                  u10050 0346                    u11011 0C86                    u10211 053D  
                  u10131 04B9                    u10051 0345                    u11100 0D3D  
                  u11020 0C98                    u10300 0059                    u10220 0554  
                  u10140 04C1                    u10060 0356                    u11101 0D3C  
                  u11021 0C97                    u10301 0058                    u10221 0553  
                  u10141 04C0                    u10061 0355                    u11110 0D6E  
                  u11030 0CA8                    u10310 0069                    u10230 0564  
                  u10150 04DA                    u10070 035E                    u11111 0D6D  
                  u11031 0CA7                    u10311 0068                    u10231 0563  
                  u10151 04D7                    u10071 035A                    u11200 0E24  
                  u11120 0D7F                    u11040 0CB8                    u10400 0366  
                  u10320 0079                    u10240 0574                    u10160 04F7  
                  u11201 0E23                    u11121 0D7E                    u11041 0CB7  
                  u10401 0365                    u10321 0078                    u10241 0573  
                  u10161 04F6                    u11210 0E41                    u11130 0D8F  
                  u11050 0CC8                    u10410 0377                    u10330 0089  
                  u10250 0584                    u10170 0507                    u10090 0479  
                  u11211 0E40                    u11131 0D8E                    u11051 0CC7  
                  u10411 0376                    u10331 0088                    u10251 0583  
                  u10171 0506                    u10091 0478                    u11300 0ED4  
                  u11220 0E73                    u11140 0D9F                    u11060 0CCF  
                  u10500 0451                    u10420 0387                    u10340 0090  
                  u10260 0024                    u10180 0517                    u10084 0361  
                  u11301 0ED3                    u11221 0E72                    u11141 0D9E  
                  u11061 0CCE                    u10501 044E                    u10421 0386  
                  u10341 008F                    u10261 0023                    u10181 0516  
                  u11310 0EE4                    u11230 0E83                    u11150 0DAF  
                  u11070 0CE6                    u10510 0462                    u10430 0397  
                  u10350 00A7                    u10270 002E                    u10190 0527  
                  u11311 0EE3                    u11231 0E82                    u11151 0DAE  
                  u11071 0CE5                    u10511 0461                    u10431 0396  
                  u10351 00A6                    u10271 002A                    u10191 0526  
                  u12007 032B                    u11400 0F7F                    u11320 0EF4  
                  u11240 0E93                    u11160 0DB6                    u11080 0D03  
                  u10600 08CD                    u10520 0472                    u10440 03A7  
                  u10360 00C4                    u11401 0F7E                    u11321 0EF3  
                  u11241 0E92                    u11161 0DB5                    u11081 0D02  
                  u10601 08CC                    u10521 0471                    u10441 03A6  
                  u10361 00C3                    u12017 033B                    u11410 0F86  
                  u11330 0F04                    u11250 0EA3                    u11170 0DCD  
                  u11090 0D20                    u10610 08DE                    u10530 0817  
                  u10450 03AE                    u10370 00E1                    u10290 0048  
                  u11411 0F85                    u11331 0F03                    u11251 0EA2  
                  u11171 0DCC                    u11091 0D1F                    u10611 08DD  
                  u10531 0816                    u10451 03AD                    u10371 00E0  
                  u10291 0045                    u12107 052C                    u12027 034B  
                  u11420 0F9C                    u11340 0F0B                    u11260 0EB3  
                  u11180 0DEA                    u10700 09B4                    u10620 08EE  
                  u10540 0827                    u10460 03C5                    u10380 00FE  
                  u10284 0031                    u11421 0F9B                    u11341 0F0A  
                  u11261 0EB2                    u11181 0DE9                    u10701 09B3  
                  u10621 08ED                    u10541 0826                    u10461 03C4  
                  u10381 00FD                    u12117 0558                    u12037 047E  
                  u11430 0FAC                    u11350 0F22                    u11270 0EBB  
                  u11190 0E07                    u10710 09C5                    u10630 08FE  
                  u10550 082E                    u10470 03E2                    u10390 011B  
                  u11431 0FAB                    u11351 0F21                    u11271 0EB7  
                  u11191 0E06                    u10711 09C4                    u10631 08FD  
                  u10551 082D                    u10471 03E1                    u12207 037C  
                  u10391 011A                    u12127 0569                    u12047 048F  
                  u11440 0FBC                    u11360 0F3F                    u10800 0A9B  
                  u10720 09D5                    u10640 090E                    u10560 0845  
                  u10480 03FF                    u11441 0FBB                    u11361 0F3E  
                  u10801 0A9A                    u10721 09D4                    u10641 090D  
                  u10561 0844                    u10481 03FE                    u12217 038C  
                  u12137 0579                    u12057 049F                    u11450 0FCC  
                  u11370 0F4F                    u11290 0EC3                    u10810 0AAC  
                  u10730 09E5                    u10650 0915                    u10570 0862  
                  u10490 041C                    u11451 0FCB                    u11371 0F4E  
                  u11291 0EC2                    u10811 0AAB                    u10731 09E4  
                  u10651 0914                    u12307 0903                    u10571 0861  
                  u10491 041B                    u12227 039C                    u12147 0019  
                  u12067 04AF                    u11507 1781                    u11460 0FDC  
                  u11380 0F5F                    u11284 0EBE                    u10900 0B82  
                  u10820 0ABC                    u10740 09F5                    u10660 092C  
                  u10580 087F                    u11461 0FDB                    u11381 0F5E  
                  u10901 0B81                    u10821 0ABB                    u10741 09F4  
                  u12317 09B9                    u10661 092B                    u10581 087E  
                  u12237 0456                    u12157 004D                    u12077 04FB  
                  u11517 178F                    u11470 0FE6                    u11390 0F6F  
                  u10910 0B93                    u10830 0ACC                    u10750 09FC  
                  u10670 0949                    u10590 089C                    u11471 0FE2  
                  u11391 0F6E                    u12407 0B98                    u10911 0B92  
                  u10831 0ACB                    u10751 09FB                    u12327 09CA  
                  u10671 0948                    u10591 089B                    u12247 0467  
                  u12167 005E                    u12087 050C                    u11607 05D9  
                  u11527 17A0                    u10920 0BA3                    u10840 0ADC  
                  u10760 0A13                    u10680 0966                    u12417 0BA8  
                  u10921 0BA2                    u10841 0ADB                    u10761 0A12  
                  u12337 09DA                    u10681 0965                    u12257 080C  
                  u12177 006E                    u12097 051C                    u11617 05E9  
                  u11537 17B0                    u10930 0BB3                    u10850 0AE3  
                  u10770 0A30                    u10690 0983                    u12507 0DA4  
                  u12427 0BB8                    u10931 0BB2                    u10851 0AE2  
                  u10771 0A2F                    u12347 09EA                    u10691 0982  
                  u12267 081C                    u12187 007E                    u11707 01F0  
                  u11627 05F9                    u11547 17C0                    u11484 0FE9  
                  u10940 0BC3                    u10860 0AFA                    u10780 0A4D  
                  u12517 0E77                    u12437 0C8C                    u10941 0BC2  
                  u10861 0AF9                    u12357 0AA0                    u10781 0A4C  
                  u12277 08D2                    u12197 036B                    u11717 142E  
                  u11637 0623                    u11557 17F1                    u10950 0BCA  
                  u10870 0B17                    u10790 0A6A                    u12607 0F54  
                  u12527 0E88                    u12447 0C9D                    u10951 0BC9  
                  u10871 0B16                    u12367 0AB1                    u10791 0A69  
                  u12287 08E3                    u11807 10EA                    u11727 143F  
                  u11647 0634                    u11567 058B                    u10960 0BE1  
                  u10880 0B34                    u12617 0F64                    u12537 0E98  
                  u12457 0CAD                    u10961 0BE0                    u10881 0B33  
                  u12377 0AC1                    u12297 08F3                    u11817 10FA  
                  u11737 144F                    u11657 0644                    u11577 059B  
                  u11497 11F1                    u10970 0BFE                    u10890 0B51  
                  u12627 0F74                    u12547 0EA8                    u12467 0CBD  
                  u10971 0BFD                    u10891 0B50                    u12387 0AD1  
                  u11907 14EF                    u11827 110A                    u11747 145F  
                  u11667 0654                    u11587 05AB                    u10980 0C1B  
                  u12637 0FA0                    u12557 0EC8                    u12477 0D73  
                  u10981 0C1A                    u12397 0B87                    u11917 15C7  
                  u11837 069B                    u11757 1307                    u11677 01BF  
                  u11597 05C8                    u10990 0C38                    u12647 0FB1  
                  u12567 0ED9                    u12487 0D84                    u10991 0C37  
                  u11927 15D8                    u11847 06AC                    u11767 1318  
                  u11687 01D0                    u12657 0FC1                    u12577 0EE9  
                  u12497 0D94                    u11937 15EA                    u11857 06BC  
                  u11777 1328                    u11697 01E0                    u12667 0FD1  
                  u12587 0EF9                    u11947 15FA                    u11867 06CC  
                  u11787 1338                    u12677 1F25                    u12597 0F43  
                  u11957 16B4                    u11877 0786                    u11797 10D9  
                  u11967 16C5                    u11887 0797                    u11977 16D5  
                  u11897 14DF          __end_of___ltdiv 2000                    u11987 16E5  
                  u11997 031A          __end_of___ltmod 07F6                    _TMR1H 000F  
                  _TMR1L 000E                    _SPBRG 0099                    _PORTC 0007  
                  _PSPIE 0467                    _TRISA 0085                    _TRISB 0086  
                  _TRISC 0087                    _TRISD 0088                    _SSPIE 0463  
                  _TRISE 0089                    _TXREG 0019           __pbitbssCOMMON 03C8  
                  pclath 000A                    status 0003                    wtemp0 007E  
          ??_InterruptEn 0020         __end_of_a2d_read 10B8             __end_of_main 1000  
                 ??_main 0033                   _ADCON0 001F                   _ADCON1 009F  
                 _CCP1IE 0462                   _CCP2IE 0468                   _ADRESH 001E  
                 _ADRESL 009E                   _EEDATA 010C                   _EECON1 018C  
                 _EECON2 018D                   i1l1370 1F8F                   i1l1371 1F8E  
                 i1l1372 1F8D                   i1l1373 1F8C                   i1l1374 1F95  
                 i1l1368 1F95                   i1l1369 1F63                   i1l5021 1F5C  
                 i1l5031 1F72                   i1l5023 1F63                   i1l5041 1F85  
                 i1l5033 1F74                   i1l5025 1F67                   i1l5017 1F52  
                 i1l5043 1F86                   i1l5035 1F7A                   i1l5027 1F6D  
                 i1l5019 1F56                   i1l5045 1F8B                   i1l5037 1F7E  
                 i1l5029 1F71                   i1l5039 1F7F                   i1l5047 1F8F  
                 i1l5049 1F93                   u550_20 1F85                   u550_21 1F84  
                 u546_20 1F56                   u546_21 1F55                   u547_20 1F5C  
                 u547_21 1F5B                   u548_20 1F6D                   u548_21 1F6C  
                 u549_20 1F7A                   u549_21 1F79                   _TMR1IE 0460  
                 _TMR1IF 0060                   _TMR1CS 0081                   _TMR2IE 0461  
                 _TMR1ON 0080                ??_KeySend 0020            ??_MouseSendLC 0020  
          ??_MouseSendRC 0020                ??___ltdiv 002E                ??___ltmod 0026  
    __end_of_InterruptEn 1EA6                   _minute 0076                   _second 0078  
                 saved_w 007E           __pcstackCOMMON 0070      __end_of_MouseSendLC 1ED9  
    __end_of_MouseSendRC 1F0C                ?_a2d_read 0070               __pbssBANK0 0039  
__size_of_read_a2d_value 0046              _InterruptEn 1E93               __pmaintext 11BF  
             __pintentry 0004                  _T1CKPS0 0084                  _T1CKPS1 0085  
                _T1OSCEN 0083               ??_a2d_read 0027                  _KeySend 1008  
            _MouseSendLC 1EA6              _MouseSendRC 1ED9                  ___ltdiv 1FA0  
                ___ltmod 07A5                  _counter 003F             __size_of_isr 004E  
                _vblAccX 0039                  _vblAccY 003C                  _msecond 0077  
   end_of_initialization 1E8F         ___ltdiv@dividend 002B         ___ltdiv@quotient 002F  
         _read_a2d_value 1F0C      start_initialization 1E81              __end_of_isr 1FA0  
      __size_of_a2d_read 007C   __end_of_read_a2d_value 1F52             ?_InterruptEn 0070  
            __pbssCOMMON 0075            __pcstackBANK0 0020          ?_read_a2d_value 0020  
               ?_KeySend 0070                _main$1976 0036             ?_MouseSendLC 0070  
           ?_MouseSendRC 0070  read_a2d_value@a2d_value 0025                __ptext380 1ED9  
              __ptext381 1EA6                __ptext382 1008                __ptext383 1E93  
              __ptext375 0000                __ptext384 1F52                __ptext376 103C  
              __ptext385 0000                __ptext377 1F0C                __ptext378 07A5  
              __ptext379 1FA0                 ?___ltdiv 0028                 ?___ltmod 0020  
               _CAPSLOCK 03C8    read_a2d_value@channel 0024         ___ltmod@dividend 0023  
      interrupt_function 0004          ___ltdiv@divisor 0028          ___ltdiv@counter 0032  
               _a2d_read 103C             _MOUSE_SELECT 03C9         __size_of_KeySend 0034  
   __size_of_InterruptEn 0013         __size_of___ltdiv 0060         __size_of___ltmod 0051  
          __size_of_main FE41          ___ltmod@divisor 0020          ___ltmod@counter 0027  
               _prevChar 0041     __size_of_MouseSendLC 0033     __size_of_MouseSendRC 0033  
       ??_read_a2d_value 0022                 intlevel1 0000               _OPTION_REG 0081  
