

HI-TECH Software PIC LITE Macro Assembler V9.83 build 10920 
                                                                                               Fri Jun 05 08:27:10 2015

HI-TECH Software Omniscient Code Generator (Lite mode) build 10920
     1  0000                     opt subtitle "HI-TECH Software Omniscient Code Generator (Lite mode) build 10920"
     2                           
     3                           opt pagewidth 120
     4                           
     5                           	opt lm
     6                           
     7                           	processor	16F877A
     8                           clrc	macro
     9                           	bcf	3,0
    10  0000                     	endm
    11                           clrz	macro
    12                           	bcf	3,2
    13  0000                     	endm
    14                           setc	macro
    15                           	bsf	3,0
    16  0000                     	endm
    17                           setz	macro
    18                           	bsf	3,2
    19  0000                     	endm
    20                           skipc	macro
    21                           	btfss	3,0
    22  0000                     	endm
    23                           skipz	macro
    24                           	btfss	3,2
    25  0000                     	endm
    26                           skipnc	macro
    27                           	btfsc	3,0
    28  0000                     	endm
    29                           skipnz	macro
    30                           	btfsc	3,2
    31  0000                     	endm
    32  0000                     indf	equ	0
    33  0000                     indf0	equ	0
    34  0002                     pc	equ	2
    35  0002                     pcl	equ	2
    36  0003                     status	equ	3
    37  0004                     fsr	equ	4
    38  0004                     fsr0	equ	4
    39  0001                     c	equ	1
    40  0000                     z	equ	0
    41  000A                     pclath	equ	10
    42                           	FNCALL	_main,_rs232_init
    43                           	FNCALL	_main,_init_sys
    44                           	FNCALL	_main,_atod_init
    45                           	FNCALL	_main,_lcd_init
    46                           	FNCALL	_main,_a2d_read
    47                           	FNCALL	_main,___lwdiv
    48                           	FNCALL	_a2d_read,_read_a2d_value
    49                           	FNCALL	_lcd_init,_lcd_add
    50                           	FNROOT	_main
    51                           	FNCALL	_isr,___lwmod
    52                           	FNCALL	_isr,_eeprom_temp
    53                           	FNCALL	_isr,_nop
    54                           	FNCALL	_eeprom_temp,_eeprom_write
    55                           	FNCALL	intlevel1,_isr
    56                           	global	intlevel1
    57                           	FNROOT	intlevel1
    58                           	global	_bed_nu
    59                           	global	_i
    60                           	global	_value
    61                           psect	idataCOMMON,class=CODE,space=0,delta=2
    62                           global __pidataCOMMON
    63  0BA5                     __pidataCOMMON:
    64                           	file	"F:\ELECTRONIC\2015\Projects\New folder\test.c"
    65                           	line	39
    66                           
    67                           ;initializer for _bed_nu
    68  0BA5  3401               	retlw	01h
    69                           	line	40
    70                           
    71                           ;initializer for _i
    72  0BA6  3401               	retlw	01h
    73                           psect	idataBANK1,class=CODE,space=0,delta=2
    74                           global __pidataBANK1
    75  0BA4                     __pidataBANK1:
    76                           	line	44
    77                           
    78                           ;initializer for _value
    79  0BA4  3401               	retlw	01h
    80                           	global	_dpowers
    81                           psect	strings,class=STRING,delta=2
    82                           global __pstrings
    83  0800                     __pstrings:
    84                           ;	global	stringdir,stringtab,__stringbase
    85  0800                     stringtab:
    86                           ;	String table - string pointers are 1 byte each
    87  0800                     stringcode:stringdir:
      + 0800                     stringdir:	
    88  0800  3008               movlw high(stringdir)
    89  0801  008A               movwf pclath
    90  0802  0804               movf fsr,w
    91  0803  0A84               incf fsr
    92  0804  0782               	addwf pc
    93  0805                     __stringbase:
    94  0805  3400               	retlw	0
    95                           psect	strings
    96                           	file	"C:\Program Files (x86)\HI-TECH Software\PICC\9.83\lib\doprnt.c"
    97                           	line	350
    98  0806                     _dpowers:
    99  0806  3401               	retlw	01h
   100  0807  3400               	retlw	0
   101                           
   102  0808  340A               	retlw	0Ah
   103  0809  3400               	retlw	0
   104                           
   105  080A  3464               	retlw	064h
   106  080B  3400               	retlw	0
   107                           
   108  080C  34E8               	retlw	0E8h
   109  080D  3403               	retlw	03h
   110                           
   111  080E  3410               	retlw	010h
   112  080F  3427               	retlw	027h
   113                           
   114                           	global	_dpowers
   115                           	global	_arrTestVal
   116                           	global	_rc
   117                           	global	_temperature
   118                           	global	_temperature1
   119                           	global	_temperature2
   120                           	global	_hour
   121                           	global	_minute
   122                           	global	_msecond
   123                           	global	_second
   124                           	global	_status
   125                           	global	_temperature_1
   126                           	global	_temperature_2
   127                           	global	_vblDiffX
   128                           	global	_vblDiffXpast
   129                           	global	_vblDiffY
   130                           	global	_vblDiffYpast
   131                           	global	_vblSampleX1
   132                           	global	_vblSampleX2
   133                           	global	_vblSampleY1
   134                           	global	_vblSampleY2
   135                           	global	_address
   136                           	global	_address_se
   137                           	global	_j
   138                           	global	_read_address
   139                           	global	_v
   140                           	global	_w
   141                           	global	_x
   142                           	global	_y
   143                           	global	_z
   144                           	global	_vblAccX
   145                           	global	_vblAccY
   146                           	global	_ADCON0
   147  001F                     _ADCON0	set	31
   148                           	global	_ADRESH
   149  001E                     _ADRESH	set	30
   150                           	global	_PORTA
   151  0005                     _PORTA	set	5
   152                           	global	_PORTB
   153  0006                     _PORTB	set	6
   154                           	global	_PORTC
   155  0007                     _PORTC	set	7
   156                           	global	_PORTD
   157  0008                     _PORTD	set	8
   158                           	global	_PORTE
   159  0009                     _PORTE	set	9
   160                           	global	_RCREG
   161  001A                     _RCREG	set	26
   162                           	global	_TMR1H
   163  000F                     _TMR1H	set	15
   164                           	global	_TMR1L
   165  000E                     _TMR1L	set	14
   166                           	global	_TXREG
   167  0019                     _TXREG	set	25
   168                           	global	_ADON
   169  00F8                     _ADON	set	248
   170                           	global	_CARRY
   171  0018                     _CARRY	set	24
   172                           	global	_CREN
   173  00C4                     _CREN	set	196
   174                           	global	_GIE
   175  005F                     _GIE	set	95
   176                           	global	_GO
   177  00FA                     _GO	set	250
   178                           	global	_PEIE
   179  005E                     _PEIE	set	94
   180                           	global	_RB4
   181  0034                     _RB4	set	52
   182                           	global	_RB5
   183  0035                     _RB5	set	53
   184                           	global	_RC2
   185  003A                     _RC2	set	58
   186                           	global	_RCIF
   187  0065                     _RCIF	set	101
   188                           	global	_RD2
   189  0042                     _RD2	set	66
   190                           	global	_RD3
   191  0043                     _RD3	set	67
   192                           	global	_RD4
   193  0044                     _RD4	set	68
   194                           	global	_RD5
   195  0045                     _RD5	set	69
   196                           	global	_RD6
   197  0046                     _RD6	set	70
   198                           	global	_RD7
   199  0047                     _RD7	set	71
   200                           	global	_RX9
   201  00C6                     _RX9	set	198
   202                           	global	_SPEN
   203  00C7                     _SPEN	set	199
   204                           	global	_T1CKPS0
   205  0084                     _T1CKPS0	set	132
   206                           	global	_T1CKPS1
   207  0085                     _T1CKPS1	set	133
   208                           	global	_T1OSCEN
   209  0083                     _T1OSCEN	set	131
   210                           	global	_TMR0IE
   211  005D                     _TMR0IE	set	93
   212                           	global	_TMR1CS
   213  0081                     _TMR1CS	set	129
   214                           	global	_TMR1IF
   215  0060                     _TMR1IF	set	96
   216                           	global	_TMR1ON
   217  0080                     _TMR1ON	set	128
   218                           	global	_TXIF
   219  0064                     _TXIF	set	100
   220                           	global	_ADCON1
   221  009F                     _ADCON1	set	159
   222                           	global	_ADRESL
   223  009E                     _ADRESL	set	158
   224                           	global	_SPBRG
   225  0099                     _SPBRG	set	153
   226                           	global	_TRISA
   227  0085                     _TRISA	set	133
   228                           	global	_TRISB
   229  0086                     _TRISB	set	134
   230                           	global	_TRISC
   231  0087                     _TRISC	set	135
   232                           	global	_TRISD
   233  0088                     _TRISD	set	136
   234                           	global	_TRISE
   235  0089                     _TRISE	set	137
   236                           	global	_BRGH
   237  04C2                     _BRGH	set	1218
   238                           	global	_RCIE
   239  0465                     _RCIE	set	1125
   240                           	global	_SYNC
   241  04C4                     _SYNC	set	1220
   242                           	global	_TMR1IE
   243  0460                     _TMR1IE	set	1120
   244                           	global	_TX9
   245  04C6                     _TX9	set	1222
   246                           	global	_TXEN
   247  04C5                     _TXEN	set	1221
   248                           	global	_TXIE
   249  0464                     _TXIE	set	1124
   250                           	global	_EEADR
   251  010D                     _EEADR	set	269
   252                           	global	_EEDATA
   253  010C                     _EEDATA	set	268
   254                           	global	_EECON1
   255  018C                     _EECON1	set	396
   256                           	global	_EECON2
   257  018D                     _EECON2	set	397
   258                           	global	_RD
   259  0C60                     _RD	set	3168
   260                           	global	_WR
   261  0C61                     _WR	set	3169
   262                           	global	_WREN
   263  0C62                     _WREN	set	3170
   264                           	global	_lcd_data
   265                           psect	nvBANK1,class=BANK1,space=1
   266                           global __pnvBANK1
   267  00E3                     __pnvBANK1:
   268  00E3                     _lcd_data:
   269  00E3                            ds      1
   270                           
   271                           	global	_lcd_data_high
   272  00E4                     _lcd_data_high:
   273  00E4                            ds      1
   274                           
   275                           	global	_lcd_data_low
   276  00E5                     _lcd_data_low:
   277  00E5                            ds      1
   278                           
   279                           psect	strings
   280                           	
   281  0810                     STR_6:	
   282  0810  3420               	retlw	32	;' '
   283  0811  3425               	retlw	37	;'%'
   284  0812  3464               	retlw	100	;'d'
   285  0813  3420               	retlw	32	;' '
   286  0814  3454               	retlw	84	;'T'
   287  0815  3465               	retlw	101	;'e'
   288  0816  346D               	retlw	109	;'m'
   289  0817  3470               	retlw	112	;'p'
   290  0818  3420               	retlw	32	;' '
   291  0819  343A               	retlw	58	;':'
   292  081A  3420               	retlw	32	;' '
   293  081B  3425               	retlw	37	;'%'
   294  081C  3464               	retlw	100	;'d'
   295  081D  3446               	retlw	70	;'F'
   296  081E  3420               	retlw	32	;' '
   297  081F  3420               	retlw	32	;' '
   298  0820  3420               	retlw	32	;' '
   299  0821  3420               	retlw	32	;' '
   300  0822  3420               	retlw	32	;' '
   301  0823  3400               	retlw	0
   302                           psect	strings
   303                           	
   304  0824                     STR_1:	
   305  0824  3420               	retlw	32	;' '
   306  0825  3453               	retlw	83	;'S'
   307  0826  3465               	retlw	101	;'e'
   308  0827  3474               	retlw	116	;'t'
   309  0828  3420               	retlw	32	;' '
   310  0829  3462               	retlw	98	;'b'
   311  082A  3465               	retlw	101	;'e'
   312  082B  3464               	retlw	100	;'d'
   313  082C  3420               	retlw	32	;' '
   314  082D  344E               	retlw	78	;'N'
   315  082E  346F               	retlw	111	;'o'
   316  082F  343A               	retlw	58	;':'
   317  0830  3425               	retlw	37	;'%'
   318  0831  3464               	retlw	100	;'d'
   319  0832  3420               	retlw	32	;' '
   320  0833  3420               	retlw	32	;' '
   321  0834  3420               	retlw	32	;' '
   322  0835  3400               	retlw	0
   323                           psect	strings
   324                           	
   325  0836                     STR_2:	
   326  0836  3420               	retlw	32	;' '
   327  0837  3453               	retlw	83	;'S'
   328  0838  3465               	retlw	101	;'e'
   329  0839  3474               	retlw	116	;'t'
   330  083A  3420               	retlw	32	;' '
   331  083B  3462               	retlw	98	;'b'
   332  083C  3465               	retlw	101	;'e'
   333  083D  3464               	retlw	100	;'d'
   334  083E  3420               	retlw	32	;' '
   335  083F  344E               	retlw	78	;'N'
   336  0840  3475               	retlw	117	;'u'
   337  0841  343A               	retlw	58	;':'
   338  0842  3425               	retlw	37	;'%'
   339  0843  3464               	retlw	100	;'d'
   340  0844  3420               	retlw	32	;' '
   341  0845  3420               	retlw	32	;' '
   342  0846  3420               	retlw	32	;' '
   343  0847  3400               	retlw	0
   344                           psect	strings
   345                           	
   346  0848                     STR_4:	
   347  0848  3420               	retlw	32	;' '
   348  0849  3442               	retlw	66	;'B'
   349  084A  3465               	retlw	101	;'e'
   350  084B  3464               	retlw	100	;'d'
   351  084C  3420               	retlw	32	;' '
   352  084D  346E               	retlw	110	;'n'
   353  084E  3475               	retlw	117	;'u'
   354  084F  3420               	retlw	32	;' '
   355  0850  3463               	retlw	99	;'c'
   356  0851  3468               	retlw	104	;'h'
   357  0852  3461               	retlw	97	;'a'
   358  0853  346E               	retlw	110	;'n'
   359  0854  3467               	retlw	103	;'g'
   360  0855  3465               	retlw	101	;'e'
   361  0856  3464               	retlw	100	;'d'
   362  0857  3420               	retlw	32	;' '
   363  0858  3400               	retlw	0
   364                           psect	strings
   365  0824                     STR_3	equ	STR_1+0
   366  0824                     STR_5	equ	STR_1+0
   367  0810                     STR_7	equ	STR_6+0
   368                           	file	"tst.as"
   369                           	line	#
   370                           psect cinit,class=CODE,delta=2
   371                           global start_initialization
   372  0BDB                     start_initialization:
   373                           
   374                           psect	dataCOMMON,class=COMMON,space=1
   375                           global __pdataCOMMON
   376  007C                     __pdataCOMMON:
   377                           	file	"F:\ELECTRONIC\2015\Projects\New folder\test.c"
   378                           	line	39
   379  007C                     _bed_nu:
   380  007C                            ds      1
   381                           
   382                           psect	dataCOMMON
   383                           	file	"F:\ELECTRONIC\2015\Projects\New folder\test.c"
   384                           	line	40
   385  007D                     _i:
   386  007D                            ds      1
   387                           
   388                           psect	bssBANK0,class=BANK0,space=1
   389                           global __pbssBANK0
   390  006C                     __pbssBANK0:
   391  006C                     _vblAccX:
   392  006C                            ds      2
   393                           
   394  006E                     _vblAccY:
   395  006E                            ds      2
   396                           
   397                           psect	bssBANK1,class=BANK1,space=1
   398                           global __pbssBANK1
   399  00A0                     __pbssBANK1:
   400  00A0                     _arrTestVal:
   401  00A0                            ds      10
   402                           
   403  00AA                     _rc:
   404  00AA                            ds      9
   405                           
   406  00B3                     _temperature:
   407  00B3                            ds      3
   408                           
   409  00B6                     _temperature1:
   410  00B6                            ds      3
   411                           
   412  00B9                     _temperature2:
   413  00B9                            ds      3
   414                           
   415  00BC                     _hour:
   416  00BC                            ds      2
   417                           
   418  00BE                     _minute:
   419  00BE                            ds      2
   420                           
   421  00C0                     _msecond:
   422  00C0                            ds      2
   423                           
   424  00C2                     _second:
   425  00C2                            ds      2
   426                           
   427  00C4                     _status:
   428  00C4                            ds      2
   429                           
   430  00C6                     _temperature_1:
   431  00C6                            ds      2
   432                           
   433  00C8                     _temperature_2:
   434  00C8                            ds      2
   435                           
   436  00CA                     _vblDiffX:
   437  00CA                            ds      2
   438                           
   439  00CC                     _vblDiffXpast:
   440  00CC                            ds      2
   441                           
   442  00CE                     _vblDiffY:
   443  00CE                            ds      2
   444                           
   445  00D0                     _vblDiffYpast:
   446  00D0                            ds      2
   447                           
   448  00D2                     _vblSampleX1:
   449  00D2                            ds      2
   450                           
   451  00D4                     _vblSampleX2:
   452  00D4                            ds      2
   453                           
   454  00D6                     _vblSampleY1:
   455  00D6                            ds      2
   456                           
   457  00D8                     _vblSampleY2:
   458  00D8                            ds      2
   459                           
   460  00DA                     _address:
   461  00DA                            ds      1
   462                           
   463  00DB                     _address_se:
   464  00DB                            ds      1
   465                           
   466  00DC                     _j:
   467  00DC                            ds      1
   468                           
   469  00DD                     _read_address:
   470  00DD                            ds      1
   471                           
   472  00DE                     _v:
   473  00DE                            ds      1
   474                           
   475  00DF                     _w:
   476  00DF                            ds      1
   477                           
   478  00E0                     _x:
   479  00E0                            ds      1
   480                           
   481  00E1                     _y:
   482  00E1                            ds      1
   483                           
   484  00E2                     _z:
   485  00E2                            ds      1
   486                           
   487                           psect	dataBANK1,class=BANK1,space=1
   488                           global __pdataBANK1
   489  00E6                     __pdataBANK1:
   490                           	file	"F:\ELECTRONIC\2015\Projects\New folder\test.c"
   491                           	line	44
   492  00E6                     _value:
   493  00E6                            ds      1
   494                           
   495                           psect clrtext,class=CODE,delta=2
   496                           global clear_ram
   497                           ;	Called with FSR containing the base address, and
   498                           ;	W with the last address+1
   499  0015                     clear_ram:
   500  0015  0064               	clrwdt			;clear the watchdog before getting into this loop
   501  0016                     clrloop:
   502  0016  0180               	clrf	indf		;clear RAM location pointed to by FSR
   503  0017  0A84               	incf	fsr,f		;increment pointer
   504  0018  0604               	xorwf	fsr,w		;XOR with final address
   505  0019  1903               	btfsc	status,2	;have we reached the end yet?
   506  001A  3400               	retlw	0		;all done for this memory range, return
   507  001B  0604               	xorwf	fsr,w		;XOR again to restore value
   508  001C  2816               	goto	clrloop		;do the next byte
   509                           
   510                           ; Clear objects allocated to BANK0
   511                           psect cinit,class=CODE,delta=2
   512  0BDB  01EC               	clrf	((__pbssBANK0)+0)&07Fh
   513  0BDC  01ED               	clrf	((__pbssBANK0)+1)&07Fh
   514  0BDD  01EE               	clrf	((__pbssBANK0)+2)&07Fh
   515  0BDE  01EF               	clrf	((__pbssBANK0)+3)&07Fh
   516                           ; Clear objects allocated to BANK1
   517                           psect cinit,class=CODE,delta=2
   518  0BDF  1383               	bcf	status, 7	;select IRP bank0
   519  0BE0  30A0               	movlw	low(__pbssBANK1)
   520  0BE1  0084               	movwf	fsr
   521  0BE2  30E3               	movlw	low((__pbssBANK1)+043h)
   522  0BE3  120A  118A  2015   	fcall	clear_ram
              120A  158A         
   523                           ; Initialize objects allocated to BANK1
   524                           	global __pidataBANK1
   525                           psect cinit,class=CODE,delta=2
   526  0BE8  1683               	bsf	status, 5	;RP0=1, select bank1
   527  0BE9  1303               	bcf	status, 6	;RP1=0, select bank1
   528  0BEA  120A  158A  23A4   	fcall	__pidataBANK1+0		;fetch initializer
              120A  158A         
   529  0BEF  00E6               	movwf	__pdataBANK1+0&07fh		
   530                           ; Initialize objects allocated to COMMON
   531                           	global __pidataCOMMON
   532                           psect cinit,class=CODE,delta=2
   533  0BF0  120A  158A  23A5   	fcall	__pidataCOMMON+0		;fetch initializer
              120A  158A         
   534  0BF5  00FC               	movwf	__pdataCOMMON+0&07fh		
   535  0BF6  120A  158A  23A6   	fcall	__pidataCOMMON+1		;fetch initializer
              120A  158A         
   536  0BFB  00FD               	movwf	__pdataCOMMON+1&07fh		
   537                           psect cinit,class=CODE,delta=2
   538                           global end_of_initialization
   539                           
   540                           ;End of C runtime variable initialization code
   541                           
   542  0BFC                     end_of_initialization:
   543  0BFC  0183               clrf status
   544  0BFD  120A  158A  2EF5   ljmp _main	;jump to C main() function
   545                           psect	cstackCOMMON,class=COMMON,space=1
   546                           global __pcstackCOMMON
   547  0071                     __pcstackCOMMON:
   548                           	global	?_lcd_add
   549  0071                     ?_lcd_add:	; 0 bytes @ 0x0
   550                           	global	?_a2d_read
   551  0071                     ?_a2d_read:	; 0 bytes @ 0x0
   552                           	global	?_eeprom_temp
   553  0071                     ?_eeprom_temp:	; 0 bytes @ 0x0
   554                           	global	?_lcd_init
   555  0071                     ?_lcd_init:	; 0 bytes @ 0x0
   556                           	global	?_init_sys
   557  0071                     ?_init_sys:	; 0 bytes @ 0x0
   558                           	global	?_atod_init
   559  0071                     ?_atod_init:	; 0 bytes @ 0x0
   560                           	global	?_rs232_init
   561  0071                     ?_rs232_init:	; 0 bytes @ 0x0
   562                           	global	?_nop
   563  0071                     ?_nop:	; 0 bytes @ 0x0
   564                           	global	??_nop
   565  0071                     ??_nop:	; 0 bytes @ 0x0
   566                           	global	?_main
   567  0071                     ?_main:	; 0 bytes @ 0x0
   568                           	global	?_isr
   569  0071                     ?_isr:	; 0 bytes @ 0x0
   570                           	global	?_eeprom_write
   571  0071                     ?_eeprom_write:	; 1 bytes @ 0x0
   572                           	global	?___lwmod
   573  0071                     ?___lwmod:	; 2 bytes @ 0x0
   574                           	global	eeprom_write@value
   575  0071                     eeprom_write@value:	; 1 bytes @ 0x0
   576                           	global	___lwmod@divisor
   577  0071                     ___lwmod@divisor:	; 2 bytes @ 0x0
   578  0071                     	ds	1
   579                           	global	??_eeprom_write
   580  0072                     ??_eeprom_write:	; 0 bytes @ 0x1
   581  0072                     	ds	1
   582                           	global	eeprom_write@addr
   583  0073                     eeprom_write@addr:	; 1 bytes @ 0x2
   584                           	global	___lwmod@dividend
   585  0073                     ___lwmod@dividend:	; 2 bytes @ 0x2
   586  0073                     	ds	1
   587                           	global	??_eeprom_temp
   588  0074                     ??_eeprom_temp:	; 0 bytes @ 0x3
   589  0074                     	ds	1
   590                           	global	??___lwmod
   591  0075                     ??___lwmod:	; 0 bytes @ 0x4
   592  0075                     	ds	1
   593                           	global	___lwmod@counter
   594  0076                     ___lwmod@counter:	; 1 bytes @ 0x5
   595  0076                     	ds	1
   596                           	global	??_isr
   597  0077                     ??_isr:	; 0 bytes @ 0x6
   598  0077                     	ds	5
   599                           psect	cstackBANK0,class=BANK0,space=1
   600                           global __pcstackBANK0
   601  0020                     __pcstackBANK0:
   602                           	global	??_lcd_add
   603  0020                     ??_lcd_add:	; 0 bytes @ 0x0
   604                           	global	??_init_sys
   605  0020                     ??_init_sys:	; 0 bytes @ 0x0
   606                           	global	??_atod_init
   607  0020                     ??_atod_init:	; 0 bytes @ 0x0
   608                           	global	??_rs232_init
   609  0020                     ??_rs232_init:	; 0 bytes @ 0x0
   610                           	global	?_read_a2d_value
   611  0020                     ?_read_a2d_value:	; 2 bytes @ 0x0
   612                           	global	?___lwdiv
   613  0020                     ?___lwdiv:	; 2 bytes @ 0x0
   614                           	global	___lwdiv@divisor
   615  0020                     ___lwdiv@divisor:	; 2 bytes @ 0x0
   616  0020                     	ds	2
   617                           	global	??_read_a2d_value
   618  0022                     ??_read_a2d_value:	; 0 bytes @ 0x2
   619                           	global	??_lcd_init
   620  0022                     ??_lcd_init:	; 0 bytes @ 0x2
   621                           	global	___lwdiv@dividend
   622  0022                     ___lwdiv@dividend:	; 2 bytes @ 0x2
   623  0022                     	ds	2
   624                           	global	??___lwdiv
   625  0024                     ??___lwdiv:	; 0 bytes @ 0x4
   626                           	global	read_a2d_value@channel
   627  0024                     read_a2d_value@channel:	; 1 bytes @ 0x4
   628  0024                     	ds	1
   629                           	global	read_a2d_value@a2d_value
   630  0025                     read_a2d_value@a2d_value:	; 2 bytes @ 0x5
   631                           	global	___lwdiv@quotient
   632  0025                     ___lwdiv@quotient:	; 2 bytes @ 0x5
   633  0025                     	ds	2
   634                           	global	??_a2d_read
   635  0027                     ??_a2d_read:	; 0 bytes @ 0x7
   636                           	global	___lwdiv@counter
   637  0027                     ___lwdiv@counter:	; 1 bytes @ 0x7
   638  0027                     	ds	1
   639                           	global	??_main
   640  0028                     ??_main:	; 0 bytes @ 0x8
   641  0028                     	ds	6
   642                           	global	main@i
   643  002E                     main@i:	; 2 bytes @ 0xE
   644  002E                     	ds	2
   645                           	global	main@du
   646  0030                     main@du:	; 2 bytes @ 0x10
   647  0030                     	ds	2
   648                           	global	main@du_1327
   649  0032                     main@du_1327:	; 2 bytes @ 0x12
   650  0032                     	ds	2
   651                           	global	main@du_1328
   652  0034                     main@du_1328:	; 2 bytes @ 0x14
   653  0034                     	ds	2
   654                           	global	main@du_1329
   655  0036                     main@du_1329:	; 2 bytes @ 0x16
   656  0036                     	ds	2
   657                           	global	main@i_1330
   658  0038                     main@i_1330:	; 2 bytes @ 0x18
   659  0038                     	ds	2
   660                           	global	main@du_1331
   661  003A                     main@du_1331:	; 2 bytes @ 0x1A
   662  003A                     	ds	2
   663                           	global	main@du_1332
   664  003C                     main@du_1332:	; 2 bytes @ 0x1C
   665  003C                     	ds	2
   666                           	global	main@du_1333
   667  003E                     main@du_1333:	; 2 bytes @ 0x1E
   668  003E                     	ds	2
   669                           	global	main@du_1334
   670  0040                     main@du_1334:	; 2 bytes @ 0x20
   671  0040                     	ds	2
   672                           	global	main@du_1335
   673  0042                     main@du_1335:	; 2 bytes @ 0x22
   674  0042                     	ds	2
   675                           	global	main@du_1336
   676  0044                     main@du_1336:	; 2 bytes @ 0x24
   677  0044                     	ds	2
   678                           	global	main@du_1337
   679  0046                     main@du_1337:	; 2 bytes @ 0x26
   680  0046                     	ds	2
   681                           	global	main@du_1338
   682  0048                     main@du_1338:	; 2 bytes @ 0x28
   683  0048                     	ds	2
   684                           	global	main@du_1339
   685  004A                     main@du_1339:	; 2 bytes @ 0x2A
   686  004A                     	ds	2
   687                           	global	main@du_1340
   688  004C                     main@du_1340:	; 2 bytes @ 0x2C
   689  004C                     	ds	2
   690                           	global	main@du_1341
   691  004E                     main@du_1341:	; 2 bytes @ 0x2E
   692  004E                     	ds	2
   693                           	global	main@du_1342
   694  0050                     main@du_1342:	; 2 bytes @ 0x30
   695  0050                     	ds	2
   696                           	global	main@du_1343
   697  0052                     main@du_1343:	; 2 bytes @ 0x32
   698  0052                     	ds	2
   699                           	global	main@du_1344
   700  0054                     main@du_1344:	; 2 bytes @ 0x34
   701  0054                     	ds	2
   702                           	global	main@du_1345
   703  0056                     main@du_1345:	; 2 bytes @ 0x36
   704  0056                     	ds	2
   705                           	global	main@du_1346
   706  0058                     main@du_1346:	; 2 bytes @ 0x38
   707  0058                     	ds	2
   708                           	global	main@du_1347
   709  005A                     main@du_1347:	; 2 bytes @ 0x3A
   710  005A                     	ds	2
   711                           	global	main@du_1348
   712  005C                     main@du_1348:	; 2 bytes @ 0x3C
   713  005C                     	ds	2
   714                           	global	main@du_1349
   715  005E                     main@du_1349:	; 2 bytes @ 0x3E
   716  005E                     	ds	2
   717                           	global	main@du_1350
   718  0060                     main@du_1350:	; 2 bytes @ 0x40
   719  0060                     	ds	2
   720                           	global	main@du_1351
   721  0062                     main@du_1351:	; 2 bytes @ 0x42
   722  0062                     	ds	2
   723                           	global	main@du_1352
   724  0064                     main@du_1352:	; 2 bytes @ 0x44
   725  0064                     	ds	2
   726                           	global	main@du_1353
   727  0066                     main@du_1353:	; 2 bytes @ 0x46
   728  0066                     	ds	2
   729                           	global	main@du_1354
   730  0068                     main@du_1354:	; 2 bytes @ 0x48
   731  0068                     	ds	2
   732                           	global	main@angle
   733  006A                     main@angle:	; 2 bytes @ 0x4A
   734  006A                     	ds	2
   735 ;;Data sizes: Strings 73, constant 10, data 3, bss 71, persistent 3 stack 0
   736 ;;Auto spaces:   Size  Autos    Used
   737 ;; COMMON          13     11      13
   738 ;; BANK0           80     76      80
   739 ;; BANK1           80      0      71
   740 ;; BANK3           85      0       0
   741 ;; BANK2           96      0       0
   742                           
   743 ;;
   744 ;; Pointer list with targets:
   745                           
   746 ;; ?___lwmod	unsigned int  size(1) Largest target is 0
   747 ;;
   748 ;; ?_read_a2d_value	unsigned int  size(1) Largest target is 0
   749 ;;
   750 ;; ?___lwdiv	unsigned int  size(1) Largest target is 0
   751 ;;
   752 ;; S1407$_cp	PTR const unsigned char  size(1) Largest target is 0
   753 ;;
   754 ;; _val._str._cp	PTR const unsigned char  size(1) Largest target is 0
   755 ;;
   756                           
   757                           
   758 ;;
   759 ;; Critical Paths under _main in COMMON
   760 ;;
   761 ;;   None.
   762 ;;
   763 ;; Critical Paths under _isr in COMMON
   764 ;;
   765 ;;   _isr->___lwmod
   766 ;;   _eeprom_temp->_eeprom_write
   767 ;;
   768 ;; Critical Paths under _main in BANK0
   769 ;;
   770 ;;   _main->___lwdiv
   771 ;;   _a2d_read->_read_a2d_value
   772 ;;   _lcd_init->_lcd_add
   773 ;;
   774 ;; Critical Paths under _isr in BANK0
   775 ;;
   776 ;;   None.
   777 ;;
   778 ;; Critical Paths under _main in BANK1
   779 ;;
   780 ;;   None.
   781 ;;
   782 ;; Critical Paths under _isr in BANK1
   783 ;;
   784 ;;   None.
   785 ;;
   786 ;; Critical Paths under _main in BANK3
   787 ;;
   788 ;;   None.
   789 ;;
   790 ;; Critical Paths under _isr in BANK3
   791 ;;
   792 ;;   None.
   793 ;;
   794 ;; Critical Paths under _main in BANK2
   795 ;;
   796 ;;   None.
   797 ;;
   798 ;; Critical Paths under _isr in BANK2
   799 ;;
   800 ;;   None.
   801                           
   802 ;;
   803 ;;Main: autosize = 0, tempsize = 6, incstack = 0, save=0
   804 ;;
   805                           
   806 ;;
   807 ;;Call Graph Tables:
   808 ;;
   809 ;; ---------------------------------------------------------------------------------
   810 ;; (Depth) Function   	        Calls       Base Space   Used Autos Params    Refs
   811 ;; ---------------------------------------------------------------------------------
   812 ;; (0) _main                                                68    68      0    1042
   813 ;;                                              8 BANK0     68    68      0
   814 ;;                         _rs232_init
   815 ;;                           _init_sys
   816 ;;                          _atod_init
   817 ;;                           _lcd_init
   818 ;;                           _a2d_read
   819 ;;                            ___lwdiv
   820 ;; ---------------------------------------------------------------------------------
   821 ;; (1) _a2d_read                                             0     0      0     114
   822 ;;                     _read_a2d_value
   823 ;; ---------------------------------------------------------------------------------
   824 ;; (2) _read_a2d_value                                       7     5      2     114
   825 ;;                                              0 BANK0      7     5      2
   826 ;; ---------------------------------------------------------------------------------
   827 ;; (1) _lcd_init                                             2     2      0       0
   828 ;;                                              2 BANK0      2     2      0
   829 ;;                            _lcd_add
   830 ;; ---------------------------------------------------------------------------------
   831 ;; (1) ___lwdiv                                              8     4      4     162
   832 ;;                                              0 BANK0      8     4      4
   833 ;; ---------------------------------------------------------------------------------
   834 ;; (1) _rs232_init                                           0     0      0       0
   835 ;; ---------------------------------------------------------------------------------
   836 ;; (1) _atod_init                                            0     0      0       0
   837 ;; ---------------------------------------------------------------------------------
   838 ;; (1) _init_sys                                             0     0      0       0
   839 ;; ---------------------------------------------------------------------------------
   840 ;; (2) _lcd_add                                              2     2      0       0
   841 ;;                                              0 BANK0      2     2      0
   842 ;; ---------------------------------------------------------------------------------
   843 ;; Estimated maximum stack depth 2
   844 ;; ---------------------------------------------------------------------------------
   845 ;; (Depth) Function   	        Calls       Base Space   Used Autos Params    Refs
   846 ;; ---------------------------------------------------------------------------------
   847 ;; (3) _isr                                                  5     5      0     209
   848 ;;                                              6 COMMON     5     5      0
   849 ;;                            ___lwmod
   850 ;;                        _eeprom_temp
   851 ;;                                _nop
   852 ;; ---------------------------------------------------------------------------------
   853 ;; (4) _eeprom_temp                                          1     1      0      50
   854 ;;                                              3 COMMON     1     1      0
   855 ;;                       _eeprom_write
   856 ;; ---------------------------------------------------------------------------------
   857 ;; (4) ___lwmod                                              6     2      4     159
   858 ;;                                              0 COMMON     6     2      4
   859 ;; ---------------------------------------------------------------------------------
   860 ;; (5) _eeprom_write                                         3     2      1      50
   861 ;;                                              0 COMMON     3     2      1
   862 ;; ---------------------------------------------------------------------------------
   863 ;; (4) _nop                                                  0     0      0       0
   864 ;; ---------------------------------------------------------------------------------
   865 ;; Estimated maximum stack depth 5
   866 ;; ---------------------------------------------------------------------------------
   867                           
   868 ;; Call Graph Graphs:
   869                           
   870 ;; _main (ROOT)
   871 ;;   _rs232_init
   872 ;;   _init_sys
   873 ;;   _atod_init
   874 ;;   _lcd_init
   875 ;;     _lcd_add
   876 ;;   _a2d_read
   877 ;;     _read_a2d_value
   878 ;;   ___lwdiv
   879 ;;
   880 ;; _isr (ROOT)
   881 ;;   ___lwmod
   882 ;;   _eeprom_temp
   883 ;;     _eeprom_write
   884 ;;   _nop
   885 ;;
   886                           
   887 ;; Address spaces:
   888                           
   889 ;;Name               Size   Autos  Total    Cost      Usage
   890 ;;BANK3               55      0       0       9        0.0%
   891 ;;BITBANK3            55      0       0       8        0.0%
   892 ;;SFR3                 0      0       0       4        0.0%
   893 ;;BITSFR3              0      0       0       4        0.0%
   894 ;;BANK2               60      0       0      11        0.0%
   895 ;;BITBANK2            60      0       0      10        0.0%
   896 ;;SFR2                 0      0       0       5        0.0%
   897 ;;BITSFR2              0      0       0       5        0.0%
   898 ;;SFR1                 0      0       0       2        0.0%
   899 ;;BITSFR1              0      0       0       2        0.0%
   900 ;;BANK1               50      0      47       7       88.8%
   901 ;;BITBANK1            50      0       0       6        0.0%
   902 ;;CODE                 0      0       0       0        0.0%
   903 ;;DATA                 0      0      AC      12        0.0%
   904 ;;ABS                  0      0      A4       3        0.0%
   905 ;;NULL                 0      0       0       0        0.0%
   906 ;;STACK                0      0       8       2        0.0%
   907 ;;BANK0               50     4C      50       5      100.0%
   908 ;;BITBANK0            50      0       0       4        0.0%
   909 ;;SFR0                 0      0       0       1        0.0%
   910 ;;BITSFR0              0      0       0       1        0.0%
   911 ;;COMMON               D      B       D       1      100.0%
   912 ;;BITCOMMON            D      0       0       0        0.0%
   913 ;;EEDATA             100      0       0       0        0.0%
   914                           
   915                           	global	_main
   916                           psect	maintext,global,class=CODE,delta=2
   917                           global __pmaintext
   918  0EF5                     __pmaintext:
   919                           
   920 ;; *************** function _main *****************
   921 ;; Defined at:
   922 ;;		line 91 in file "F:\ELECTRONIC\2015\Projects\New folder\test.c"
   923 ;; Parameters:    Size  Location     Type
   924 ;;		None
   925 ;; Auto vars:     Size  Location     Type
   926 ;;  du              2   28[BANK0 ] int 
   927 ;;  du              2   26[BANK0 ] int 
   928 ;;  du              2   18[BANK0 ] int 
   929 ;;  du              2   16[BANK0 ] int 
   930 ;;  du              2   32[BANK0 ] int 
   931 ;;  du              2   30[BANK0 ] int 
   932 ;;  i               2   24[BANK0 ] int 
   933 ;;  du              2   22[BANK0 ] int 
   934 ;;  du              2   20[BANK0 ] int 
   935 ;;  i               2   14[BANK0 ] int 
   936 ;;  du              2   72[BANK0 ] int 
   937 ;;  du              2   70[BANK0 ] int 
   938 ;;  du              2   68[BANK0 ] int 
   939 ;;  du              2   66[BANK0 ] int 
   940 ;;  du              2   64[BANK0 ] int 
   941 ;;  du              2   62[BANK0 ] int 
   942 ;;  du              2   60[BANK0 ] int 
   943 ;;  du              2   58[BANK0 ] int 
   944 ;;  du              2   56[BANK0 ] int 
   945 ;;  du              2   54[BANK0 ] int 
   946 ;;  du              2   52[BANK0 ] int 
   947 ;;  du              2   50[BANK0 ] int 
   948 ;;  du              2   48[BANK0 ] int 
   949 ;;  du              2   46[BANK0 ] int 
   950 ;;  du              2   44[BANK0 ] int 
   951 ;;  du              2   42[BANK0 ] int 
   952 ;;  du              2   40[BANK0 ] int 
   953 ;;  du              2   38[BANK0 ] int 
   954 ;;  du              2   36[BANK0 ] int 
   955 ;;  du              2   34[BANK0 ] int 
   956 ;;  angle           2   74[BANK0 ] unsigned int 
   957 ;; Return value:  Size  Location     Type
   958 ;;		None               void
   959 ;; Registers used:
   960 ;;		wreg, status,2, status,0, pclath, cstack
   961 ;; Tracked objects:
   962 ;;		On entry : 17F/0
   963 ;;		On exit  : 0/0
   964 ;;		Unchanged: 0/0
   965 ;; Data sizes:     COMMON   BANK0   BANK1   BANK3   BANK2
   966 ;;      Params:         0       0       0       0       0
   967 ;;      Locals:         0      62       0       0       0
   968 ;;      Temps:          0       6       0       0       0
   969 ;;      Totals:         0      68       0       0       0
   970 ;;Total ram usage:       68 bytes
   971 ;; Hardware stack levels required when called:    5
   972 ;; This function calls:
   973 ;;		_rs232_init
   974 ;;		_init_sys
   975 ;;		_atod_init
   976 ;;		_lcd_init
   977 ;;		_a2d_read
   978 ;;		___lwdiv
   979 ;; This function is called by:
   980 ;;		Startup code after reset
   981 ;; This function uses a non-reentrant model
   982 ;;
   983                           psect	maintext
   984                           	file	"F:\ELECTRONIC\2015\Projects\New folder\test.c"
   985                           	line	91
   986                           	global	__size_of_main
   987  F90B                     	__size_of_main	equ	__end_of_main-_main
   988                           	
   989  0EF5                     _main:	
   990                           	opt	stack 3
   991                           ; Regs used in _main: [wreg+status,2+status,0+pclath+cstack]
   992                           	line	93
   993                           	
   994  0EF5                     l6169:	
   995                           ;test.c: 93: rs232_init();
   996  0EF5  120A  158A  23C5   	fcall	_rs232_init
              120A  158A         
   997                           	line	94
   998                           ;test.c: 94: init_sys();
   999  0EFA  120A  158A  23B0   	fcall	_init_sys
              120A  158A         
  1000                           	line	96
  1001                           	
  1002  0EFF                     l6171:	
  1003                           ;test.c: 96: TRISD = 0b00000000;
  1004  0EFF  1683               	bsf	status, 5	;RP0=1, select bank1
  1005  0F00  1303               	bcf	status, 6	;RP1=0, select bank1
  1006  0F01  0188               	clrf	(136)^080h	;volatile
  1007                           	line	97
  1008                           	
  1009  0F02                     l6173:	
  1010                           ;test.c: 97: PORTD = 0b00000000;
  1011  0F02  1283               	bcf	status, 5	;RP0=0, select bank0
  1012  0F03  1303               	bcf	status, 6	;RP1=0, select bank0
  1013  0F04  0188               	clrf	(8)	;volatile
  1014                           	line	99
  1015                           	
  1016  0F05                     l6175:	
  1017                           ;test.c: 99: TRISE = 0b00000000;
  1018  0F05  1683               	bsf	status, 5	;RP0=1, select bank1
  1019  0F06  1303               	bcf	status, 6	;RP1=0, select bank1
  1020  0F07  0189               	clrf	(137)^080h	;volatile
  1021                           	line	100
  1022                           	
  1023  0F08                     l6177:	
  1024                           ;test.c: 100: PORTE = 0b00000000;
  1025  0F08  1283               	bcf	status, 5	;RP0=0, select bank0
  1026  0F09  1303               	bcf	status, 6	;RP1=0, select bank0
  1027  0F0A  0189               	clrf	(9)	;volatile
  1028                           	line	103
  1029                           ;test.c: 103: atod_init();
  1030  0F0B  120A  158A  23A7   	fcall	_atod_init
              120A  158A         
  1031                           	line	104
  1032                           ;test.c: 104: lcd_init();
  1033  0F10  120A  158A  2636   	fcall	_lcd_init
              120A  158A         
  1034                           	line	110
  1035                           ;test.c: 110: a2d_read();
  1036  0F15  120A  118A  201D   	fcall	_a2d_read
              120A  158A         
  1037                           	line	114
  1038                           ;test.c: 112: unsigned int angle;
  1039                           ;test.c: 114: while(1)
  1040                           	
  1041  0F1A                     l820:	
  1042                           	line	115
  1043                           ;test.c: 115: { a2d_read();
  1044  0F1A  120A  118A  201D   	fcall	_a2d_read
              120A  158A         
  1045                           	line	118
  1046                           ;test.c: 118: while( vblAccX < 312 && vblAccY > 356 )
  1047  0F1F  120A  118A  2A32   	goto	l6261
  1048                           	
  1049  0F22                     l822:	
  1050                           	line	121
  1051                           	
  1052  0F22                     l6179:	
  1053                           ;test.c: 119: {
  1054                           ;test.c: 121: if( vblAccY-356 > 312-vblAccX)
  1055  0F22  1283               	bcf	status, 5	;RP0=0, select bank0
  1056  0F23  1303               	bcf	status, 6	;RP1=0, select bank0
  1057  0F24  086E               	movf	(_vblAccY),w
  1058  0F25  3E9C               	addlw	low(0FE9Ch)
  1059  0F26  00A8               	movwf	(??_main+0)+0
  1060  0F27  086F               	movf	(_vblAccY+1),w
  1061  0F28  1803               	skipnc
  1062  0F29  3E01               	addlw	1
  1063  0F2A  3EFE               	addlw	high(0FE9Ch)
  1064  0F2B  00A9               	movwf	1+(??_main+0)+0
  1065  0F2C  096C               	comf	(_vblAccX),w
  1066  0F2D  00AA               	movwf	(??_main+2)+0
  1067  0F2E  096D               	comf	(_vblAccX+1),w
  1068  0F2F  00AB               	movwf	((??_main+2)+0+1)
  1069  0F30  0AAA               	incf	(??_main+2)+0,f
  1070  0F31  1903               	skipnz
  1071  0F32  0AAB               	incf	((??_main+2)+0+1),f
  1072  0F33  082A               	movf	0+(??_main+2)+0,w
  1073  0F34  3E38               	addlw	low(0138h)
  1074  0F35  00AC               	movwf	(??_main+4)+0
  1075  0F36  082B               	movf	1+(??_main+2)+0,w
  1076  0F37  1803               	skipnc
  1077  0F38  3E01               	addlw	1
  1078  0F39  3E01               	addlw	high(0138h)
  1079  0F3A  00AD               	movwf	1+(??_main+4)+0
  1080  0F3B  0829               	movf	1+(??_main+0)+0,w
  1081  0F3C  022D               	subwf	1+(??_main+4)+0,w
  1082  0F3D  1D03               	skipz
  1083  0F3E  2F41               	goto	u4985
  1084  0F3F  0828               	movf	0+(??_main+0)+0,w
  1085  0F40  022C               	subwf	0+(??_main+4)+0,w
  1086  0F41                     u4985:
  1087  0F41  1803               	skipnc
  1088  0F42  2F44               	goto	u4981
  1089  0F43  2F47               	goto	u4980
  1090  0F44                     u4981:
  1091  0F44  120A  118A  28FC   	goto	l6223
  1092  0F47                     u4980:
  1093                           	line	123
  1094                           	
  1095  0F47                     l6181:	
  1096                           ;test.c: 122: {
  1097                           ;test.c: 123: angle = (vblAccY-356)/(312-vblAccX);
  1098  0F47  096C               	comf	(_vblAccX),w
  1099  0F48  00A8               	movwf	(??_main+0)+0
  1100  0F49  096D               	comf	(_vblAccX+1),w
  1101  0F4A  00A9               	movwf	((??_main+0)+0+1)
  1102  0F4B  0AA8               	incf	(??_main+0)+0,f
  1103  0F4C  1903               	skipnz
  1104  0F4D  0AA9               	incf	((??_main+0)+0+1),f
  1105  0F4E  0828               	movf	0+(??_main+0)+0,w
  1106  0F4F  3E38               	addlw	low(0138h)
  1107  0F50  00A0               	movwf	(?___lwdiv)
  1108  0F51  0829               	movf	1+(??_main+0)+0,w
  1109  0F52  1803               	skipnc
  1110  0F53  3E01               	addlw	1
  1111  0F54  3E01               	addlw	high(0138h)
  1112  0F55  00A1               	movwf	1+(?___lwdiv)
  1113  0F56  086E               	movf	(_vblAccY),w
  1114  0F57  3E9C               	addlw	low(0FE9Ch)
  1115  0F58  00A2               	movwf	0+(?___lwdiv)+02h
  1116  0F59  086F               	movf	(_vblAccY+1),w
  1117  0F5A  1803               	skipnc
  1118  0F5B  3E01               	addlw	1
  1119  0F5C  3EFE               	addlw	high(0FE9Ch)
  1120  0F5D  00A3               	movwf	1+0+(?___lwdiv)+02h
  1121  0F5E  120A  158A  2534   	fcall	___lwdiv
              120A  158A         
  1122  0F63  1283               	bcf	status, 5	;RP0=0, select bank0
  1123  0F64  1303               	bcf	status, 6	;RP1=0, select bank0
  1124  0F65  0821               	movf	(1+(?___lwdiv)),w
  1125  0F66  01EB               	clrf	(main@angle+1)
  1126  0F67  07EB               	addwf	(main@angle+1)
  1127  0F68  0820               	movf	(0+(?___lwdiv)),w
  1128  0F69  01EA               	clrf	(main@angle)
  1129  0F6A  07EA               	addwf	(main@angle)
  1130                           
  1131                           	line	125
  1132                           	
  1133  0F6B                     l6183:	
  1134                           ;test.c: 125: for(int i=0; i<angle; i++)
  1135  0F6B  01AE               	clrf	(main@i)
  1136  0F6C  01AF               	clrf	(main@i+1)
  1137  0F6D  2FEE               	goto	l6205
  1138                           	line	126
  1139                           	
  1140  0F6E                     l825:	
  1141                           	line	128
  1142                           ;test.c: 126: {
  1143                           ;test.c: 128: RD7=1;
  1144  0F6E  1788               	bsf	(71/8),(71)&7
  1145                           	line	129
  1146                           	
  1147  0F6F                     l6185:	
  1148                           ;test.c: 129: for(int du=1; du<=51-(vblAccY-356); du++) _delay((unsigned long)((400)*(40
                                 00000/4000000.0)));
  1149  0F6F  3001               	movlw	low(01h)
  1150  0F70  00B0               	movwf	(main@du)
  1151  0F71  3000               	movlw	high(01h)
  1152  0F72  00B1               	movwf	((main@du))+1
  1153  0F73  2F81               	goto	l6189
  1154                           	
  1155  0F74                     l827:	
  1156                           	
  1157  0F74                     l6187:	
  1158                           	opt asmopt_off
  1159  0F74  3085               movlw	133
  1160  0F75  00A8               movwf	(??_main+0)+0,f
  1161  0F76                     u5497:
  1162  0F76  0BA8               decfsz	(??_main+0)+0,f
  1163  0F77  2F76               	goto	u5497
  1164                           opt asmopt_on
  1165                           
  1166  0F78  3001               	movlw	low(01h)
  1167  0F79  1283               	bcf	status, 5	;RP0=0, select bank0
  1168  0F7A  1303               	bcf	status, 6	;RP1=0, select bank0
  1169  0F7B  07B0               	addwf	(main@du),f
  1170  0F7C  1803               	skipnc
  1171  0F7D  0AB1               	incf	(main@du+1),f
  1172  0F7E  3000               	movlw	high(01h)
  1173  0F7F  07B1               	addwf	(main@du+1),f
  1174  0F80  2F81               	goto	l6189
  1175                           	
  1176  0F81                     l826:	
  1177                           	
  1178  0F81                     l6189:	
  1179  0F81  086E               	movf	(_vblAccY),w
  1180  0F82  3E9C               	addlw	low(0FE9Ch)
  1181  0F83  00A8               	movwf	(??_main+0)+0
  1182  0F84  086F               	movf	(_vblAccY+1),w
  1183  0F85  1803               	skipnc
  1184  0F86  3E01               	addlw	1
  1185  0F87  3EFE               	addlw	high(0FE9Ch)
  1186  0F88  00A9               	movwf	1+(??_main+0)+0
  1187  0F89  09A8               	comf	(??_main+0)+0,f
  1188  0F8A  09A9               	comf	(??_main+0)+1,f
  1189  0F8B  0AA8               	incf	(??_main+0)+0,f
  1190  0F8C  1903               	skipnz
  1191  0F8D  0AA9               	incf	(??_main+0)+1,f
  1192  0F8E  0828               	movf	0+(??_main+0)+0,w
  1193  0F8F  3E33               	addlw	low(033h)
  1194  0F90  00AA               	movwf	(??_main+2)+0
  1195  0F91  0829               	movf	1+(??_main+0)+0,w
  1196  0F92  1803               	skipnc
  1197  0F93  3E01               	addlw	1
  1198  0F94  3E00               	addlw	high(033h)
  1199  0F95  00AB               	movwf	1+(??_main+2)+0
  1200  0F96  0831               	movf	(main@du+1),w
  1201  0F97  022B               	subwf	1+(??_main+2)+0,w
  1202  0F98  1D03               	skipz
  1203  0F99  2F9C               	goto	u4995
  1204  0F9A  0830               	movf	(main@du),w
  1205  0F9B  022A               	subwf	0+(??_main+2)+0,w
  1206  0F9C                     u4995:
  1207  0F9C  1803               	skipnc
  1208  0F9D  2F9F               	goto	u4991
  1209  0F9E  2FA0               	goto	u4990
  1210  0F9F                     u4991:
  1211  0F9F  2F74               	goto	l6187
  1212  0FA0                     u4990:
  1213                           	
  1214  0FA0                     l828:	
  1215                           	line	130
  1216                           ;test.c: 130: RD6=1;
  1217  0FA0  1708               	bsf	(70/8),(70)&7
  1218                           	line	131
  1219                           	
  1220  0FA1                     l6191:	
  1221                           ;test.c: 131: _delay((unsigned long)((20)*(4000000/4000000.0)));
  1222                           	opt asmopt_off
  1223  0FA1  3006               movlw	6
  1224  0FA2  00A8               movwf	(??_main+0)+0,f
  1225  0FA3                     u5507:
  1226  0FA3  0BA8               decfsz	(??_main+0)+0,f
  1227  0FA4  2FA3               	goto	u5507
  1228  0FA5  0064               	clrwdt
  1229                           opt asmopt_on
  1230                           
  1231                           	line	132
  1232                           	
  1233  0FA6                     l6193:	
  1234                           ;test.c: 132: RD7=0;
  1235  0FA6  1283               	bcf	status, 5	;RP0=0, select bank0
  1236  0FA7  1303               	bcf	status, 6	;RP1=0, select bank0
  1237  0FA8  1388               	bcf	(71/8),(71)&7
  1238                           	line	133
  1239                           ;test.c: 133: for(int du=1; du<=51-(vblAccY-356); du++) _delay((unsigned long)((400)*(40
                                 00000/4000000.0)));
  1240  0FA9  3001               	movlw	low(01h)
  1241  0FAA  00B2               	movwf	(main@du_1327)
  1242  0FAB  3000               	movlw	high(01h)
  1243  0FAC  00B3               	movwf	((main@du_1327))+1
  1244  0FAD  2FBB               	goto	l6197
  1245                           	
  1246  0FAE                     l830:	
  1247                           	
  1248  0FAE                     l6195:	
  1249                           	opt asmopt_off
  1250  0FAE  3085               movlw	133
  1251  0FAF  00A8               movwf	(??_main+0)+0,f
  1252  0FB0                     u5517:
  1253  0FB0  0BA8               decfsz	(??_main+0)+0,f
  1254  0FB1  2FB0               	goto	u5517
  1255                           opt asmopt_on
  1256                           
  1257  0FB2  3001               	movlw	low(01h)
  1258  0FB3  1283               	bcf	status, 5	;RP0=0, select bank0
  1259  0FB4  1303               	bcf	status, 6	;RP1=0, select bank0
  1260  0FB5  07B2               	addwf	(main@du_1327),f
  1261  0FB6  1803               	skipnc
  1262  0FB7  0AB3               	incf	(main@du_1327+1),f
  1263  0FB8  3000               	movlw	high(01h)
  1264  0FB9  07B3               	addwf	(main@du_1327+1),f
  1265  0FBA  2FBB               	goto	l6197
  1266                           	
  1267  0FBB                     l829:	
  1268                           	
  1269  0FBB                     l6197:	
  1270  0FBB  086E               	movf	(_vblAccY),w
  1271  0FBC  3E9C               	addlw	low(0FE9Ch)
  1272  0FBD  00A8               	movwf	(??_main+0)+0
  1273  0FBE  086F               	movf	(_vblAccY+1),w
  1274  0FBF  1803               	skipnc
  1275  0FC0  3E01               	addlw	1
  1276  0FC1  3EFE               	addlw	high(0FE9Ch)
  1277  0FC2  00A9               	movwf	1+(??_main+0)+0
  1278  0FC3  09A8               	comf	(??_main+0)+0,f
  1279  0FC4  09A9               	comf	(??_main+0)+1,f
  1280  0FC5  0AA8               	incf	(??_main+0)+0,f
  1281  0FC6  1903               	skipnz
  1282  0FC7  0AA9               	incf	(??_main+0)+1,f
  1283  0FC8  0828               	movf	0+(??_main+0)+0,w
  1284  0FC9  3E33               	addlw	low(033h)
  1285  0FCA  00AA               	movwf	(??_main+2)+0
  1286  0FCB  0829               	movf	1+(??_main+0)+0,w
  1287  0FCC  1803               	skipnc
  1288  0FCD  3E01               	addlw	1
  1289  0FCE  3E00               	addlw	high(033h)
  1290  0FCF  00AB               	movwf	1+(??_main+2)+0
  1291  0FD0  0833               	movf	(main@du_1327+1),w
  1292  0FD1  022B               	subwf	1+(??_main+2)+0,w
  1293  0FD2  1D03               	skipz
  1294  0FD3  2FD6               	goto	u5005
  1295  0FD4  0832               	movf	(main@du_1327),w
  1296  0FD5  022A               	subwf	0+(??_main+2)+0,w
  1297  0FD6                     u5005:
  1298  0FD6  1803               	skipnc
  1299  0FD7  2FD9               	goto	u5001
  1300  0FD8  2FDA               	goto	u5000
  1301  0FD9                     u5001:
  1302  0FD9  2FAE               	goto	l6195
  1303  0FDA                     u5000:
  1304                           	
  1305  0FDA                     l831:	
  1306                           	line	134
  1307                           ;test.c: 134: RD6=0;
  1308  0FDA  1308               	bcf	(70/8),(70)&7
  1309                           	line	135
  1310                           	
  1311  0FDB                     l6199:	
  1312                           ;test.c: 135: _delay((unsigned long)((20)*(4000000/4000000.0)));
  1313                           	opt asmopt_off
  1314  0FDB  3006               movlw	6
  1315  0FDC  00A8               movwf	(??_main+0)+0,f
  1316  0FDD                     u5527:
  1317  0FDD  0BA8               decfsz	(??_main+0)+0,f
  1318  0FDE  2FDD               	goto	u5527
  1319  0FDF  0064               	clrwdt
  1320                           opt asmopt_on
  1321                           
  1322                           	line	136
  1323                           	
  1324  0FE0                     l6201:	
  1325                           ;test.c: 136: a2d_read();
  1326  0FE0  120A  118A  201D   	fcall	_a2d_read
              120A  158A         
  1327                           	line	125
  1328                           	
  1329  0FE5                     l6203:	
  1330  0FE5  3001               	movlw	low(01h)
  1331  0FE6  1283               	bcf	status, 5	;RP0=0, select bank0
  1332  0FE7  1303               	bcf	status, 6	;RP1=0, select bank0
  1333  0FE8  07AE               	addwf	(main@i),f
  1334  0FE9  1803               	skipnc
  1335  0FEA  0AAF               	incf	(main@i+1),f
  1336  0FEB  3000               	movlw	high(01h)
  1337  0FEC  07AF               	addwf	(main@i+1),f
  1338  0FED  2FEE               	goto	l6205
  1339                           	
  1340  0FEE                     l824:	
  1341                           	
  1342  0FEE                     l6205:	
  1343  0FEE  086B               	movf	(main@angle+1),w
  1344  0FEF  022F               	subwf	(main@i+1),w
  1345  0FF0  1D03               	skipz
  1346  0FF1  2FF4               	goto	u5015
  1347  0FF2  086A               	movf	(main@angle),w
  1348  0FF3  022E               	subwf	(main@i),w
  1349  0FF4                     u5015:
  1350  0FF4  1C03               	skipc
  1351  0FF5  2FF7               	goto	u5011
  1352  0FF6  2FF8               	goto	u5010
  1353  0FF7                     u5011:
  1354  0FF7  2F6E               	goto	l825
  1355  0FF8                     u5010:
  1356                           	
  1357  0FF8                     l832:	
  1358                           	line	140
  1359                           ;test.c: 137: }
  1360                           ;test.c: 140: RD4=1;
  1361  0FF8  1608               	bsf	(68/8),(68)&7
  1362                           	line	141
  1363                           	
  1364  0FF9                     l6207:	
  1365                           ;test.c: 141: for(int du=1; du<=51-(312-vblAccX); du++) _delay((unsigned long)((400)*(40
                                 00000/4000000.0)));
  1366  0FF9  3001               	movlw	low(01h)
  1367  0FFA  00B4               	movwf	(main@du_1328)
  1368  0FFB  3000               	movlw	high(01h)
  1369  0FFC  00B5               	movwf	((main@du_1328))+1
  1370  0FFD  120A  118A  288C   	goto	l6211
  1371                           	
  1372  007F                     l834:	
  1373                           	
  1374  007F                     l6209:	
  1375                           	opt asmopt_off
  1376  007F  3085               movlw	133
  1377  0080  00A8               movwf	(??_main+0)+0,f
  1378  0081                     u5537:
  1379  0081  0BA8               decfsz	(??_main+0)+0,f
  1380  0082  2881               	goto	u5537
  1381                           opt asmopt_on
  1382                           
  1383  0083  3001               	movlw	low(01h)
  1384  0084  1283               	bcf	status, 5	;RP0=0, select bank0
  1385  0085  1303               	bcf	status, 6	;RP1=0, select bank0
  1386  0086  07B4               	addwf	(main@du_1328),f
  1387  0087  1803               	skipnc
  1388  0088  0AB5               	incf	(main@du_1328+1),f
  1389  0089  3000               	movlw	high(01h)
  1390  008A  07B5               	addwf	(main@du_1328+1),f
  1391  008B  288C               	goto	l6211
  1392                           	
  1393  008C                     l833:	
  1394                           	
  1395  008C                     l6211:	
  1396  008C  096C               	comf	(_vblAccX),w
  1397  008D  00A8               	movwf	(??_main+0)+0
  1398  008E  096D               	comf	(_vblAccX+1),w
  1399  008F  00A9               	movwf	((??_main+0)+0+1)
  1400  0090  0AA8               	incf	(??_main+0)+0,f
  1401  0091  1903               	skipnz
  1402  0092  0AA9               	incf	((??_main+0)+0+1),f
  1403  0093  0828               	movf	0+(??_main+0)+0,w
  1404  0094  3E38               	addlw	low(0138h)
  1405  0095  00AA               	movwf	(??_main+2)+0
  1406  0096  0829               	movf	1+(??_main+0)+0,w
  1407  0097  1803               	skipnc
  1408  0098  3E01               	addlw	1
  1409  0099  3E01               	addlw	high(0138h)
  1410  009A  00AB               	movwf	1+(??_main+2)+0
  1411  009B  09AA               	comf	(??_main+2)+0,f
  1412  009C  09AB               	comf	(??_main+2)+1,f
  1413  009D  0AAA               	incf	(??_main+2)+0,f
  1414  009E  1903               	skipnz
  1415  009F  0AAB               	incf	(??_main+2)+1,f
  1416  00A0  082A               	movf	0+(??_main+2)+0,w
  1417  00A1  3E33               	addlw	low(033h)
  1418  00A2  00AC               	movwf	(??_main+4)+0
  1419  00A3  082B               	movf	1+(??_main+2)+0,w
  1420  00A4  1803               	skipnc
  1421  00A5  3E01               	addlw	1
  1422  00A6  3E00               	addlw	high(033h)
  1423  00A7  00AD               	movwf	1+(??_main+4)+0
  1424  00A8  0835               	movf	(main@du_1328+1),w
  1425  00A9  022D               	subwf	1+(??_main+4)+0,w
  1426  00AA  1D03               	skipz
  1427  00AB  28AE               	goto	u5025
  1428  00AC  0834               	movf	(main@du_1328),w
  1429  00AD  022C               	subwf	0+(??_main+4)+0,w
  1430  00AE                     u5025:
  1431  00AE  1803               	skipnc
  1432  00AF  28B1               	goto	u5021
  1433  00B0  28B2               	goto	u5020
  1434  00B1                     u5021:
  1435  00B1  287F               	goto	l6209
  1436  00B2                     u5020:
  1437                           	
  1438  00B2                     l835:	
  1439                           	line	142
  1440                           ;test.c: 142: RD5=1;
  1441  00B2  1688               	bsf	(69/8),(69)&7
  1442                           	line	143
  1443                           	
  1444  00B3                     l6213:	
  1445                           ;test.c: 143: _delay((unsigned long)((20)*(4000000/4000000.0)));
  1446                           	opt asmopt_off
  1447  00B3  3006               movlw	6
  1448  00B4  00A8               movwf	(??_main+0)+0,f
  1449  00B5                     u5547:
  1450  00B5  0BA8               decfsz	(??_main+0)+0,f
  1451  00B6  28B5               	goto	u5547
  1452  00B7  0064               	clrwdt
  1453                           opt asmopt_on
  1454                           
  1455                           	line	144
  1456                           	
  1457  00B8                     l6215:	
  1458                           ;test.c: 144: RD4=0;
  1459  00B8  1283               	bcf	status, 5	;RP0=0, select bank0
  1460  00B9  1303               	bcf	status, 6	;RP1=0, select bank0
  1461  00BA  1208               	bcf	(68/8),(68)&7
  1462                           	line	145
  1463                           ;test.c: 145: for(int du=1; du<=51-(312-vblAccX); du++) _delay((unsigned long)((400)*(40
                                 00000/4000000.0)));
  1464  00BB  3001               	movlw	low(01h)
  1465  00BC  00B6               	movwf	(main@du_1329)
  1466  00BD  3000               	movlw	high(01h)
  1467  00BE  00B7               	movwf	((main@du_1329))+1
  1468  00BF  28CD               	goto	l6219
  1469                           	
  1470  00C0                     l837:	
  1471                           	
  1472  00C0                     l6217:	
  1473                           	opt asmopt_off
  1474  00C0  3085               movlw	133
  1475  00C1  00A8               movwf	(??_main+0)+0,f
  1476  00C2                     u5557:
  1477  00C2  0BA8               decfsz	(??_main+0)+0,f
  1478  00C3  28C2               	goto	u5557
  1479                           opt asmopt_on
  1480                           
  1481  00C4  3001               	movlw	low(01h)
  1482  00C5  1283               	bcf	status, 5	;RP0=0, select bank0
  1483  00C6  1303               	bcf	status, 6	;RP1=0, select bank0
  1484  00C7  07B6               	addwf	(main@du_1329),f
  1485  00C8  1803               	skipnc
  1486  00C9  0AB7               	incf	(main@du_1329+1),f
  1487  00CA  3000               	movlw	high(01h)
  1488  00CB  07B7               	addwf	(main@du_1329+1),f
  1489  00CC  28CD               	goto	l6219
  1490                           	
  1491  00CD                     l836:	
  1492                           	
  1493  00CD                     l6219:	
  1494  00CD  096C               	comf	(_vblAccX),w
  1495  00CE  00A8               	movwf	(??_main+0)+0
  1496  00CF  096D               	comf	(_vblAccX+1),w
  1497  00D0  00A9               	movwf	((??_main+0)+0+1)
  1498  00D1  0AA8               	incf	(??_main+0)+0,f
  1499  00D2  1903               	skipnz
  1500  00D3  0AA9               	incf	((??_main+0)+0+1),f
  1501  00D4  0828               	movf	0+(??_main+0)+0,w
  1502  00D5  3E38               	addlw	low(0138h)
  1503  00D6  00AA               	movwf	(??_main+2)+0
  1504  00D7  0829               	movf	1+(??_main+0)+0,w
  1505  00D8  1803               	skipnc
  1506  00D9  3E01               	addlw	1
  1507  00DA  3E01               	addlw	high(0138h)
  1508  00DB  00AB               	movwf	1+(??_main+2)+0
  1509  00DC  09AA               	comf	(??_main+2)+0,f
  1510  00DD  09AB               	comf	(??_main+2)+1,f
  1511  00DE  0AAA               	incf	(??_main+2)+0,f
  1512  00DF  1903               	skipnz
  1513  00E0  0AAB               	incf	(??_main+2)+1,f
  1514  00E1  082A               	movf	0+(??_main+2)+0,w
  1515  00E2  3E33               	addlw	low(033h)
  1516  00E3  00AC               	movwf	(??_main+4)+0
  1517  00E4  082B               	movf	1+(??_main+2)+0,w
  1518  00E5  1803               	skipnc
  1519  00E6  3E01               	addlw	1
  1520  00E7  3E00               	addlw	high(033h)
  1521  00E8  00AD               	movwf	1+(??_main+4)+0
  1522  00E9  0837               	movf	(main@du_1329+1),w
  1523  00EA  022D               	subwf	1+(??_main+4)+0,w
  1524  00EB  1D03               	skipz
  1525  00EC  28EF               	goto	u5035
  1526  00ED  0836               	movf	(main@du_1329),w
  1527  00EE  022C               	subwf	0+(??_main+4)+0,w
  1528  00EF                     u5035:
  1529  00EF  1803               	skipnc
  1530  00F0  28F2               	goto	u5031
  1531  00F1  28F3               	goto	u5030
  1532  00F2                     u5031:
  1533  00F2  28C0               	goto	l6217
  1534  00F3                     u5030:
  1535                           	
  1536  00F3                     l838:	
  1537                           	line	146
  1538                           ;test.c: 146: RD5=0;
  1539  00F3  1288               	bcf	(69/8),(69)&7
  1540                           	line	147
  1541                           	
  1542  00F4                     l6221:	
  1543                           ;test.c: 147: _delay((unsigned long)((20)*(4000000/4000000.0)));
  1544                           	opt asmopt_off
  1545  00F4  3006               movlw	6
  1546  00F5  00A8               movwf	(??_main+0)+0,f
  1547  00F6                     u5567:
  1548  00F6  0BA8               decfsz	(??_main+0)+0,f
  1549  00F7  28F6               	goto	u5567
  1550  00F8  0064               	clrwdt
  1551                           opt asmopt_on
  1552                           
  1553                           	line	148
  1554                           ;test.c: 148: }
  1555  00F9  120A  118A  2A32   	goto	l6261
  1556                           	line	149
  1557                           	
  1558  00FC                     l823:	
  1559                           	line	151
  1560                           	
  1561  00FC                     l6223:	
  1562                           ;test.c: 149: else
  1563                           ;test.c: 150: {
  1564                           ;test.c: 151: angle = (312-vblAccX)/(vblAccY-356);
  1565  00FC  1283               	bcf	status, 5	;RP0=0, select bank0
  1566  00FD  1303               	bcf	status, 6	;RP1=0, select bank0
  1567  00FE  086E               	movf	(_vblAccY),w
  1568  00FF  3E9C               	addlw	low(0FE9Ch)
  1569  0100  00A0               	movwf	(?___lwdiv)
  1570  0101  086F               	movf	(_vblAccY+1),w
  1571  0102  1803               	skipnc
  1572  0103  3E01               	addlw	1
  1573  0104  3EFE               	addlw	high(0FE9Ch)
  1574  0105  00A1               	movwf	1+(?___lwdiv)
  1575  0106  096C               	comf	(_vblAccX),w
  1576  0107  00A8               	movwf	(??_main+0)+0
  1577  0108  096D               	comf	(_vblAccX+1),w
  1578  0109  00A9               	movwf	((??_main+0)+0+1)
  1579  010A  0AA8               	incf	(??_main+0)+0,f
  1580  010B  1903               	skipnz
  1581  010C  0AA9               	incf	((??_main+0)+0+1),f
  1582  010D  0828               	movf	0+(??_main+0)+0,w
  1583  010E  3E38               	addlw	low(0138h)
  1584  010F  00A2               	movwf	0+(?___lwdiv)+02h
  1585  0110  0829               	movf	1+(??_main+0)+0,w
  1586  0111  1803               	skipnc
  1587  0112  3E01               	addlw	1
  1588  0113  3E01               	addlw	high(0138h)
  1589  0114  00A3               	movwf	1+0+(?___lwdiv)+02h
  1590  0115  120A  158A  2534   	fcall	___lwdiv
              120A  118A         
  1591  011A  1283               	bcf	status, 5	;RP0=0, select bank0
  1592  011B  1303               	bcf	status, 6	;RP1=0, select bank0
  1593  011C  0821               	movf	(1+(?___lwdiv)),w
  1594  011D  01EB               	clrf	(main@angle+1)
  1595  011E  07EB               	addwf	(main@angle+1)
  1596  011F  0820               	movf	(0+(?___lwdiv)),w
  1597  0120  01EA               	clrf	(main@angle)
  1598  0121  07EA               	addwf	(main@angle)
  1599                           
  1600                           	line	152
  1601                           	
  1602  0122                     l6225:	
  1603                           ;test.c: 152: for(int i=0; i<angle; i++)
  1604  0122  01B8               	clrf	(main@i_1330)
  1605  0123  01B9               	clrf	(main@i_1330+1)
  1606  0124  29AD               	goto	l840
  1607                           	line	153
  1608                           	
  1609  0125                     l841:	
  1610                           	line	155
  1611                           ;test.c: 153: {
  1612                           ;test.c: 155: RD4=1;
  1613  0125  1608               	bsf	(68/8),(68)&7
  1614                           	line	156
  1615                           	
  1616  0126                     l6227:	
  1617                           ;test.c: 156: for(int du=1; du<=51-(312-vblAccX); du++) _delay((unsigned long)((400)*(40
                                 00000/4000000.0)));
  1618  0126  3001               	movlw	low(01h)
  1619  0127  00BA               	movwf	(main@du_1331)
  1620  0128  3000               	movlw	high(01h)
  1621  0129  00BB               	movwf	((main@du_1331))+1
  1622  012A  2938               	goto	l6231
  1623                           	
  1624  012B                     l843:	
  1625                           	
  1626  012B                     l6229:	
  1627                           	opt asmopt_off
  1628  012B  3085               movlw	133
  1629  012C  00A8               movwf	(??_main+0)+0,f
  1630  012D                     u5577:
  1631  012D  0BA8               decfsz	(??_main+0)+0,f
  1632  012E  292D               	goto	u5577
  1633                           opt asmopt_on
  1634                           
  1635  012F  3001               	movlw	low(01h)
  1636  0130  1283               	bcf	status, 5	;RP0=0, select bank0
  1637  0131  1303               	bcf	status, 6	;RP1=0, select bank0
  1638  0132  07BA               	addwf	(main@du_1331),f
  1639  0133  1803               	skipnc
  1640  0134  0ABB               	incf	(main@du_1331+1),f
  1641  0135  3000               	movlw	high(01h)
  1642  0136  07BB               	addwf	(main@du_1331+1),f
  1643  0137  2938               	goto	l6231
  1644                           	
  1645  0138                     l842:	
  1646                           	
  1647  0138                     l6231:	
  1648  0138  096C               	comf	(_vblAccX),w
  1649  0139  00A8               	movwf	(??_main+0)+0
  1650  013A  096D               	comf	(_vblAccX+1),w
  1651  013B  00A9               	movwf	((??_main+0)+0+1)
  1652  013C  0AA8               	incf	(??_main+0)+0,f
  1653  013D  1903               	skipnz
  1654  013E  0AA9               	incf	((??_main+0)+0+1),f
  1655  013F  0828               	movf	0+(??_main+0)+0,w
  1656  0140  3E38               	addlw	low(0138h)
  1657  0141  00AA               	movwf	(??_main+2)+0
  1658  0142  0829               	movf	1+(??_main+0)+0,w
  1659  0143  1803               	skipnc
  1660  0144  3E01               	addlw	1
  1661  0145  3E01               	addlw	high(0138h)
  1662  0146  00AB               	movwf	1+(??_main+2)+0
  1663  0147  09AA               	comf	(??_main+2)+0,f
  1664  0148  09AB               	comf	(??_main+2)+1,f
  1665  0149  0AAA               	incf	(??_main+2)+0,f
  1666  014A  1903               	skipnz
  1667  014B  0AAB               	incf	(??_main+2)+1,f
  1668  014C  082A               	movf	0+(??_main+2)+0,w
  1669  014D  3E33               	addlw	low(033h)
  1670  014E  00AC               	movwf	(??_main+4)+0
  1671  014F  082B               	movf	1+(??_main+2)+0,w
  1672  0150  1803               	skipnc
  1673  0151  3E01               	addlw	1
  1674  0152  3E00               	addlw	high(033h)
  1675  0153  00AD               	movwf	1+(??_main+4)+0
  1676  0154  083B               	movf	(main@du_1331+1),w
  1677  0155  022D               	subwf	1+(??_main+4)+0,w
  1678  0156  1D03               	skipz
  1679  0157  295A               	goto	u5045
  1680  0158  083A               	movf	(main@du_1331),w
  1681  0159  022C               	subwf	0+(??_main+4)+0,w
  1682  015A                     u5045:
  1683  015A  1803               	skipnc
  1684  015B  295D               	goto	u5041
  1685  015C  295E               	goto	u5040
  1686  015D                     u5041:
  1687  015D  292B               	goto	l6229
  1688  015E                     u5040:
  1689                           	
  1690  015E                     l844:	
  1691                           	line	157
  1692                           ;test.c: 157: RD5=1;
  1693  015E  1688               	bsf	(69/8),(69)&7
  1694                           	line	158
  1695                           	
  1696  015F                     l6233:	
  1697                           ;test.c: 158: _delay((unsigned long)((20)*(4000000/4000000.0)));
  1698                           	opt asmopt_off
  1699  015F  3006               movlw	6
  1700  0160  00A8               movwf	(??_main+0)+0,f
  1701  0161                     u5587:
  1702  0161  0BA8               decfsz	(??_main+0)+0,f
  1703  0162  2961               	goto	u5587
  1704  0163  0064               	clrwdt
  1705                           opt asmopt_on
  1706                           
  1707                           	line	159
  1708                           	
  1709  0164                     l6235:	
  1710                           ;test.c: 159: RD4=0;
  1711  0164  1283               	bcf	status, 5	;RP0=0, select bank0
  1712  0165  1303               	bcf	status, 6	;RP1=0, select bank0
  1713  0166  1208               	bcf	(68/8),(68)&7
  1714                           	line	160
  1715                           ;test.c: 160: for(int du=1; du<=51-(312-vblAccX); du++) _delay((unsigned long)((400)*(40
                                 00000/4000000.0)));
  1716  0167  3001               	movlw	low(01h)
  1717  0168  00BC               	movwf	(main@du_1332)
  1718  0169  3000               	movlw	high(01h)
  1719  016A  00BD               	movwf	((main@du_1332))+1
  1720  016B  2979               	goto	l6239
  1721                           	
  1722  016C                     l846:	
  1723                           	
  1724  016C                     l6237:	
  1725                           	opt asmopt_off
  1726  016C  3085               movlw	133
  1727  016D  00A8               movwf	(??_main+0)+0,f
  1728  016E                     u5597:
  1729  016E  0BA8               decfsz	(??_main+0)+0,f
  1730  016F  296E               	goto	u5597
  1731                           opt asmopt_on
  1732                           
  1733  0170  3001               	movlw	low(01h)
  1734  0171  1283               	bcf	status, 5	;RP0=0, select bank0
  1735  0172  1303               	bcf	status, 6	;RP1=0, select bank0
  1736  0173  07BC               	addwf	(main@du_1332),f
  1737  0174  1803               	skipnc
  1738  0175  0ABD               	incf	(main@du_1332+1),f
  1739  0176  3000               	movlw	high(01h)
  1740  0177  07BD               	addwf	(main@du_1332+1),f
  1741  0178  2979               	goto	l6239
  1742                           	
  1743  0179                     l845:	
  1744                           	
  1745  0179                     l6239:	
  1746  0179  096C               	comf	(_vblAccX),w
  1747  017A  00A8               	movwf	(??_main+0)+0
  1748  017B  096D               	comf	(_vblAccX+1),w
  1749  017C  00A9               	movwf	((??_main+0)+0+1)
  1750  017D  0AA8               	incf	(??_main+0)+0,f
  1751  017E  1903               	skipnz
  1752  017F  0AA9               	incf	((??_main+0)+0+1),f
  1753  0180  0828               	movf	0+(??_main+0)+0,w
  1754  0181  3E38               	addlw	low(0138h)
  1755  0182  00AA               	movwf	(??_main+2)+0
  1756  0183  0829               	movf	1+(??_main+0)+0,w
  1757  0184  1803               	skipnc
  1758  0185  3E01               	addlw	1
  1759  0186  3E01               	addlw	high(0138h)
  1760  0187  00AB               	movwf	1+(??_main+2)+0
  1761  0188  09AA               	comf	(??_main+2)+0,f
  1762  0189  09AB               	comf	(??_main+2)+1,f
  1763  018A  0AAA               	incf	(??_main+2)+0,f
  1764  018B  1903               	skipnz
  1765  018C  0AAB               	incf	(??_main+2)+1,f
  1766  018D  082A               	movf	0+(??_main+2)+0,w
  1767  018E  3E33               	addlw	low(033h)
  1768  018F  00AC               	movwf	(??_main+4)+0
  1769  0190  082B               	movf	1+(??_main+2)+0,w
  1770  0191  1803               	skipnc
  1771  0192  3E01               	addlw	1
  1772  0193  3E00               	addlw	high(033h)
  1773  0194  00AD               	movwf	1+(??_main+4)+0
  1774  0195  083D               	movf	(main@du_1332+1),w
  1775  0196  022D               	subwf	1+(??_main+4)+0,w
  1776  0197  1D03               	skipz
  1777  0198  299B               	goto	u5055
  1778  0199  083C               	movf	(main@du_1332),w
  1779  019A  022C               	subwf	0+(??_main+4)+0,w
  1780  019B                     u5055:
  1781  019B  1803               	skipnc
  1782  019C  299E               	goto	u5051
  1783  019D  299F               	goto	u5050
  1784  019E                     u5051:
  1785  019E  296C               	goto	l6237
  1786  019F                     u5050:
  1787                           	
  1788  019F                     l847:	
  1789                           	line	161
  1790                           ;test.c: 161: RD5=0;
  1791  019F  1288               	bcf	(69/8),(69)&7
  1792                           	line	162
  1793                           	
  1794  01A0                     l6241:	
  1795                           ;test.c: 162: _delay((unsigned long)((20)*(4000000/4000000.0)));
  1796                           	opt asmopt_off
  1797  01A0  3006               movlw	6
  1798  01A1  00A8               movwf	(??_main+0)+0,f
  1799  01A2                     u5607:
  1800  01A2  0BA8               decfsz	(??_main+0)+0,f
  1801  01A3  29A2               	goto	u5607
  1802  01A4  0064               	clrwdt
  1803                           opt asmopt_on
  1804                           
  1805                           	line	152
  1806  01A5  3001               	movlw	low(01h)
  1807  01A6  1283               	bcf	status, 5	;RP0=0, select bank0
  1808  01A7  1303               	bcf	status, 6	;RP1=0, select bank0
  1809  01A8  07B8               	addwf	(main@i_1330),f
  1810  01A9  1803               	skipnc
  1811  01AA  0AB9               	incf	(main@i_1330+1),f
  1812  01AB  3000               	movlw	high(01h)
  1813  01AC  07B9               	addwf	(main@i_1330+1),f
  1814                           	
  1815  01AD                     l840:	
  1816  01AD  086B               	movf	(main@angle+1),w
  1817  01AE  0239               	subwf	(main@i_1330+1),w
  1818  01AF  1D03               	skipz
  1819  01B0  29B3               	goto	u5065
  1820  01B1  086A               	movf	(main@angle),w
  1821  01B2  0238               	subwf	(main@i_1330),w
  1822  01B3                     u5065:
  1823  01B3  1C03               	skipc
  1824  01B4  29B6               	goto	u5061
  1825  01B5  29B7               	goto	u5060
  1826  01B6                     u5061:
  1827  01B6  2925               	goto	l841
  1828  01B7                     u5060:
  1829                           	
  1830  01B7                     l848:	
  1831                           	line	165
  1832                           ;test.c: 163: }
  1833                           ;test.c: 165: RD7=1;
  1834  01B7  1788               	bsf	(71/8),(71)&7
  1835                           	line	166
  1836                           	
  1837  01B8                     l6243:	
  1838                           ;test.c: 166: for(int du=1; du<=51-(vblAccY-356); du++) _delay((unsigned long)((400)*(40
                                 00000/4000000.0)));
  1839  01B8  3001               	movlw	low(01h)
  1840  01B9  00BE               	movwf	(main@du_1333)
  1841  01BA  3000               	movlw	high(01h)
  1842  01BB  00BF               	movwf	((main@du_1333))+1
  1843  01BC  120A  118A  29CC   	goto	l6247
  1844                           	
  1845  01BF                     l850:	
  1846                           	
  1847  01BF                     l6245:	
  1848                           	opt asmopt_off
  1849  01BF  3085               movlw	133
  1850  01C0  00A8               movwf	(??_main+0)+0,f
  1851  01C1                     u5617:
  1852  01C1  0BA8               decfsz	(??_main+0)+0,f
  1853  01C2  29C1               	goto	u5617
  1854                           opt asmopt_on
  1855                           
  1856  01C3  3001               	movlw	low(01h)
  1857  01C4  1283               	bcf	status, 5	;RP0=0, select bank0
  1858  01C5  1303               	bcf	status, 6	;RP1=0, select bank0
  1859  01C6  07BE               	addwf	(main@du_1333),f
  1860  01C7  1803               	skipnc
  1861  01C8  0ABF               	incf	(main@du_1333+1),f
  1862  01C9  3000               	movlw	high(01h)
  1863  01CA  07BF               	addwf	(main@du_1333+1),f
  1864  01CB  29CC               	goto	l6247
  1865                           	
  1866  01CC                     l849:	
  1867                           	
  1868  01CC                     l6247:	
  1869  01CC  086E               	movf	(_vblAccY),w
  1870  01CD  3E9C               	addlw	low(0FE9Ch)
  1871  01CE  00A8               	movwf	(??_main+0)+0
  1872  01CF  086F               	movf	(_vblAccY+1),w
  1873  01D0  1803               	skipnc
  1874  01D1  3E01               	addlw	1
  1875  01D2  3EFE               	addlw	high(0FE9Ch)
  1876  01D3  00A9               	movwf	1+(??_main+0)+0
  1877  01D4  09A8               	comf	(??_main+0)+0,f
  1878  01D5  09A9               	comf	(??_main+0)+1,f
  1879  01D6  0AA8               	incf	(??_main+0)+0,f
  1880  01D7  1903               	skipnz
  1881  01D8  0AA9               	incf	(??_main+0)+1,f
  1882  01D9  0828               	movf	0+(??_main+0)+0,w
  1883  01DA  3E33               	addlw	low(033h)
  1884  01DB  00AA               	movwf	(??_main+2)+0
  1885  01DC  0829               	movf	1+(??_main+0)+0,w
  1886  01DD  1803               	skipnc
  1887  01DE  3E01               	addlw	1
  1888  01DF  3E00               	addlw	high(033h)
  1889  01E0  00AB               	movwf	1+(??_main+2)+0
  1890  01E1  083F               	movf	(main@du_1333+1),w
  1891  01E2  022B               	subwf	1+(??_main+2)+0,w
  1892  01E3  1D03               	skipz
  1893  01E4  29E7               	goto	u5075
  1894  01E5  083E               	movf	(main@du_1333),w
  1895  01E6  022A               	subwf	0+(??_main+2)+0,w
  1896  01E7                     u5075:
  1897  01E7  1803               	skipnc
  1898  01E8  29EA               	goto	u5071
  1899  01E9  29EB               	goto	u5070
  1900  01EA                     u5071:
  1901  01EA  29BF               	goto	l6245
  1902  01EB                     u5070:
  1903                           	
  1904  01EB                     l851:	
  1905                           	line	167
  1906                           ;test.c: 167: RD6=1;
  1907  01EB  1708               	bsf	(70/8),(70)&7
  1908                           	line	168
  1909                           	
  1910  01EC                     l6249:	
  1911                           ;test.c: 168: _delay((unsigned long)((20)*(4000000/4000000.0)));
  1912                           	opt asmopt_off
  1913  01EC  3006               movlw	6
  1914  01ED  00A8               movwf	(??_main+0)+0,f
  1915  01EE                     u5627:
  1916  01EE  0BA8               decfsz	(??_main+0)+0,f
  1917  01EF  29EE               	goto	u5627
  1918  01F0  0064               	clrwdt
  1919                           opt asmopt_on
  1920                           
  1921                           	line	169
  1922                           	
  1923  01F1                     l6251:	
  1924                           ;test.c: 169: RD7=0;
  1925  01F1  1283               	bcf	status, 5	;RP0=0, select bank0
  1926  01F2  1303               	bcf	status, 6	;RP1=0, select bank0
  1927  01F3  1388               	bcf	(71/8),(71)&7
  1928                           	line	170
  1929                           ;test.c: 170: for(int du=1; du<=51-(vblAccY-356); du++) _delay((unsigned long)((400)*(40
                                 00000/4000000.0)));
  1930  01F4  3001               	movlw	low(01h)
  1931  01F5  00C0               	movwf	(main@du_1334)
  1932  01F6  3000               	movlw	high(01h)
  1933  01F7  00C1               	movwf	((main@du_1334))+1
  1934  01F8  2A06               	goto	l6255
  1935                           	
  1936  01F9                     l853:	
  1937                           	
  1938  01F9                     l6253:	
  1939                           	opt asmopt_off
  1940  01F9  3085               movlw	133
  1941  01FA  00A8               movwf	(??_main+0)+0,f
  1942  01FB                     u5637:
  1943  01FB  0BA8               decfsz	(??_main+0)+0,f
  1944  01FC  29FB               	goto	u5637
  1945                           opt asmopt_on
  1946                           
  1947  01FD  3001               	movlw	low(01h)
  1948  01FE  1283               	bcf	status, 5	;RP0=0, select bank0
  1949  01FF  1303               	bcf	status, 6	;RP1=0, select bank0
  1950  0200  07C0               	addwf	(main@du_1334),f
  1951  0201  1803               	skipnc
  1952  0202  0AC1               	incf	(main@du_1334+1),f
  1953  0203  3000               	movlw	high(01h)
  1954  0204  07C1               	addwf	(main@du_1334+1),f
  1955  0205  2A06               	goto	l6255
  1956                           	
  1957  0206                     l852:	
  1958                           	
  1959  0206                     l6255:	
  1960  0206  086E               	movf	(_vblAccY),w
  1961  0207  3E9C               	addlw	low(0FE9Ch)
  1962  0208  00A8               	movwf	(??_main+0)+0
  1963  0209  086F               	movf	(_vblAccY+1),w
  1964  020A  1803               	skipnc
  1965  020B  3E01               	addlw	1
  1966  020C  3EFE               	addlw	high(0FE9Ch)
  1967  020D  00A9               	movwf	1+(??_main+0)+0
  1968  020E  09A8               	comf	(??_main+0)+0,f
  1969  020F  09A9               	comf	(??_main+0)+1,f
  1970  0210  0AA8               	incf	(??_main+0)+0,f
  1971  0211  1903               	skipnz
  1972  0212  0AA9               	incf	(??_main+0)+1,f
  1973  0213  0828               	movf	0+(??_main+0)+0,w
  1974  0214  3E33               	addlw	low(033h)
  1975  0215  00AA               	movwf	(??_main+2)+0
  1976  0216  0829               	movf	1+(??_main+0)+0,w
  1977  0217  1803               	skipnc
  1978  0218  3E01               	addlw	1
  1979  0219  3E00               	addlw	high(033h)
  1980  021A  00AB               	movwf	1+(??_main+2)+0
  1981  021B  0841               	movf	(main@du_1334+1),w
  1982  021C  022B               	subwf	1+(??_main+2)+0,w
  1983  021D  1D03               	skipz
  1984  021E  2A21               	goto	u5085
  1985  021F  0840               	movf	(main@du_1334),w
  1986  0220  022A               	subwf	0+(??_main+2)+0,w
  1987  0221                     u5085:
  1988  0221  1803               	skipnc
  1989  0222  2A24               	goto	u5081
  1990  0223  2A25               	goto	u5080
  1991  0224                     u5081:
  1992  0224  29F9               	goto	l6253
  1993  0225                     u5080:
  1994                           	
  1995  0225                     l854:	
  1996                           	line	171
  1997                           ;test.c: 171: RD6=0;
  1998  0225  1308               	bcf	(70/8),(70)&7
  1999                           	line	172
  2000                           	
  2001  0226                     l6257:	
  2002                           ;test.c: 172: _delay((unsigned long)((20)*(4000000/4000000.0)));
  2003                           	opt asmopt_off
  2004  0226  3006               movlw	6
  2005  0227  00A8               movwf	(??_main+0)+0,f
  2006  0228                     u5647:
  2007  0228  0BA8               decfsz	(??_main+0)+0,f
  2008  0229  2A28               	goto	u5647
  2009  022A  0064               	clrwdt
  2010                           opt asmopt_on
  2011                           
  2012                           	line	173
  2013                           	
  2014  022B                     l6259:	
  2015                           ;test.c: 173: a2d_read();
  2016  022B  120A  118A  201D   	fcall	_a2d_read
              120A  118A         
  2017  0230  2A32               	goto	l6261
  2018                           	line	175
  2019                           	
  2020  0231                     l839:	
  2021  0231  2A32               	goto	l6261
  2022                           	line	176
  2023                           	
  2024  0232                     l821:	
  2025                           	line	118
  2026                           	
  2027  0232                     l6261:	
  2028  0232  3001               	movlw	high(0138h)
  2029  0233  1283               	bcf	status, 5	;RP0=0, select bank0
  2030  0234  1303               	bcf	status, 6	;RP1=0, select bank0
  2031  0235  026D               	subwf	(_vblAccX+1),w
  2032  0236  3038               	movlw	low(0138h)
  2033  0237  1903               	skipnz
  2034  0238  026C               	subwf	(_vblAccX),w
  2035  0239  1803               	skipnc
  2036  023A  2A3C               	goto	u5091
  2037  023B  2A3D               	goto	u5090
  2038  023C                     u5091:
  2039  023C  2B37               	goto	l6299
  2040  023D                     u5090:
  2041                           	
  2042  023D                     l6263:	
  2043  023D  3001               	movlw	high(0165h)
  2044  023E  026F               	subwf	(_vblAccY+1),w
  2045  023F  3065               	movlw	low(0165h)
  2046  0240  1903               	skipnz
  2047  0241  026E               	subwf	(_vblAccY),w
  2048  0242  1803               	skipnc
  2049  0243  2A45               	goto	u5101
  2050  0244  2A48               	goto	u5100
  2051  0245                     u5101:
  2052  0245  120A  158A  2F22   	goto	l6179
  2053  0248                     u5100:
  2054  0248  2B37               	goto	l6299
  2055                           	
  2056  0249                     l856:	
  2057  0249  2B37               	goto	l6299
  2058                           	
  2059  024A                     l857:	
  2060                           	line	178
  2061                           ;test.c: 175: }
  2062                           ;test.c: 176: }
  2063                           ;test.c: 178: while( vblAccX > 352 && vblAccY > 356 )
  2064  024A  2B37               	goto	l6299
  2065                           	
  2066  024B                     l859:	
  2067                           	line	182
  2068                           ;test.c: 179: {
  2069                           ;test.c: 182: RD5=1;
  2070  024B  1688               	bsf	(69/8),(69)&7
  2071                           	line	183
  2072                           	
  2073  024C                     l6265:	
  2074                           ;test.c: 183: for(int du=1; du<=51-(vblAccX-352); du++) _delay((unsigned long)((400)*(40
                                 00000/4000000.0)));
  2075  024C  3001               	movlw	low(01h)
  2076  024D  00C2               	movwf	(main@du_1335)
  2077  024E  3000               	movlw	high(01h)
  2078  024F  00C3               	movwf	((main@du_1335))+1
  2079  0250  2A5E               	goto	l6269
  2080                           	
  2081  0251                     l861:	
  2082                           	
  2083  0251                     l6267:	
  2084                           	opt asmopt_off
  2085  0251  3085               movlw	133
  2086  0252  00A8               movwf	(??_main+0)+0,f
  2087  0253                     u5657:
  2088  0253  0BA8               decfsz	(??_main+0)+0,f
  2089  0254  2A53               	goto	u5657
  2090                           opt asmopt_on
  2091                           
  2092  0255  3001               	movlw	low(01h)
  2093  0256  1283               	bcf	status, 5	;RP0=0, select bank0
  2094  0257  1303               	bcf	status, 6	;RP1=0, select bank0
  2095  0258  07C2               	addwf	(main@du_1335),f
  2096  0259  1803               	skipnc
  2097  025A  0AC3               	incf	(main@du_1335+1),f
  2098  025B  3000               	movlw	high(01h)
  2099  025C  07C3               	addwf	(main@du_1335+1),f
  2100  025D  2A5E               	goto	l6269
  2101                           	
  2102  025E                     l860:	
  2103                           	
  2104  025E                     l6269:	
  2105  025E  086C               	movf	(_vblAccX),w
  2106  025F  3EA0               	addlw	low(0FEA0h)
  2107  0260  00A8               	movwf	(??_main+0)+0
  2108  0261  086D               	movf	(_vblAccX+1),w
  2109  0262  1803               	skipnc
  2110  0263  3E01               	addlw	1
  2111  0264  3EFE               	addlw	high(0FEA0h)
  2112  0265  00A9               	movwf	1+(??_main+0)+0
  2113  0266  09A8               	comf	(??_main+0)+0,f
  2114  0267  09A9               	comf	(??_main+0)+1,f
  2115  0268  0AA8               	incf	(??_main+0)+0,f
  2116  0269  1903               	skipnz
  2117  026A  0AA9               	incf	(??_main+0)+1,f
  2118  026B  0828               	movf	0+(??_main+0)+0,w
  2119  026C  3E33               	addlw	low(033h)
  2120  026D  00AA               	movwf	(??_main+2)+0
  2121  026E  0829               	movf	1+(??_main+0)+0,w
  2122  026F  1803               	skipnc
  2123  0270  3E01               	addlw	1
  2124  0271  3E00               	addlw	high(033h)
  2125  0272  00AB               	movwf	1+(??_main+2)+0
  2126  0273  0843               	movf	(main@du_1335+1),w
  2127  0274  022B               	subwf	1+(??_main+2)+0,w
  2128  0275  1D03               	skipz
  2129  0276  2A79               	goto	u5115
  2130  0277  0842               	movf	(main@du_1335),w
  2131  0278  022A               	subwf	0+(??_main+2)+0,w
  2132  0279                     u5115:
  2133  0279  1803               	skipnc
  2134  027A  2A7C               	goto	u5111
  2135  027B  2A7D               	goto	u5110
  2136  027C                     u5111:
  2137  027C  2A51               	goto	l6267
  2138  027D                     u5110:
  2139                           	
  2140  027D                     l862:	
  2141                           	line	184
  2142                           ;test.c: 184: RD4=1;
  2143  027D  1608               	bsf	(68/8),(68)&7
  2144                           	line	185
  2145                           	
  2146  027E                     l6271:	
  2147                           ;test.c: 185: _delay((unsigned long)((20)*(4000000/4000000.0)));
  2148                           	opt asmopt_off
  2149  027E  3006               movlw	6
  2150  027F  00A8               movwf	(??_main+0)+0,f
  2151  0280                     u5667:
  2152  0280  0BA8               decfsz	(??_main+0)+0,f
  2153  0281  2A80               	goto	u5667
  2154  0282  0064               	clrwdt
  2155                           opt asmopt_on
  2156                           
  2157                           	line	186
  2158                           	
  2159  0283                     l6273:	
  2160                           ;test.c: 186: RD5=0;
  2161  0283  1283               	bcf	status, 5	;RP0=0, select bank0
  2162  0284  1303               	bcf	status, 6	;RP1=0, select bank0
  2163  0285  1288               	bcf	(69/8),(69)&7
  2164                           	line	187
  2165                           ;test.c: 187: for(int du=1; du<=51-(vblAccX-352); du++) _delay((unsigned long)((400)*(40
                                 00000/4000000.0)));
  2166  0286  3001               	movlw	low(01h)
  2167  0287  00C4               	movwf	(main@du_1336)
  2168  0288  3000               	movlw	high(01h)
  2169  0289  00C5               	movwf	((main@du_1336))+1
  2170  028A  2A98               	goto	l6277
  2171                           	
  2172  028B                     l864:	
  2173                           	
  2174  028B                     l6275:	
  2175                           	opt asmopt_off
  2176  028B  3085               movlw	133
  2177  028C  00A8               movwf	(??_main+0)+0,f
  2178  028D                     u5677:
  2179  028D  0BA8               decfsz	(??_main+0)+0,f
  2180  028E  2A8D               	goto	u5677
  2181                           opt asmopt_on
  2182                           
  2183  028F  3001               	movlw	low(01h)
  2184  0290  1283               	bcf	status, 5	;RP0=0, select bank0
  2185  0291  1303               	bcf	status, 6	;RP1=0, select bank0
  2186  0292  07C4               	addwf	(main@du_1336),f
  2187  0293  1803               	skipnc
  2188  0294  0AC5               	incf	(main@du_1336+1),f
  2189  0295  3000               	movlw	high(01h)
  2190  0296  07C5               	addwf	(main@du_1336+1),f
  2191  0297  2A98               	goto	l6277
  2192                           	
  2193  0298                     l863:	
  2194                           	
  2195  0298                     l6277:	
  2196  0298  086C               	movf	(_vblAccX),w
  2197  0299  3EA0               	addlw	low(0FEA0h)
  2198  029A  00A8               	movwf	(??_main+0)+0
  2199  029B  086D               	movf	(_vblAccX+1),w
  2200  029C  1803               	skipnc
  2201  029D  3E01               	addlw	1
  2202  029E  3EFE               	addlw	high(0FEA0h)
  2203  029F  00A9               	movwf	1+(??_main+0)+0
  2204  02A0  09A8               	comf	(??_main+0)+0,f
  2205  02A1  09A9               	comf	(??_main+0)+1,f
  2206  02A2  0AA8               	incf	(??_main+0)+0,f
  2207  02A3  1903               	skipnz
  2208  02A4  0AA9               	incf	(??_main+0)+1,f
  2209  02A5  0828               	movf	0+(??_main+0)+0,w
  2210  02A6  3E33               	addlw	low(033h)
  2211  02A7  00AA               	movwf	(??_main+2)+0
  2212  02A8  0829               	movf	1+(??_main+0)+0,w
  2213  02A9  1803               	skipnc
  2214  02AA  3E01               	addlw	1
  2215  02AB  3E00               	addlw	high(033h)
  2216  02AC  00AB               	movwf	1+(??_main+2)+0
  2217  02AD  0845               	movf	(main@du_1336+1),w
  2218  02AE  022B               	subwf	1+(??_main+2)+0,w
  2219  02AF  1D03               	skipz
  2220  02B0  2AB3               	goto	u5125
  2221  02B1  0844               	movf	(main@du_1336),w
  2222  02B2  022A               	subwf	0+(??_main+2)+0,w
  2223  02B3                     u5125:
  2224  02B3  1803               	skipnc
  2225  02B4  2AB6               	goto	u5121
  2226  02B5  2AB7               	goto	u5120
  2227  02B6                     u5121:
  2228  02B6  2A8B               	goto	l6275
  2229  02B7                     u5120:
  2230                           	
  2231  02B7                     l865:	
  2232                           	line	188
  2233                           ;test.c: 188: RD4=0;
  2234  02B7  1208               	bcf	(68/8),(68)&7
  2235                           	line	189
  2236                           	
  2237  02B8                     l6279:	
  2238                           ;test.c: 189: _delay((unsigned long)((20)*(4000000/4000000.0)));
  2239                           	opt asmopt_off
  2240  02B8  3006               movlw	6
  2241  02B9  00A8               movwf	(??_main+0)+0,f
  2242  02BA                     u5687:
  2243  02BA  0BA8               decfsz	(??_main+0)+0,f
  2244  02BB  2ABA               	goto	u5687
  2245  02BC  0064               	clrwdt
  2246                           opt asmopt_on
  2247                           
  2248                           	line	193
  2249                           	
  2250  02BD                     l6281:	
  2251                           ;test.c: 193: RD7=1;
  2252  02BD  1283               	bcf	status, 5	;RP0=0, select bank0
  2253  02BE  1303               	bcf	status, 6	;RP1=0, select bank0
  2254  02BF  1788               	bsf	(71/8),(71)&7
  2255                           	line	194
  2256                           ;test.c: 194: for(int du=1; du<=51-(vblAccY-356); du++) _delay((unsigned long)((400)*(40
                                 00000/4000000.0)));
  2257  02C0  3001               	movlw	low(01h)
  2258  02C1  00C6               	movwf	(main@du_1337)
  2259  02C2  3000               	movlw	high(01h)
  2260  02C3  00C7               	movwf	((main@du_1337))+1
  2261  02C4  2AD2               	goto	l6285
  2262                           	
  2263  02C5                     l867:	
  2264                           	
  2265  02C5                     l6283:	
  2266                           	opt asmopt_off
  2267  02C5  3085               movlw	133
  2268  02C6  00A8               movwf	(??_main+0)+0,f
  2269  02C7                     u5697:
  2270  02C7  0BA8               decfsz	(??_main+0)+0,f
  2271  02C8  2AC7               	goto	u5697
  2272                           opt asmopt_on
  2273                           
  2274  02C9  3001               	movlw	low(01h)
  2275  02CA  1283               	bcf	status, 5	;RP0=0, select bank0
  2276  02CB  1303               	bcf	status, 6	;RP1=0, select bank0
  2277  02CC  07C6               	addwf	(main@du_1337),f
  2278  02CD  1803               	skipnc
  2279  02CE  0AC7               	incf	(main@du_1337+1),f
  2280  02CF  3000               	movlw	high(01h)
  2281  02D0  07C7               	addwf	(main@du_1337+1),f
  2282  02D1  2AD2               	goto	l6285
  2283                           	
  2284  02D2                     l866:	
  2285                           	
  2286  02D2                     l6285:	
  2287  02D2  086E               	movf	(_vblAccY),w
  2288  02D3  3E9C               	addlw	low(0FE9Ch)
  2289  02D4  00A8               	movwf	(??_main+0)+0
  2290  02D5  086F               	movf	(_vblAccY+1),w
  2291  02D6  1803               	skipnc
  2292  02D7  3E01               	addlw	1
  2293  02D8  3EFE               	addlw	high(0FE9Ch)
  2294  02D9  00A9               	movwf	1+(??_main+0)+0
  2295  02DA  09A8               	comf	(??_main+0)+0,f
  2296  02DB  09A9               	comf	(??_main+0)+1,f
  2297  02DC  0AA8               	incf	(??_main+0)+0,f
  2298  02DD  1903               	skipnz
  2299  02DE  0AA9               	incf	(??_main+0)+1,f
  2300  02DF  0828               	movf	0+(??_main+0)+0,w
  2301  02E0  3E33               	addlw	low(033h)
  2302  02E1  00AA               	movwf	(??_main+2)+0
  2303  02E2  0829               	movf	1+(??_main+0)+0,w
  2304  02E3  1803               	skipnc
  2305  02E4  3E01               	addlw	1
  2306  02E5  3E00               	addlw	high(033h)
  2307  02E6  00AB               	movwf	1+(??_main+2)+0
  2308  02E7  0847               	movf	(main@du_1337+1),w
  2309  02E8  022B               	subwf	1+(??_main+2)+0,w
  2310  02E9  1D03               	skipz
  2311  02EA  2AED               	goto	u5135
  2312  02EB  0846               	movf	(main@du_1337),w
  2313  02EC  022A               	subwf	0+(??_main+2)+0,w
  2314  02ED                     u5135:
  2315  02ED  1803               	skipnc
  2316  02EE  2AF0               	goto	u5131
  2317  02EF  2AF1               	goto	u5130
  2318  02F0                     u5131:
  2319  02F0  2AC5               	goto	l6283
  2320  02F1                     u5130:
  2321                           	
  2322  02F1                     l868:	
  2323                           	line	195
  2324                           ;test.c: 195: RD6=1;
  2325  02F1  1708               	bsf	(70/8),(70)&7
  2326                           	line	196
  2327                           	
  2328  02F2                     l6287:	
  2329                           ;test.c: 196: _delay((unsigned long)((20)*(4000000/4000000.0)));
  2330                           	opt asmopt_off
  2331  02F2  3006               movlw	6
  2332  02F3  00A8               movwf	(??_main+0)+0,f
  2333  02F4                     u5707:
  2334  02F4  0BA8               decfsz	(??_main+0)+0,f
  2335  02F5  2AF4               	goto	u5707
  2336  02F6  0064               	clrwdt
  2337                           opt asmopt_on
  2338                           
  2339                           	line	197
  2340                           	
  2341  02F7                     l6289:	
  2342                           ;test.c: 197: RD7=0;
  2343  02F7  1283               	bcf	status, 5	;RP0=0, select bank0
  2344  02F8  1303               	bcf	status, 6	;RP1=0, select bank0
  2345  02F9  1388               	bcf	(71/8),(71)&7
  2346                           	line	198
  2347                           ;test.c: 198: for(int du=1; du<=51-(vblAccY-356); du++) _delay((unsigned long)((400)*(40
                                 00000/4000000.0)));
  2348  02FA  3001               	movlw	low(01h)
  2349  02FB  00C8               	movwf	(main@du_1338)
  2350  02FC  3000               	movlw	high(01h)
  2351  02FD  00C9               	movwf	((main@du_1338))+1
  2352  02FE  2B0C               	goto	l6293
  2353                           	
  2354  02FF                     l870:	
  2355                           	
  2356  02FF                     l6291:	
  2357                           	opt asmopt_off
  2358  02FF  3085               movlw	133
  2359  0300  00A8               movwf	(??_main+0)+0,f
  2360  0301                     u5717:
  2361  0301  0BA8               decfsz	(??_main+0)+0,f
  2362  0302  2B01               	goto	u5717
  2363                           opt asmopt_on
  2364                           
  2365  0303  3001               	movlw	low(01h)
  2366  0304  1283               	bcf	status, 5	;RP0=0, select bank0
  2367  0305  1303               	bcf	status, 6	;RP1=0, select bank0
  2368  0306  07C8               	addwf	(main@du_1338),f
  2369  0307  1803               	skipnc
  2370  0308  0AC9               	incf	(main@du_1338+1),f
  2371  0309  3000               	movlw	high(01h)
  2372  030A  07C9               	addwf	(main@du_1338+1),f
  2373  030B  2B0C               	goto	l6293
  2374                           	
  2375  030C                     l869:	
  2376                           	
  2377  030C                     l6293:	
  2378  030C  086E               	movf	(_vblAccY),w
  2379  030D  3E9C               	addlw	low(0FE9Ch)
  2380  030E  00A8               	movwf	(??_main+0)+0
  2381  030F  086F               	movf	(_vblAccY+1),w
  2382  0310  1803               	skipnc
  2383  0311  3E01               	addlw	1
  2384  0312  3EFE               	addlw	high(0FE9Ch)
  2385  0313  00A9               	movwf	1+(??_main+0)+0
  2386  0314  09A8               	comf	(??_main+0)+0,f
  2387  0315  09A9               	comf	(??_main+0)+1,f
  2388  0316  0AA8               	incf	(??_main+0)+0,f
  2389  0317  1903               	skipnz
  2390  0318  0AA9               	incf	(??_main+0)+1,f
  2391  0319  0828               	movf	0+(??_main+0)+0,w
  2392  031A  3E33               	addlw	low(033h)
  2393  031B  00AA               	movwf	(??_main+2)+0
  2394  031C  0829               	movf	1+(??_main+0)+0,w
  2395  031D  1803               	skipnc
  2396  031E  3E01               	addlw	1
  2397  031F  3E00               	addlw	high(033h)
  2398  0320  00AB               	movwf	1+(??_main+2)+0
  2399  0321  0849               	movf	(main@du_1338+1),w
  2400  0322  022B               	subwf	1+(??_main+2)+0,w
  2401  0323  1D03               	skipz
  2402  0324  2B27               	goto	u5145
  2403  0325  0848               	movf	(main@du_1338),w
  2404  0326  022A               	subwf	0+(??_main+2)+0,w
  2405  0327                     u5145:
  2406  0327  1803               	skipnc
  2407  0328  2B2A               	goto	u5141
  2408  0329  2B2B               	goto	u5140
  2409  032A                     u5141:
  2410  032A  2AFF               	goto	l6291
  2411  032B                     u5140:
  2412                           	
  2413  032B                     l871:	
  2414                           	line	199
  2415                           ;test.c: 199: RD6=0;
  2416  032B  1308               	bcf	(70/8),(70)&7
  2417                           	line	200
  2418                           	
  2419  032C                     l6295:	
  2420                           ;test.c: 200: _delay((unsigned long)((20)*(4000000/4000000.0)));
  2421                           	opt asmopt_off
  2422  032C  3006               movlw	6
  2423  032D  00A8               movwf	(??_main+0)+0,f
  2424  032E                     u5727:
  2425  032E  0BA8               decfsz	(??_main+0)+0,f
  2426  032F  2B2E               	goto	u5727
  2427  0330  0064               	clrwdt
  2428                           opt asmopt_on
  2429                           
  2430                           	line	201
  2431                           	
  2432  0331                     l6297:	
  2433                           ;test.c: 201: a2d_read();
  2434  0331  120A  118A  201D   	fcall	_a2d_read
              120A  118A         
  2435  0336  2B37               	goto	l6299
  2436                           	line	203
  2437                           	
  2438  0337                     l858:	
  2439                           	line	178
  2440                           	
  2441  0337                     l6299:	
  2442  0337  3001               	movlw	high(0161h)
  2443  0338  1283               	bcf	status, 5	;RP0=0, select bank0
  2444  0339  1303               	bcf	status, 6	;RP1=0, select bank0
  2445  033A  026D               	subwf	(_vblAccX+1),w
  2446  033B  3061               	movlw	low(0161h)
  2447  033C  1903               	skipnz
  2448  033D  026C               	subwf	(_vblAccX),w
  2449  033E  1C03               	skipc
  2450  033F  2B41               	goto	u5151
  2451  0340  2B42               	goto	u5150
  2452  0341                     u5151:
  2453  0341  2C56               	goto	l6337
  2454  0342                     u5150:
  2455                           	
  2456  0342                     l6301:	
  2457  0342  3001               	movlw	high(0165h)
  2458  0343  026F               	subwf	(_vblAccY+1),w
  2459  0344  3065               	movlw	low(0165h)
  2460  0345  1903               	skipnz
  2461  0346  026E               	subwf	(_vblAccY),w
  2462  0347  1803               	skipnc
  2463  0348  2B4A               	goto	u5161
  2464  0349  2B4B               	goto	u5160
  2465  034A                     u5161:
  2466  034A  2A4B               	goto	l859
  2467  034B                     u5160:
  2468  034B  2C56               	goto	l6337
  2469                           	
  2470  034C                     l873:	
  2471  034C  2C56               	goto	l6337
  2472                           	
  2473  034D                     l874:	
  2474                           	line	205
  2475                           ;test.c: 203: }
  2476                           ;test.c: 205: while( vblAccX < 312 && vblAccY < 316 )
  2477  034D  2C56               	goto	l6337
  2478                           	
  2479  034E                     l876:	
  2480                           	line	209
  2481                           ;test.c: 206: {
  2482                           ;test.c: 209: RD4=1;
  2483  034E  1608               	bsf	(68/8),(68)&7
  2484                           	line	210
  2485                           	
  2486  034F                     l6303:	
  2487                           ;test.c: 210: for(int du=1; du<=51-(312-vblAccX); du++) _delay((unsigned long)((400)*(40
                                 00000/4000000.0)));
  2488  034F  3001               	movlw	low(01h)
  2489  0350  00CA               	movwf	(main@du_1339)
  2490  0351  3000               	movlw	high(01h)
  2491  0352  00CB               	movwf	((main@du_1339))+1
  2492  0353  2B61               	goto	l6307
  2493                           	
  2494  0354                     l878:	
  2495                           	
  2496  0354                     l6305:	
  2497                           	opt asmopt_off
  2498  0354  3085               movlw	133
  2499  0355  00A8               movwf	(??_main+0)+0,f
  2500  0356                     u5737:
  2501  0356  0BA8               decfsz	(??_main+0)+0,f
  2502  0357  2B56               	goto	u5737
  2503                           opt asmopt_on
  2504                           
  2505  0358  3001               	movlw	low(01h)
  2506  0359  1283               	bcf	status, 5	;RP0=0, select bank0
  2507  035A  1303               	bcf	status, 6	;RP1=0, select bank0
  2508  035B  07CA               	addwf	(main@du_1339),f
  2509  035C  1803               	skipnc
  2510  035D  0ACB               	incf	(main@du_1339+1),f
  2511  035E  3000               	movlw	high(01h)
  2512  035F  07CB               	addwf	(main@du_1339+1),f
  2513  0360  2B61               	goto	l6307
  2514                           	
  2515  0361                     l877:	
  2516                           	
  2517  0361                     l6307:	
  2518  0361  096C               	comf	(_vblAccX),w
  2519  0362  00A8               	movwf	(??_main+0)+0
  2520  0363  096D               	comf	(_vblAccX+1),w
  2521  0364  00A9               	movwf	((??_main+0)+0+1)
  2522  0365  0AA8               	incf	(??_main+0)+0,f
  2523  0366  1903               	skipnz
  2524  0367  0AA9               	incf	((??_main+0)+0+1),f
  2525  0368  0828               	movf	0+(??_main+0)+0,w
  2526  0369  3E38               	addlw	low(0138h)
  2527  036A  00AA               	movwf	(??_main+2)+0
  2528  036B  0829               	movf	1+(??_main+0)+0,w
  2529  036C  1803               	skipnc
  2530  036D  3E01               	addlw	1
  2531  036E  3E01               	addlw	high(0138h)
  2532  036F  00AB               	movwf	1+(??_main+2)+0
  2533  0370  09AA               	comf	(??_main+2)+0,f
  2534  0371  09AB               	comf	(??_main+2)+1,f
  2535  0372  0AAA               	incf	(??_main+2)+0,f
  2536  0373  1903               	skipnz
  2537  0374  0AAB               	incf	(??_main+2)+1,f
  2538  0375  082A               	movf	0+(??_main+2)+0,w
  2539  0376  3E33               	addlw	low(033h)
  2540  0377  00AC               	movwf	(??_main+4)+0
  2541  0378  082B               	movf	1+(??_main+2)+0,w
  2542  0379  1803               	skipnc
  2543  037A  3E01               	addlw	1
  2544  037B  3E00               	addlw	high(033h)
  2545  037C  00AD               	movwf	1+(??_main+4)+0
  2546  037D  084B               	movf	(main@du_1339+1),w
  2547  037E  022D               	subwf	1+(??_main+4)+0,w
  2548  037F  1D03               	skipz
  2549  0380  2B83               	goto	u5175
  2550  0381  084A               	movf	(main@du_1339),w
  2551  0382  022C               	subwf	0+(??_main+4)+0,w
  2552  0383                     u5175:
  2553  0383  1803               	skipnc
  2554  0384  2B86               	goto	u5171
  2555  0385  2B87               	goto	u5170
  2556  0386                     u5171:
  2557  0386  2B54               	goto	l6305
  2558  0387                     u5170:
  2559                           	
  2560  0387                     l879:	
  2561                           	line	211
  2562                           ;test.c: 211: RD5=1;
  2563  0387  1688               	bsf	(69/8),(69)&7
  2564                           	line	212
  2565                           	
  2566  0388                     l6309:	
  2567                           ;test.c: 212: _delay((unsigned long)((20)*(4000000/4000000.0)));
  2568                           	opt asmopt_off
  2569  0388  3006               movlw	6
  2570  0389  00A8               movwf	(??_main+0)+0,f
  2571  038A                     u5747:
  2572  038A  0BA8               decfsz	(??_main+0)+0,f
  2573  038B  2B8A               	goto	u5747
  2574  038C  0064               	clrwdt
  2575                           opt asmopt_on
  2576                           
  2577                           	line	213
  2578                           	
  2579  038D                     l6311:	
  2580                           ;test.c: 213: RD4=0;
  2581  038D  1283               	bcf	status, 5	;RP0=0, select bank0
  2582  038E  1303               	bcf	status, 6	;RP1=0, select bank0
  2583  038F  1208               	bcf	(68/8),(68)&7
  2584                           	line	214
  2585                           ;test.c: 214: for(int du=1; du<=51-(312-vblAccX); du++) _delay((unsigned long)((400)*(40
                                 00000/4000000.0)));
  2586  0390  3001               	movlw	low(01h)
  2587  0391  00CC               	movwf	(main@du_1340)
  2588  0392  3000               	movlw	high(01h)
  2589  0393  00CD               	movwf	((main@du_1340))+1
  2590  0394  2BA2               	goto	l6315
  2591                           	
  2592  0395                     l881:	
  2593                           	
  2594  0395                     l6313:	
  2595                           	opt asmopt_off
  2596  0395  3085               movlw	133
  2597  0396  00A8               movwf	(??_main+0)+0,f
  2598  0397                     u5757:
  2599  0397  0BA8               decfsz	(??_main+0)+0,f
  2600  0398  2B97               	goto	u5757
  2601                           opt asmopt_on
  2602                           
  2603  0399  3001               	movlw	low(01h)
  2604  039A  1283               	bcf	status, 5	;RP0=0, select bank0
  2605  039B  1303               	bcf	status, 6	;RP1=0, select bank0
  2606  039C  07CC               	addwf	(main@du_1340),f
  2607  039D  1803               	skipnc
  2608  039E  0ACD               	incf	(main@du_1340+1),f
  2609  039F  3000               	movlw	high(01h)
  2610  03A0  07CD               	addwf	(main@du_1340+1),f
  2611  03A1  2BA2               	goto	l6315
  2612                           	
  2613  03A2                     l880:	
  2614                           	
  2615  03A2                     l6315:	
  2616  03A2  096C               	comf	(_vblAccX),w
  2617  03A3  00A8               	movwf	(??_main+0)+0
  2618  03A4  096D               	comf	(_vblAccX+1),w
  2619  03A5  00A9               	movwf	((??_main+0)+0+1)
  2620  03A6  0AA8               	incf	(??_main+0)+0,f
  2621  03A7  1903               	skipnz
  2622  03A8  0AA9               	incf	((??_main+0)+0+1),f
  2623  03A9  0828               	movf	0+(??_main+0)+0,w
  2624  03AA  3E38               	addlw	low(0138h)
  2625  03AB  00AA               	movwf	(??_main+2)+0
  2626  03AC  0829               	movf	1+(??_main+0)+0,w
  2627  03AD  1803               	skipnc
  2628  03AE  3E01               	addlw	1
  2629  03AF  3E01               	addlw	high(0138h)
  2630  03B0  00AB               	movwf	1+(??_main+2)+0
  2631  03B1  09AA               	comf	(??_main+2)+0,f
  2632  03B2  09AB               	comf	(??_main+2)+1,f
  2633  03B3  0AAA               	incf	(??_main+2)+0,f
  2634  03B4  1903               	skipnz
  2635  03B5  0AAB               	incf	(??_main+2)+1,f
  2636  03B6  082A               	movf	0+(??_main+2)+0,w
  2637  03B7  3E33               	addlw	low(033h)
  2638  03B8  00AC               	movwf	(??_main+4)+0
  2639  03B9  082B               	movf	1+(??_main+2)+0,w
  2640  03BA  1803               	skipnc
  2641  03BB  3E01               	addlw	1
  2642  03BC  3E00               	addlw	high(033h)
  2643  03BD  00AD               	movwf	1+(??_main+4)+0
  2644  03BE  084D               	movf	(main@du_1340+1),w
  2645  03BF  022D               	subwf	1+(??_main+4)+0,w
  2646  03C0  1D03               	skipz
  2647  03C1  2BC4               	goto	u5185
  2648  03C2  084C               	movf	(main@du_1340),w
  2649  03C3  022C               	subwf	0+(??_main+4)+0,w
  2650  03C4                     u5185:
  2651  03C4  1803               	skipnc
  2652  03C5  2BC7               	goto	u5181
  2653  03C6  2BC8               	goto	u5180
  2654  03C7                     u5181:
  2655  03C7  2B95               	goto	l6313
  2656  03C8                     u5180:
  2657                           	
  2658  03C8                     l882:	
  2659                           	line	215
  2660                           ;test.c: 215: RD5=0;
  2661  03C8  1288               	bcf	(69/8),(69)&7
  2662                           	line	216
  2663                           	
  2664  03C9                     l6317:	
  2665                           ;test.c: 216: _delay((unsigned long)((20)*(4000000/4000000.0)));
  2666                           	opt asmopt_off
  2667  03C9  3006               movlw	6
  2668  03CA  00A8               movwf	(??_main+0)+0,f
  2669  03CB                     u5767:
  2670  03CB  0BA8               decfsz	(??_main+0)+0,f
  2671  03CC  2BCB               	goto	u5767
  2672  03CD  0064               	clrwdt
  2673                           opt asmopt_on
  2674                           
  2675                           	line	219
  2676                           	
  2677  03CE                     l6319:	
  2678                           ;test.c: 219: RD6=1;
  2679  03CE  1283               	bcf	status, 5	;RP0=0, select bank0
  2680  03CF  1303               	bcf	status, 6	;RP1=0, select bank0
  2681  03D0  1708               	bsf	(70/8),(70)&7
  2682                           	line	220
  2683                           ;test.c: 220: for(int du=1; du<=51-(316-vblAccY); du++) _delay((unsigned long)((400)*(40
                                 00000/4000000.0)));
  2684  03D1  3001               	movlw	low(01h)
  2685  03D2  00CE               	movwf	(main@du_1341)
  2686  03D3  3000               	movlw	high(01h)
  2687  03D4  00CF               	movwf	((main@du_1341))+1
  2688  03D5  2BE3               	goto	l6323
  2689                           	
  2690  03D6                     l884:	
  2691                           	
  2692  03D6                     l6321:	
  2693                           	opt asmopt_off
  2694  03D6  3085               movlw	133
  2695  03D7  00A8               movwf	(??_main+0)+0,f
  2696  03D8                     u5777:
  2697  03D8  0BA8               decfsz	(??_main+0)+0,f
  2698  03D9  2BD8               	goto	u5777
  2699                           opt asmopt_on
  2700                           
  2701  03DA  3001               	movlw	low(01h)
  2702  03DB  1283               	bcf	status, 5	;RP0=0, select bank0
  2703  03DC  1303               	bcf	status, 6	;RP1=0, select bank0
  2704  03DD  07CE               	addwf	(main@du_1341),f
  2705  03DE  1803               	skipnc
  2706  03DF  0ACF               	incf	(main@du_1341+1),f
  2707  03E0  3000               	movlw	high(01h)
  2708  03E1  07CF               	addwf	(main@du_1341+1),f
  2709  03E2  2BE3               	goto	l6323
  2710                           	
  2711  03E3                     l883:	
  2712                           	
  2713  03E3                     l6323:	
  2714  03E3  096E               	comf	(_vblAccY),w
  2715  03E4  00A8               	movwf	(??_main+0)+0
  2716  03E5  096F               	comf	(_vblAccY+1),w
  2717  03E6  00A9               	movwf	((??_main+0)+0+1)
  2718  03E7  0AA8               	incf	(??_main+0)+0,f
  2719  03E8  1903               	skipnz
  2720  03E9  0AA9               	incf	((??_main+0)+0+1),f
  2721  03EA  0828               	movf	0+(??_main+0)+0,w
  2722  03EB  3E3C               	addlw	low(013Ch)
  2723  03EC  00AA               	movwf	(??_main+2)+0
  2724  03ED  0829               	movf	1+(??_main+0)+0,w
  2725  03EE  1803               	skipnc
  2726  03EF  3E01               	addlw	1
  2727  03F0  3E01               	addlw	high(013Ch)
  2728  03F1  00AB               	movwf	1+(??_main+2)+0
  2729  03F2  09AA               	comf	(??_main+2)+0,f
  2730  03F3  09AB               	comf	(??_main+2)+1,f
  2731  03F4  0AAA               	incf	(??_main+2)+0,f
  2732  03F5  1903               	skipnz
  2733  03F6  0AAB               	incf	(??_main+2)+1,f
  2734  03F7  082A               	movf	0+(??_main+2)+0,w
  2735  03F8  3E33               	addlw	low(033h)
  2736  03F9  00AC               	movwf	(??_main+4)+0
  2737  03FA  082B               	movf	1+(??_main+2)+0,w
  2738  03FB  1803               	skipnc
  2739  03FC  3E01               	addlw	1
  2740  03FD  3E00               	addlw	high(033h)
  2741  03FE  00AD               	movwf	1+(??_main+4)+0
  2742  03FF  084F               	movf	(main@du_1341+1),w
  2743  0400  022D               	subwf	1+(??_main+4)+0,w
  2744  0401  1D03               	skipz
  2745  0402  2C05               	goto	u5195
  2746  0403  084E               	movf	(main@du_1341),w
  2747  0404  022C               	subwf	0+(??_main+4)+0,w
  2748  0405                     u5195:
  2749  0405  1803               	skipnc
  2750  0406  2C08               	goto	u5191
  2751  0407  2C09               	goto	u5190
  2752  0408                     u5191:
  2753  0408  2BD6               	goto	l6321
  2754  0409                     u5190:
  2755                           	
  2756  0409                     l885:	
  2757                           	line	221
  2758                           ;test.c: 221: RD7=1;
  2759  0409  1788               	bsf	(71/8),(71)&7
  2760                           	line	222
  2761                           	
  2762  040A                     l6325:	
  2763                           ;test.c: 222: _delay((unsigned long)((20)*(4000000/4000000.0)));
  2764                           	opt asmopt_off
  2765  040A  3006               movlw	6
  2766  040B  00A8               movwf	(??_main+0)+0,f
  2767  040C                     u5787:
  2768  040C  0BA8               decfsz	(??_main+0)+0,f
  2769  040D  2C0C               	goto	u5787
  2770  040E  0064               	clrwdt
  2771                           opt asmopt_on
  2772                           
  2773                           	line	223
  2774                           	
  2775  040F                     l6327:	
  2776                           ;test.c: 223: RD6=0;
  2777  040F  1283               	bcf	status, 5	;RP0=0, select bank0
  2778  0410  1303               	bcf	status, 6	;RP1=0, select bank0
  2779  0411  1308               	bcf	(70/8),(70)&7
  2780                           	line	224
  2781                           ;test.c: 224: for(int du=1; du<=51-(316-vblAccY); du++) _delay((unsigned long)((400)*(40
                                 00000/4000000.0)));
  2782  0412  3001               	movlw	low(01h)
  2783  0413  00D0               	movwf	(main@du_1342)
  2784  0414  3000               	movlw	high(01h)
  2785  0415  00D1               	movwf	((main@du_1342))+1
  2786  0416  2C24               	goto	l6331
  2787                           	
  2788  0417                     l887:	
  2789                           	
  2790  0417                     l6329:	
  2791                           	opt asmopt_off
  2792  0417  3085               movlw	133
  2793  0418  00A8               movwf	(??_main+0)+0,f
  2794  0419                     u5797:
  2795  0419  0BA8               decfsz	(??_main+0)+0,f
  2796  041A  2C19               	goto	u5797
  2797                           opt asmopt_on
  2798                           
  2799  041B  3001               	movlw	low(01h)
  2800  041C  1283               	bcf	status, 5	;RP0=0, select bank0
  2801  041D  1303               	bcf	status, 6	;RP1=0, select bank0
  2802  041E  07D0               	addwf	(main@du_1342),f
  2803  041F  1803               	skipnc
  2804  0420  0AD1               	incf	(main@du_1342+1),f
  2805  0421  3000               	movlw	high(01h)
  2806  0422  07D1               	addwf	(main@du_1342+1),f
  2807  0423  2C24               	goto	l6331
  2808                           	
  2809  0424                     l886:	
  2810                           	
  2811  0424                     l6331:	
  2812  0424  096E               	comf	(_vblAccY),w
  2813  0425  00A8               	movwf	(??_main+0)+0
  2814  0426  096F               	comf	(_vblAccY+1),w
  2815  0427  00A9               	movwf	((??_main+0)+0+1)
  2816  0428  0AA8               	incf	(??_main+0)+0,f
  2817  0429  1903               	skipnz
  2818  042A  0AA9               	incf	((??_main+0)+0+1),f
  2819  042B  0828               	movf	0+(??_main+0)+0,w
  2820  042C  3E3C               	addlw	low(013Ch)
  2821  042D  00AA               	movwf	(??_main+2)+0
  2822  042E  0829               	movf	1+(??_main+0)+0,w
  2823  042F  1803               	skipnc
  2824  0430  3E01               	addlw	1
  2825  0431  3E01               	addlw	high(013Ch)
  2826  0432  00AB               	movwf	1+(??_main+2)+0
  2827  0433  09AA               	comf	(??_main+2)+0,f
  2828  0434  09AB               	comf	(??_main+2)+1,f
  2829  0435  0AAA               	incf	(??_main+2)+0,f
  2830  0436  1903               	skipnz
  2831  0437  0AAB               	incf	(??_main+2)+1,f
  2832  0438  082A               	movf	0+(??_main+2)+0,w
  2833  0439  3E33               	addlw	low(033h)
  2834  043A  00AC               	movwf	(??_main+4)+0
  2835  043B  082B               	movf	1+(??_main+2)+0,w
  2836  043C  1803               	skipnc
  2837  043D  3E01               	addlw	1
  2838  043E  3E00               	addlw	high(033h)
  2839  043F  00AD               	movwf	1+(??_main+4)+0
  2840  0440  0851               	movf	(main@du_1342+1),w
  2841  0441  022D               	subwf	1+(??_main+4)+0,w
  2842  0442  1D03               	skipz
  2843  0443  2C46               	goto	u5205
  2844  0444  0850               	movf	(main@du_1342),w
  2845  0445  022C               	subwf	0+(??_main+4)+0,w
  2846  0446                     u5205:
  2847  0446  1803               	skipnc
  2848  0447  2C49               	goto	u5201
  2849  0448  2C4A               	goto	u5200
  2850  0449                     u5201:
  2851  0449  2C17               	goto	l6329
  2852  044A                     u5200:
  2853                           	
  2854  044A                     l888:	
  2855                           	line	225
  2856                           ;test.c: 225: RD7=0;
  2857  044A  1388               	bcf	(71/8),(71)&7
  2858                           	line	226
  2859                           	
  2860  044B                     l6333:	
  2861                           ;test.c: 226: _delay((unsigned long)((20)*(4000000/4000000.0)));
  2862                           	opt asmopt_off
  2863  044B  3006               movlw	6
  2864  044C  00A8               movwf	(??_main+0)+0,f
  2865  044D                     u5807:
  2866  044D  0BA8               decfsz	(??_main+0)+0,f
  2867  044E  2C4D               	goto	u5807
  2868  044F  0064               	clrwdt
  2869                           opt asmopt_on
  2870                           
  2871                           	line	227
  2872                           	
  2873  0450                     l6335:	
  2874                           ;test.c: 227: a2d_read();
  2875  0450  120A  118A  201D   	fcall	_a2d_read
              120A  118A         
  2876  0455  2C56               	goto	l6337
  2877                           	line	228
  2878                           	
  2879  0456                     l875:	
  2880                           	line	205
  2881                           	
  2882  0456                     l6337:	
  2883  0456  3001               	movlw	high(0138h)
  2884  0457  1283               	bcf	status, 5	;RP0=0, select bank0
  2885  0458  1303               	bcf	status, 6	;RP1=0, select bank0
  2886  0459  026D               	subwf	(_vblAccX+1),w
  2887  045A  3038               	movlw	low(0138h)
  2888  045B  1903               	skipnz
  2889  045C  026C               	subwf	(_vblAccX),w
  2890  045D  1803               	skipnc
  2891  045E  2C60               	goto	u5211
  2892  045F  2C61               	goto	u5210
  2893  0460                     u5211:
  2894  0460  2D67               	goto	l6375
  2895  0461                     u5210:
  2896                           	
  2897  0461                     l6339:	
  2898  0461  3001               	movlw	high(013Ch)
  2899  0462  026F               	subwf	(_vblAccY+1),w
  2900  0463  303C               	movlw	low(013Ch)
  2901  0464  1903               	skipnz
  2902  0465  026E               	subwf	(_vblAccY),w
  2903  0466  1C03               	skipc
  2904  0467  2C69               	goto	u5221
  2905  0468  2C6A               	goto	u5220
  2906  0469                     u5221:
  2907  0469  2B4E               	goto	l876
  2908  046A                     u5220:
  2909  046A  2D67               	goto	l6375
  2910                           	
  2911  046B                     l890:	
  2912  046B  2D67               	goto	l6375
  2913                           	
  2914  046C                     l891:	
  2915                           	line	230
  2916                           ;test.c: 228: }
  2917                           ;test.c: 230: while( vblAccX > 352 && vblAccY < 316 )
  2918  046C  2D67               	goto	l6375
  2919                           	
  2920  046D                     l893:	
  2921                           	line	234
  2922                           ;test.c: 231: {
  2923                           ;test.c: 234: RD5=1;
  2924  046D  1688               	bsf	(69/8),(69)&7
  2925                           	line	235
  2926                           	
  2927  046E                     l6341:	
  2928                           ;test.c: 235: for(int du=1; du<=51-(vblAccX-352); du++) _delay((unsigned long)((400)*(40
                                 00000/4000000.0)));
  2929  046E  3001               	movlw	low(01h)
  2930  046F  00D2               	movwf	(main@du_1343)
  2931  0470  3000               	movlw	high(01h)
  2932  0471  00D3               	movwf	((main@du_1343))+1
  2933  0472  2C80               	goto	l6345
  2934                           	
  2935  0473                     l895:	
  2936                           	
  2937  0473                     l6343:	
  2938                           	opt asmopt_off
  2939  0473  3085               movlw	133
  2940  0474  00A8               movwf	(??_main+0)+0,f
  2941  0475                     u5817:
  2942  0475  0BA8               decfsz	(??_main+0)+0,f
  2943  0476  2C75               	goto	u5817
  2944                           opt asmopt_on
  2945                           
  2946  0477  3001               	movlw	low(01h)
  2947  0478  1283               	bcf	status, 5	;RP0=0, select bank0
  2948  0479  1303               	bcf	status, 6	;RP1=0, select bank0
  2949  047A  07D2               	addwf	(main@du_1343),f
  2950  047B  1803               	skipnc
  2951  047C  0AD3               	incf	(main@du_1343+1),f
  2952  047D  3000               	movlw	high(01h)
  2953  047E  07D3               	addwf	(main@du_1343+1),f
  2954  047F  2C80               	goto	l6345
  2955                           	
  2956  0480                     l894:	
  2957                           	
  2958  0480                     l6345:	
  2959  0480  086C               	movf	(_vblAccX),w
  2960  0481  3EA0               	addlw	low(0FEA0h)
  2961  0482  00A8               	movwf	(??_main+0)+0
  2962  0483  086D               	movf	(_vblAccX+1),w
  2963  0484  1803               	skipnc
  2964  0485  3E01               	addlw	1
  2965  0486  3EFE               	addlw	high(0FEA0h)
  2966  0487  00A9               	movwf	1+(??_main+0)+0
  2967  0488  09A8               	comf	(??_main+0)+0,f
  2968  0489  09A9               	comf	(??_main+0)+1,f
  2969  048A  0AA8               	incf	(??_main+0)+0,f
  2970  048B  1903               	skipnz
  2971  048C  0AA9               	incf	(??_main+0)+1,f
  2972  048D  0828               	movf	0+(??_main+0)+0,w
  2973  048E  3E33               	addlw	low(033h)
  2974  048F  00AA               	movwf	(??_main+2)+0
  2975  0490  0829               	movf	1+(??_main+0)+0,w
  2976  0491  1803               	skipnc
  2977  0492  3E01               	addlw	1
  2978  0493  3E00               	addlw	high(033h)
  2979  0494  00AB               	movwf	1+(??_main+2)+0
  2980  0495  0853               	movf	(main@du_1343+1),w
  2981  0496  022B               	subwf	1+(??_main+2)+0,w
  2982  0497  1D03               	skipz
  2983  0498  2C9B               	goto	u5235
  2984  0499  0852               	movf	(main@du_1343),w
  2985  049A  022A               	subwf	0+(??_main+2)+0,w
  2986  049B                     u5235:
  2987  049B  1803               	skipnc
  2988  049C  2C9E               	goto	u5231
  2989  049D  2C9F               	goto	u5230
  2990  049E                     u5231:
  2991  049E  2C73               	goto	l6343
  2992  049F                     u5230:
  2993                           	
  2994  049F                     l896:	
  2995                           	line	236
  2996                           ;test.c: 236: RD4=1;
  2997  049F  1608               	bsf	(68/8),(68)&7
  2998                           	line	237
  2999                           	
  3000  04A0                     l6347:	
  3001                           ;test.c: 237: _delay((unsigned long)((20)*(4000000/4000000.0)));
  3002                           	opt asmopt_off
  3003  04A0  3006               movlw	6
  3004  04A1  00A8               movwf	(??_main+0)+0,f
  3005  04A2                     u5827:
  3006  04A2  0BA8               decfsz	(??_main+0)+0,f
  3007  04A3  2CA2               	goto	u5827
  3008  04A4  0064               	clrwdt
  3009                           opt asmopt_on
  3010                           
  3011                           	line	238
  3012                           	
  3013  04A5                     l6349:	
  3014                           ;test.c: 238: RD5=0;
  3015  04A5  1283               	bcf	status, 5	;RP0=0, select bank0
  3016  04A6  1303               	bcf	status, 6	;RP1=0, select bank0
  3017  04A7  1288               	bcf	(69/8),(69)&7
  3018                           	line	239
  3019                           ;test.c: 239: for(int du=1; du<=51-(vblAccX-352); du++) _delay((unsigned long)((400)*(40
                                 00000/4000000.0)));
  3020  04A8  3001               	movlw	low(01h)
  3021  04A9  00D4               	movwf	(main@du_1344)
  3022  04AA  3000               	movlw	high(01h)
  3023  04AB  00D5               	movwf	((main@du_1344))+1
  3024  04AC  2CBA               	goto	l6353
  3025                           	
  3026  04AD                     l898:	
  3027                           	
  3028  04AD                     l6351:	
  3029                           	opt asmopt_off
  3030  04AD  3085               movlw	133
  3031  04AE  00A8               movwf	(??_main+0)+0,f
  3032  04AF                     u5837:
  3033  04AF  0BA8               decfsz	(??_main+0)+0,f
  3034  04B0  2CAF               	goto	u5837
  3035                           opt asmopt_on
  3036                           
  3037  04B1  3001               	movlw	low(01h)
  3038  04B2  1283               	bcf	status, 5	;RP0=0, select bank0
  3039  04B3  1303               	bcf	status, 6	;RP1=0, select bank0
  3040  04B4  07D4               	addwf	(main@du_1344),f
  3041  04B5  1803               	skipnc
  3042  04B6  0AD5               	incf	(main@du_1344+1),f
  3043  04B7  3000               	movlw	high(01h)
  3044  04B8  07D5               	addwf	(main@du_1344+1),f
  3045  04B9  2CBA               	goto	l6353
  3046                           	
  3047  04BA                     l897:	
  3048                           	
  3049  04BA                     l6353:	
  3050  04BA  086C               	movf	(_vblAccX),w
  3051  04BB  3EA0               	addlw	low(0FEA0h)
  3052  04BC  00A8               	movwf	(??_main+0)+0
  3053  04BD  086D               	movf	(_vblAccX+1),w
  3054  04BE  1803               	skipnc
  3055  04BF  3E01               	addlw	1
  3056  04C0  3EFE               	addlw	high(0FEA0h)
  3057  04C1  00A9               	movwf	1+(??_main+0)+0
  3058  04C2  09A8               	comf	(??_main+0)+0,f
  3059  04C3  09A9               	comf	(??_main+0)+1,f
  3060  04C4  0AA8               	incf	(??_main+0)+0,f
  3061  04C5  1903               	skipnz
  3062  04C6  0AA9               	incf	(??_main+0)+1,f
  3063  04C7  0828               	movf	0+(??_main+0)+0,w
  3064  04C8  3E33               	addlw	low(033h)
  3065  04C9  00AA               	movwf	(??_main+2)+0
  3066  04CA  0829               	movf	1+(??_main+0)+0,w
  3067  04CB  1803               	skipnc
  3068  04CC  3E01               	addlw	1
  3069  04CD  3E00               	addlw	high(033h)
  3070  04CE  00AB               	movwf	1+(??_main+2)+0
  3071  04CF  0855               	movf	(main@du_1344+1),w
  3072  04D0  022B               	subwf	1+(??_main+2)+0,w
  3073  04D1  1D03               	skipz
  3074  04D2  2CD5               	goto	u5245
  3075  04D3  0854               	movf	(main@du_1344),w
  3076  04D4  022A               	subwf	0+(??_main+2)+0,w
  3077  04D5                     u5245:
  3078  04D5  1803               	skipnc
  3079  04D6  2CD8               	goto	u5241
  3080  04D7  2CD9               	goto	u5240
  3081  04D8                     u5241:
  3082  04D8  2CAD               	goto	l6351
  3083  04D9                     u5240:
  3084                           	
  3085  04D9                     l899:	
  3086                           	line	240
  3087                           ;test.c: 240: RD4=0;
  3088  04D9  1208               	bcf	(68/8),(68)&7
  3089                           	line	241
  3090                           	
  3091  04DA                     l6355:	
  3092                           ;test.c: 241: _delay((unsigned long)((20)*(4000000/4000000.0)));
  3093                           	opt asmopt_off
  3094  04DA  3006               movlw	6
  3095  04DB  00A8               movwf	(??_main+0)+0,f
  3096  04DC                     u5847:
  3097  04DC  0BA8               decfsz	(??_main+0)+0,f
  3098  04DD  2CDC               	goto	u5847
  3099  04DE  0064               	clrwdt
  3100                           opt asmopt_on
  3101                           
  3102                           	line	245
  3103                           	
  3104  04DF                     l6357:	
  3105                           ;test.c: 245: RD6=1;
  3106  04DF  1283               	bcf	status, 5	;RP0=0, select bank0
  3107  04E0  1303               	bcf	status, 6	;RP1=0, select bank0
  3108  04E1  1708               	bsf	(70/8),(70)&7
  3109                           	line	246
  3110                           ;test.c: 246: for(int du=1; du<=51-(316-vblAccY); du++) _delay((unsigned long)((400)*(40
                                 00000/4000000.0)));
  3111  04E2  3001               	movlw	low(01h)
  3112  04E3  00D6               	movwf	(main@du_1345)
  3113  04E4  3000               	movlw	high(01h)
  3114  04E5  00D7               	movwf	((main@du_1345))+1
  3115  04E6  2CF4               	goto	l6361
  3116                           	
  3117  04E7                     l901:	
  3118                           	
  3119  04E7                     l6359:	
  3120                           	opt asmopt_off
  3121  04E7  3085               movlw	133
  3122  04E8  00A8               movwf	(??_main+0)+0,f
  3123  04E9                     u5857:
  3124  04E9  0BA8               decfsz	(??_main+0)+0,f
  3125  04EA  2CE9               	goto	u5857
  3126                           opt asmopt_on
  3127                           
  3128  04EB  3001               	movlw	low(01h)
  3129  04EC  1283               	bcf	status, 5	;RP0=0, select bank0
  3130  04ED  1303               	bcf	status, 6	;RP1=0, select bank0
  3131  04EE  07D6               	addwf	(main@du_1345),f
  3132  04EF  1803               	skipnc
  3133  04F0  0AD7               	incf	(main@du_1345+1),f
  3134  04F1  3000               	movlw	high(01h)
  3135  04F2  07D7               	addwf	(main@du_1345+1),f
  3136  04F3  2CF4               	goto	l6361
  3137                           	
  3138  04F4                     l900:	
  3139                           	
  3140  04F4                     l6361:	
  3141  04F4  096E               	comf	(_vblAccY),w
  3142  04F5  00A8               	movwf	(??_main+0)+0
  3143  04F6  096F               	comf	(_vblAccY+1),w
  3144  04F7  00A9               	movwf	((??_main+0)+0+1)
  3145  04F8  0AA8               	incf	(??_main+0)+0,f
  3146  04F9  1903               	skipnz
  3147  04FA  0AA9               	incf	((??_main+0)+0+1),f
  3148  04FB  0828               	movf	0+(??_main+0)+0,w
  3149  04FC  3E3C               	addlw	low(013Ch)
  3150  04FD  00AA               	movwf	(??_main+2)+0
  3151  04FE  0829               	movf	1+(??_main+0)+0,w
  3152  04FF  1803               	skipnc
  3153  0500  3E01               	addlw	1
  3154  0501  3E01               	addlw	high(013Ch)
  3155  0502  00AB               	movwf	1+(??_main+2)+0
  3156  0503  09AA               	comf	(??_main+2)+0,f
  3157  0504  09AB               	comf	(??_main+2)+1,f
  3158  0505  0AAA               	incf	(??_main+2)+0,f
  3159  0506  1903               	skipnz
  3160  0507  0AAB               	incf	(??_main+2)+1,f
  3161  0508  082A               	movf	0+(??_main+2)+0,w
  3162  0509  3E33               	addlw	low(033h)
  3163  050A  00AC               	movwf	(??_main+4)+0
  3164  050B  082B               	movf	1+(??_main+2)+0,w
  3165  050C  1803               	skipnc
  3166  050D  3E01               	addlw	1
  3167  050E  3E00               	addlw	high(033h)
  3168  050F  00AD               	movwf	1+(??_main+4)+0
  3169  0510  0857               	movf	(main@du_1345+1),w
  3170  0511  022D               	subwf	1+(??_main+4)+0,w
  3171  0512  1D03               	skipz
  3172  0513  2D16               	goto	u5255
  3173  0514  0856               	movf	(main@du_1345),w
  3174  0515  022C               	subwf	0+(??_main+4)+0,w
  3175  0516                     u5255:
  3176  0516  1803               	skipnc
  3177  0517  2D19               	goto	u5251
  3178  0518  2D1A               	goto	u5250
  3179  0519                     u5251:
  3180  0519  2CE7               	goto	l6359
  3181  051A                     u5250:
  3182                           	
  3183  051A                     l902:	
  3184                           	line	247
  3185                           ;test.c: 247: RD7=1;
  3186  051A  1788               	bsf	(71/8),(71)&7
  3187                           	line	248
  3188                           	
  3189  051B                     l6363:	
  3190                           ;test.c: 248: _delay((unsigned long)((20)*(4000000/4000000.0)));
  3191                           	opt asmopt_off
  3192  051B  3006               movlw	6
  3193  051C  00A8               movwf	(??_main+0)+0,f
  3194  051D                     u5867:
  3195  051D  0BA8               decfsz	(??_main+0)+0,f
  3196  051E  2D1D               	goto	u5867
  3197  051F  0064               	clrwdt
  3198                           opt asmopt_on
  3199                           
  3200                           	line	249
  3201                           	
  3202  0520                     l6365:	
  3203                           ;test.c: 249: RD6=0;
  3204  0520  1283               	bcf	status, 5	;RP0=0, select bank0
  3205  0521  1303               	bcf	status, 6	;RP1=0, select bank0
  3206  0522  1308               	bcf	(70/8),(70)&7
  3207                           	line	250
  3208                           ;test.c: 250: for(int du=1; du<=51-(316-vblAccY); du++) _delay((unsigned long)((400)*(40
                                 00000/4000000.0)));
  3209  0523  3001               	movlw	low(01h)
  3210  0524  00D8               	movwf	(main@du_1346)
  3211  0525  3000               	movlw	high(01h)
  3212  0526  00D9               	movwf	((main@du_1346))+1
  3213  0527  2D35               	goto	l6369
  3214                           	
  3215  0528                     l904:	
  3216                           	
  3217  0528                     l6367:	
  3218                           	opt asmopt_off
  3219  0528  3085               movlw	133
  3220  0529  00A8               movwf	(??_main+0)+0,f
  3221  052A                     u5877:
  3222  052A  0BA8               decfsz	(??_main+0)+0,f
  3223  052B  2D2A               	goto	u5877
  3224                           opt asmopt_on
  3225                           
  3226  052C  3001               	movlw	low(01h)
  3227  052D  1283               	bcf	status, 5	;RP0=0, select bank0
  3228  052E  1303               	bcf	status, 6	;RP1=0, select bank0
  3229  052F  07D8               	addwf	(main@du_1346),f
  3230  0530  1803               	skipnc
  3231  0531  0AD9               	incf	(main@du_1346+1),f
  3232  0532  3000               	movlw	high(01h)
  3233  0533  07D9               	addwf	(main@du_1346+1),f
  3234  0534  2D35               	goto	l6369
  3235                           	
  3236  0535                     l903:	
  3237                           	
  3238  0535                     l6369:	
  3239  0535  096E               	comf	(_vblAccY),w
  3240  0536  00A8               	movwf	(??_main+0)+0
  3241  0537  096F               	comf	(_vblAccY+1),w
  3242  0538  00A9               	movwf	((??_main+0)+0+1)
  3243  0539  0AA8               	incf	(??_main+0)+0,f
  3244  053A  1903               	skipnz
  3245  053B  0AA9               	incf	((??_main+0)+0+1),f
  3246  053C  0828               	movf	0+(??_main+0)+0,w
  3247  053D  3E3C               	addlw	low(013Ch)
  3248  053E  00AA               	movwf	(??_main+2)+0
  3249  053F  0829               	movf	1+(??_main+0)+0,w
  3250  0540  1803               	skipnc
  3251  0541  3E01               	addlw	1
  3252  0542  3E01               	addlw	high(013Ch)
  3253  0543  00AB               	movwf	1+(??_main+2)+0
  3254  0544  09AA               	comf	(??_main+2)+0,f
  3255  0545  09AB               	comf	(??_main+2)+1,f
  3256  0546  0AAA               	incf	(??_main+2)+0,f
  3257  0547  1903               	skipnz
  3258  0548  0AAB               	incf	(??_main+2)+1,f
  3259  0549  082A               	movf	0+(??_main+2)+0,w
  3260  054A  3E33               	addlw	low(033h)
  3261  054B  00AC               	movwf	(??_main+4)+0
  3262  054C  082B               	movf	1+(??_main+2)+0,w
  3263  054D  1803               	skipnc
  3264  054E  3E01               	addlw	1
  3265  054F  3E00               	addlw	high(033h)
  3266  0550  00AD               	movwf	1+(??_main+4)+0
  3267  0551  0859               	movf	(main@du_1346+1),w
  3268  0552  022D               	subwf	1+(??_main+4)+0,w
  3269  0553  1D03               	skipz
  3270  0554  2D57               	goto	u5265
  3271  0555  0858               	movf	(main@du_1346),w
  3272  0556  022C               	subwf	0+(??_main+4)+0,w
  3273  0557                     u5265:
  3274  0557  1803               	skipnc
  3275  0558  2D5A               	goto	u5261
  3276  0559  2D5B               	goto	u5260
  3277  055A                     u5261:
  3278  055A  2D28               	goto	l6367
  3279  055B                     u5260:
  3280                           	
  3281  055B                     l905:	
  3282                           	line	251
  3283                           ;test.c: 251: RD7=0;
  3284  055B  1388               	bcf	(71/8),(71)&7
  3285                           	line	252
  3286                           	
  3287  055C                     l6371:	
  3288                           ;test.c: 252: _delay((unsigned long)((20)*(4000000/4000000.0)));
  3289                           	opt asmopt_off
  3290  055C  3006               movlw	6
  3291  055D  00A8               movwf	(??_main+0)+0,f
  3292  055E                     u5887:
  3293  055E  0BA8               decfsz	(??_main+0)+0,f
  3294  055F  2D5E               	goto	u5887
  3295  0560  0064               	clrwdt
  3296                           opt asmopt_on
  3297                           
  3298                           	line	253
  3299                           	
  3300  0561                     l6373:	
  3301                           ;test.c: 253: a2d_read();
  3302  0561  120A  118A  201D   	fcall	_a2d_read
              120A  118A         
  3303  0566  2D67               	goto	l6375
  3304                           	line	254
  3305                           	
  3306  0567                     l892:	
  3307                           	line	230
  3308                           	
  3309  0567                     l6375:	
  3310  0567  3001               	movlw	high(0161h)
  3311  0568  1283               	bcf	status, 5	;RP0=0, select bank0
  3312  0569  1303               	bcf	status, 6	;RP1=0, select bank0
  3313  056A  026D               	subwf	(_vblAccX+1),w
  3314  056B  3061               	movlw	low(0161h)
  3315  056C  1903               	skipnz
  3316  056D  026C               	subwf	(_vblAccX),w
  3317  056E  1C03               	skipc
  3318  056F  2D71               	goto	u5271
  3319  0570  2D72               	goto	u5270
  3320  0571                     u5271:
  3321  0571  2DF6               	goto	l6397
  3322  0572                     u5270:
  3323                           	
  3324  0572                     l6377:	
  3325  0572  3001               	movlw	high(013Ch)
  3326  0573  026F               	subwf	(_vblAccY+1),w
  3327  0574  303C               	movlw	low(013Ch)
  3328  0575  1903               	skipnz
  3329  0576  026E               	subwf	(_vblAccY),w
  3330  0577  1C03               	skipc
  3331  0578  2D7A               	goto	u5281
  3332  0579  2D7B               	goto	u5280
  3333  057A                     u5281:
  3334  057A  2C6D               	goto	l893
  3335  057B                     u5280:
  3336  057B  2DF6               	goto	l6397
  3337                           	
  3338  057C                     l907:	
  3339  057C  2DF6               	goto	l6397
  3340                           	
  3341  057D                     l908:	
  3342                           	line	256
  3343                           ;test.c: 254: }
  3344                           ;test.c: 256: while( vblAccX > 312 && vblAccX < 352 && vblAccY > 356 )
  3345  057D  2DF6               	goto	l6397
  3346                           	
  3347  057E                     l910:	
  3348                           	line	260
  3349                           ;test.c: 257: {
  3350                           ;test.c: 260: RD7=1;
  3351  057E  1788               	bsf	(71/8),(71)&7
  3352                           	line	261
  3353                           	
  3354  057F                     l6379:	
  3355                           ;test.c: 261: for(int du=1; du<=51-(vblAccY-356); du++) _delay((unsigned long)((400)*(40
                                 00000/4000000.0)));
  3356  057F  3001               	movlw	low(01h)
  3357  0580  00DA               	movwf	(main@du_1347)
  3358  0581  3000               	movlw	high(01h)
  3359  0582  00DB               	movwf	((main@du_1347))+1
  3360  0583  2D91               	goto	l6383
  3361                           	
  3362  0584                     l912:	
  3363                           	
  3364  0584                     l6381:	
  3365                           	opt asmopt_off
  3366  0584  3085               movlw	133
  3367  0585  00A8               movwf	(??_main+0)+0,f
  3368  0586                     u5897:
  3369  0586  0BA8               decfsz	(??_main+0)+0,f
  3370  0587  2D86               	goto	u5897
  3371                           opt asmopt_on
  3372                           
  3373  0588  3001               	movlw	low(01h)
  3374  0589  1283               	bcf	status, 5	;RP0=0, select bank0
  3375  058A  1303               	bcf	status, 6	;RP1=0, select bank0
  3376  058B  07DA               	addwf	(main@du_1347),f
  3377  058C  1803               	skipnc
  3378  058D  0ADB               	incf	(main@du_1347+1),f
  3379  058E  3000               	movlw	high(01h)
  3380  058F  07DB               	addwf	(main@du_1347+1),f
  3381  0590  2D91               	goto	l6383
  3382                           	
  3383  0591                     l911:	
  3384                           	
  3385  0591                     l6383:	
  3386  0591  086E               	movf	(_vblAccY),w
  3387  0592  3E9C               	addlw	low(0FE9Ch)
  3388  0593  00A8               	movwf	(??_main+0)+0
  3389  0594  086F               	movf	(_vblAccY+1),w
  3390  0595  1803               	skipnc
  3391  0596  3E01               	addlw	1
  3392  0597  3EFE               	addlw	high(0FE9Ch)
  3393  0598  00A9               	movwf	1+(??_main+0)+0
  3394  0599  09A8               	comf	(??_main+0)+0,f
  3395  059A  09A9               	comf	(??_main+0)+1,f
  3396  059B  0AA8               	incf	(??_main+0)+0,f
  3397  059C  1903               	skipnz
  3398  059D  0AA9               	incf	(??_main+0)+1,f
  3399  059E  0828               	movf	0+(??_main+0)+0,w
  3400  059F  3E33               	addlw	low(033h)
  3401  05A0  00AA               	movwf	(??_main+2)+0
  3402  05A1  0829               	movf	1+(??_main+0)+0,w
  3403  05A2  1803               	skipnc
  3404  05A3  3E01               	addlw	1
  3405  05A4  3E00               	addlw	high(033h)
  3406  05A5  00AB               	movwf	1+(??_main+2)+0
  3407  05A6  085B               	movf	(main@du_1347+1),w
  3408  05A7  022B               	subwf	1+(??_main+2)+0,w
  3409  05A8  1D03               	skipz
  3410  05A9  2DAC               	goto	u5295
  3411  05AA  085A               	movf	(main@du_1347),w
  3412  05AB  022A               	subwf	0+(??_main+2)+0,w
  3413  05AC                     u5295:
  3414  05AC  1803               	skipnc
  3415  05AD  2DAF               	goto	u5291
  3416  05AE  2DB0               	goto	u5290
  3417  05AF                     u5291:
  3418  05AF  2D84               	goto	l6381
  3419  05B0                     u5290:
  3420                           	
  3421  05B0                     l913:	
  3422                           	line	262
  3423                           ;test.c: 262: RD6=1;
  3424  05B0  1708               	bsf	(70/8),(70)&7
  3425                           	line	263
  3426                           	
  3427  05B1                     l6385:	
  3428                           ;test.c: 263: _delay((unsigned long)((20)*(4000000/4000000.0)));
  3429                           	opt asmopt_off
  3430  05B1  3006               movlw	6
  3431  05B2  00A8               movwf	(??_main+0)+0,f
  3432  05B3                     u5907:
  3433  05B3  0BA8               decfsz	(??_main+0)+0,f
  3434  05B4  2DB3               	goto	u5907
  3435  05B5  0064               	clrwdt
  3436                           opt asmopt_on
  3437                           
  3438                           	line	264
  3439                           	
  3440  05B6                     l6387:	
  3441                           ;test.c: 264: RD7=0;
  3442  05B6  1283               	bcf	status, 5	;RP0=0, select bank0
  3443  05B7  1303               	bcf	status, 6	;RP1=0, select bank0
  3444  05B8  1388               	bcf	(71/8),(71)&7
  3445                           	line	265
  3446                           ;test.c: 265: for(int du=1; du<=51-(vblAccY-356); du++) _delay((unsigned long)((400)*(40
                                 00000/4000000.0)));
  3447  05B9  3001               	movlw	low(01h)
  3448  05BA  00DC               	movwf	(main@du_1348)
  3449  05BB  3000               	movlw	high(01h)
  3450  05BC  00DD               	movwf	((main@du_1348))+1
  3451  05BD  2DCB               	goto	l6391
  3452                           	
  3453  05BE                     l915:	
  3454                           	
  3455  05BE                     l6389:	
  3456                           	opt asmopt_off
  3457  05BE  3085               movlw	133
  3458  05BF  00A8               movwf	(??_main+0)+0,f
  3459  05C0                     u5917:
  3460  05C0  0BA8               decfsz	(??_main+0)+0,f
  3461  05C1  2DC0               	goto	u5917
  3462                           opt asmopt_on
  3463                           
  3464  05C2  3001               	movlw	low(01h)
  3465  05C3  1283               	bcf	status, 5	;RP0=0, select bank0
  3466  05C4  1303               	bcf	status, 6	;RP1=0, select bank0
  3467  05C5  07DC               	addwf	(main@du_1348),f
  3468  05C6  1803               	skipnc
  3469  05C7  0ADD               	incf	(main@du_1348+1),f
  3470  05C8  3000               	movlw	high(01h)
  3471  05C9  07DD               	addwf	(main@du_1348+1),f
  3472  05CA  2DCB               	goto	l6391
  3473                           	
  3474  05CB                     l914:	
  3475                           	
  3476  05CB                     l6391:	
  3477  05CB  086E               	movf	(_vblAccY),w
  3478  05CC  3E9C               	addlw	low(0FE9Ch)
  3479  05CD  00A8               	movwf	(??_main+0)+0
  3480  05CE  086F               	movf	(_vblAccY+1),w
  3481  05CF  1803               	skipnc
  3482  05D0  3E01               	addlw	1
  3483  05D1  3EFE               	addlw	high(0FE9Ch)
  3484  05D2  00A9               	movwf	1+(??_main+0)+0
  3485  05D3  09A8               	comf	(??_main+0)+0,f
  3486  05D4  09A9               	comf	(??_main+0)+1,f
  3487  05D5  0AA8               	incf	(??_main+0)+0,f
  3488  05D6  1903               	skipnz
  3489  05D7  0AA9               	incf	(??_main+0)+1,f
  3490  05D8  0828               	movf	0+(??_main+0)+0,w
  3491  05D9  3E33               	addlw	low(033h)
  3492  05DA  00AA               	movwf	(??_main+2)+0
  3493  05DB  0829               	movf	1+(??_main+0)+0,w
  3494  05DC  1803               	skipnc
  3495  05DD  3E01               	addlw	1
  3496  05DE  3E00               	addlw	high(033h)
  3497  05DF  00AB               	movwf	1+(??_main+2)+0
  3498  05E0  085D               	movf	(main@du_1348+1),w
  3499  05E1  022B               	subwf	1+(??_main+2)+0,w
  3500  05E2  1D03               	skipz
  3501  05E3  2DE6               	goto	u5305
  3502  05E4  085C               	movf	(main@du_1348),w
  3503  05E5  022A               	subwf	0+(??_main+2)+0,w
  3504  05E6                     u5305:
  3505  05E6  1803               	skipnc
  3506  05E7  2DE9               	goto	u5301
  3507  05E8  2DEA               	goto	u5300
  3508  05E9                     u5301:
  3509  05E9  2DBE               	goto	l6389
  3510  05EA                     u5300:
  3511                           	
  3512  05EA                     l916:	
  3513                           	line	266
  3514                           ;test.c: 266: RD6=0;
  3515  05EA  1308               	bcf	(70/8),(70)&7
  3516                           	line	267
  3517                           	
  3518  05EB                     l6393:	
  3519                           ;test.c: 267: _delay((unsigned long)((20)*(4000000/4000000.0)));
  3520                           	opt asmopt_off
  3521  05EB  3006               movlw	6
  3522  05EC  00A8               movwf	(??_main+0)+0,f
  3523  05ED                     u5927:
  3524  05ED  0BA8               decfsz	(??_main+0)+0,f
  3525  05EE  2DED               	goto	u5927
  3526  05EF  0064               	clrwdt
  3527                           opt asmopt_on
  3528                           
  3529                           	line	268
  3530                           	
  3531  05F0                     l6395:	
  3532                           ;test.c: 268: a2d_read();
  3533  05F0  120A  118A  201D   	fcall	_a2d_read
              120A  118A         
  3534  05F5  2DF6               	goto	l6397
  3535                           	line	269
  3536                           	
  3537  05F6                     l909:	
  3538                           	line	256
  3539                           	
  3540  05F6                     l6397:	
  3541  05F6  3001               	movlw	high(0139h)
  3542  05F7  1283               	bcf	status, 5	;RP0=0, select bank0
  3543  05F8  1303               	bcf	status, 6	;RP1=0, select bank0
  3544  05F9  026D               	subwf	(_vblAccX+1),w
  3545  05FA  3039               	movlw	low(0139h)
  3546  05FB  1903               	skipnz
  3547  05FC  026C               	subwf	(_vblAccX),w
  3548  05FD  1C03               	skipc
  3549  05FE  2E00               	goto	u5311
  3550  05FF  2E01               	goto	u5310
  3551  0600                     u5311:
  3552  0600  2E9C               	goto	l6421
  3553  0601                     u5310:
  3554                           	
  3555  0601                     l6399:	
  3556  0601  3001               	movlw	high(0160h)
  3557  0602  026D               	subwf	(_vblAccX+1),w
  3558  0603  3060               	movlw	low(0160h)
  3559  0604  1903               	skipnz
  3560  0605  026C               	subwf	(_vblAccX),w
  3561  0606  1803               	skipnc
  3562  0607  2E09               	goto	u5321
  3563  0608  2E0A               	goto	u5320
  3564  0609                     u5321:
  3565  0609  2E9C               	goto	l6421
  3566  060A                     u5320:
  3567                           	
  3568  060A                     l6401:	
  3569  060A  3001               	movlw	high(0165h)
  3570  060B  026F               	subwf	(_vblAccY+1),w
  3571  060C  3065               	movlw	low(0165h)
  3572  060D  1903               	skipnz
  3573  060E  026E               	subwf	(_vblAccY),w
  3574  060F  1803               	skipnc
  3575  0610  2E12               	goto	u5331
  3576  0611  2E13               	goto	u5330
  3577  0612                     u5331:
  3578  0612  2D7E               	goto	l910
  3579  0613                     u5330:
  3580  0613  2E9C               	goto	l6421
  3581                           	
  3582  0614                     l918:	
  3583  0614  2E9C               	goto	l6421
  3584                           	
  3585  0615                     l919:	
  3586                           	line	271
  3587                           ;test.c: 269: }
  3588                           ;test.c: 271: while( vblAccX > 312 && vblAccX < 352 && vblAccY < 316 )
  3589  0615  2E9C               	goto	l6421
  3590                           	
  3591  0616                     l921:	
  3592                           	line	275
  3593                           ;test.c: 272: {
  3594                           ;test.c: 275: RD6=1;
  3595  0616  1708               	bsf	(70/8),(70)&7
  3596                           	line	276
  3597                           	
  3598  0617                     l6403:	
  3599                           ;test.c: 276: for(int du=1; du<=51-(316-vblAccY); du++) _delay((unsigned long)((400)*(40
                                 00000/4000000.0)));
  3600  0617  3001               	movlw	low(01h)
  3601  0618  00DE               	movwf	(main@du_1349)
  3602  0619  3000               	movlw	high(01h)
  3603  061A  00DF               	movwf	((main@du_1349))+1
  3604  061B  2E29               	goto	l6407
  3605                           	
  3606  061C                     l923:	
  3607                           	
  3608  061C                     l6405:	
  3609                           	opt asmopt_off
  3610  061C  3085               movlw	133
  3611  061D  00A8               movwf	(??_main+0)+0,f
  3612  061E                     u5937:
  3613  061E  0BA8               decfsz	(??_main+0)+0,f
  3614  061F  2E1E               	goto	u5937
  3615                           opt asmopt_on
  3616                           
  3617  0620  3001               	movlw	low(01h)
  3618  0621  1283               	bcf	status, 5	;RP0=0, select bank0
  3619  0622  1303               	bcf	status, 6	;RP1=0, select bank0
  3620  0623  07DE               	addwf	(main@du_1349),f
  3621  0624  1803               	skipnc
  3622  0625  0ADF               	incf	(main@du_1349+1),f
  3623  0626  3000               	movlw	high(01h)
  3624  0627  07DF               	addwf	(main@du_1349+1),f
  3625  0628  2E29               	goto	l6407
  3626                           	
  3627  0629                     l922:	
  3628                           	
  3629  0629                     l6407:	
  3630  0629  096E               	comf	(_vblAccY),w
  3631  062A  00A8               	movwf	(??_main+0)+0
  3632  062B  096F               	comf	(_vblAccY+1),w
  3633  062C  00A9               	movwf	((??_main+0)+0+1)
  3634  062D  0AA8               	incf	(??_main+0)+0,f
  3635  062E  1903               	skipnz
  3636  062F  0AA9               	incf	((??_main+0)+0+1),f
  3637  0630  0828               	movf	0+(??_main+0)+0,w
  3638  0631  3E3C               	addlw	low(013Ch)
  3639  0632  00AA               	movwf	(??_main+2)+0
  3640  0633  0829               	movf	1+(??_main+0)+0,w
  3641  0634  1803               	skipnc
  3642  0635  3E01               	addlw	1
  3643  0636  3E01               	addlw	high(013Ch)
  3644  0637  00AB               	movwf	1+(??_main+2)+0
  3645  0638  09AA               	comf	(??_main+2)+0,f
  3646  0639  09AB               	comf	(??_main+2)+1,f
  3647  063A  0AAA               	incf	(??_main+2)+0,f
  3648  063B  1903               	skipnz
  3649  063C  0AAB               	incf	(??_main+2)+1,f
  3650  063D  082A               	movf	0+(??_main+2)+0,w
  3651  063E  3E33               	addlw	low(033h)
  3652  063F  00AC               	movwf	(??_main+4)+0
  3653  0640  082B               	movf	1+(??_main+2)+0,w
  3654  0641  1803               	skipnc
  3655  0642  3E01               	addlw	1
  3656  0643  3E00               	addlw	high(033h)
  3657  0644  00AD               	movwf	1+(??_main+4)+0
  3658  0645  085F               	movf	(main@du_1349+1),w
  3659  0646  022D               	subwf	1+(??_main+4)+0,w
  3660  0647  1D03               	skipz
  3661  0648  2E4B               	goto	u5345
  3662  0649  085E               	movf	(main@du_1349),w
  3663  064A  022C               	subwf	0+(??_main+4)+0,w
  3664  064B                     u5345:
  3665  064B  1803               	skipnc
  3666  064C  2E4E               	goto	u5341
  3667  064D  2E4F               	goto	u5340
  3668  064E                     u5341:
  3669  064E  2E1C               	goto	l6405
  3670  064F                     u5340:
  3671                           	
  3672  064F                     l924:	
  3673                           	line	277
  3674                           ;test.c: 277: RD7=1;
  3675  064F  1788               	bsf	(71/8),(71)&7
  3676                           	line	278
  3677                           	
  3678  0650                     l6409:	
  3679                           ;test.c: 278: _delay((unsigned long)((20)*(4000000/4000000.0)));
  3680                           	opt asmopt_off
  3681  0650  3006               movlw	6
  3682  0651  00A8               movwf	(??_main+0)+0,f
  3683  0652                     u5947:
  3684  0652  0BA8               decfsz	(??_main+0)+0,f
  3685  0653  2E52               	goto	u5947
  3686  0654  0064               	clrwdt
  3687                           opt asmopt_on
  3688                           
  3689                           	line	279
  3690                           	
  3691  0655                     l6411:	
  3692                           ;test.c: 279: RD6=0;
  3693  0655  1283               	bcf	status, 5	;RP0=0, select bank0
  3694  0656  1303               	bcf	status, 6	;RP1=0, select bank0
  3695  0657  1308               	bcf	(70/8),(70)&7
  3696                           	line	280
  3697                           ;test.c: 280: for(int du=1; du<=51-(316-vblAccY); du++) _delay((unsigned long)((400)*(40
                                 00000/4000000.0)));
  3698  0658  3001               	movlw	low(01h)
  3699  0659  00E0               	movwf	(main@du_1350)
  3700  065A  3000               	movlw	high(01h)
  3701  065B  00E1               	movwf	((main@du_1350))+1
  3702  065C  2E6A               	goto	l6415
  3703                           	
  3704  065D                     l926:	
  3705                           	
  3706  065D                     l6413:	
  3707                           	opt asmopt_off
  3708  065D  3085               movlw	133
  3709  065E  00A8               movwf	(??_main+0)+0,f
  3710  065F                     u5957:
  3711  065F  0BA8               decfsz	(??_main+0)+0,f
  3712  0660  2E5F               	goto	u5957
  3713                           opt asmopt_on
  3714                           
  3715  0661  3001               	movlw	low(01h)
  3716  0662  1283               	bcf	status, 5	;RP0=0, select bank0
  3717  0663  1303               	bcf	status, 6	;RP1=0, select bank0
  3718  0664  07E0               	addwf	(main@du_1350),f
  3719  0665  1803               	skipnc
  3720  0666  0AE1               	incf	(main@du_1350+1),f
  3721  0667  3000               	movlw	high(01h)
  3722  0668  07E1               	addwf	(main@du_1350+1),f
  3723  0669  2E6A               	goto	l6415
  3724                           	
  3725  066A                     l925:	
  3726                           	
  3727  066A                     l6415:	
  3728  066A  096E               	comf	(_vblAccY),w
  3729  066B  00A8               	movwf	(??_main+0)+0
  3730  066C  096F               	comf	(_vblAccY+1),w
  3731  066D  00A9               	movwf	((??_main+0)+0+1)
  3732  066E  0AA8               	incf	(??_main+0)+0,f
  3733  066F  1903               	skipnz
  3734  0670  0AA9               	incf	((??_main+0)+0+1),f
  3735  0671  0828               	movf	0+(??_main+0)+0,w
  3736  0672  3E3C               	addlw	low(013Ch)
  3737  0673  00AA               	movwf	(??_main+2)+0
  3738  0674  0829               	movf	1+(??_main+0)+0,w
  3739  0675  1803               	skipnc
  3740  0676  3E01               	addlw	1
  3741  0677  3E01               	addlw	high(013Ch)
  3742  0678  00AB               	movwf	1+(??_main+2)+0
  3743  0679  09AA               	comf	(??_main+2)+0,f
  3744  067A  09AB               	comf	(??_main+2)+1,f
  3745  067B  0AAA               	incf	(??_main+2)+0,f
  3746  067C  1903               	skipnz
  3747  067D  0AAB               	incf	(??_main+2)+1,f
  3748  067E  082A               	movf	0+(??_main+2)+0,w
  3749  067F  3E33               	addlw	low(033h)
  3750  0680  00AC               	movwf	(??_main+4)+0
  3751  0681  082B               	movf	1+(??_main+2)+0,w
  3752  0682  1803               	skipnc
  3753  0683  3E01               	addlw	1
  3754  0684  3E00               	addlw	high(033h)
  3755  0685  00AD               	movwf	1+(??_main+4)+0
  3756  0686  0861               	movf	(main@du_1350+1),w
  3757  0687  022D               	subwf	1+(??_main+4)+0,w
  3758  0688  1D03               	skipz
  3759  0689  2E8C               	goto	u5355
  3760  068A  0860               	movf	(main@du_1350),w
  3761  068B  022C               	subwf	0+(??_main+4)+0,w
  3762  068C                     u5355:
  3763  068C  1803               	skipnc
  3764  068D  2E8F               	goto	u5351
  3765  068E  2E90               	goto	u5350
  3766  068F                     u5351:
  3767  068F  2E5D               	goto	l6413
  3768  0690                     u5350:
  3769                           	
  3770  0690                     l927:	
  3771                           	line	281
  3772                           ;test.c: 281: RD7=0;
  3773  0690  1388               	bcf	(71/8),(71)&7
  3774                           	line	282
  3775                           	
  3776  0691                     l6417:	
  3777                           ;test.c: 282: _delay((unsigned long)((20)*(4000000/4000000.0)));
  3778                           	opt asmopt_off
  3779  0691  3006               movlw	6
  3780  0692  00A8               movwf	(??_main+0)+0,f
  3781  0693                     u5967:
  3782  0693  0BA8               decfsz	(??_main+0)+0,f
  3783  0694  2E93               	goto	u5967
  3784  0695  0064               	clrwdt
  3785                           opt asmopt_on
  3786                           
  3787                           	line	283
  3788                           	
  3789  0696                     l6419:	
  3790                           ;test.c: 283: a2d_read();
  3791  0696  120A  118A  201D   	fcall	_a2d_read
              120A  118A         
  3792  069B  2E9C               	goto	l6421
  3793                           	line	284
  3794                           	
  3795  069C                     l920:	
  3796                           	line	271
  3797                           	
  3798  069C                     l6421:	
  3799  069C  3001               	movlw	high(0139h)
  3800  069D  1283               	bcf	status, 5	;RP0=0, select bank0
  3801  069E  1303               	bcf	status, 6	;RP1=0, select bank0
  3802  069F  026D               	subwf	(_vblAccX+1),w
  3803  06A0  3039               	movlw	low(0139h)
  3804  06A1  1903               	skipnz
  3805  06A2  026C               	subwf	(_vblAccX),w
  3806  06A3  1C03               	skipc
  3807  06A4  2EA6               	goto	u5361
  3808  06A5  2EA7               	goto	u5360
  3809  06A6                     u5361:
  3810  06A6  2F34               	goto	l6445
  3811  06A7                     u5360:
  3812                           	
  3813  06A7                     l6423:	
  3814  06A7  3001               	movlw	high(0160h)
  3815  06A8  026D               	subwf	(_vblAccX+1),w
  3816  06A9  3060               	movlw	low(0160h)
  3817  06AA  1903               	skipnz
  3818  06AB  026C               	subwf	(_vblAccX),w
  3819  06AC  1803               	skipnc
  3820  06AD  2EAF               	goto	u5371
  3821  06AE  2EB0               	goto	u5370
  3822  06AF                     u5371:
  3823  06AF  2F34               	goto	l6445
  3824  06B0                     u5370:
  3825                           	
  3826  06B0                     l6425:	
  3827  06B0  3001               	movlw	high(013Ch)
  3828  06B1  026F               	subwf	(_vblAccY+1),w
  3829  06B2  303C               	movlw	low(013Ch)
  3830  06B3  1903               	skipnz
  3831  06B4  026E               	subwf	(_vblAccY),w
  3832  06B5  1C03               	skipc
  3833  06B6  2EB8               	goto	u5381
  3834  06B7  2EB9               	goto	u5380
  3835  06B8                     u5381:
  3836  06B8  2E16               	goto	l921
  3837  06B9                     u5380:
  3838  06B9  2F34               	goto	l6445
  3839                           	
  3840  06BA                     l929:	
  3841  06BA  2F34               	goto	l6445
  3842                           	
  3843  06BB                     l930:	
  3844                           	line	286
  3845                           ;test.c: 284: }
  3846                           ;test.c: 286: while( vblAccY > 316 && vblAccY < 356 && vblAccX > 352 )
  3847  06BB  2F34               	goto	l6445
  3848                           	
  3849  06BC                     l932:	
  3850                           	line	289
  3851                           ;test.c: 287: {
  3852                           ;test.c: 289: RD5=1;
  3853  06BC  1688               	bsf	(69/8),(69)&7
  3854                           	line	290
  3855                           	
  3856  06BD                     l6427:	
  3857                           ;test.c: 290: for(int du=1; du<=51-(vblAccX-352); du++) _delay((unsigned long)((400)*(40
                                 00000/4000000.0)));
  3858  06BD  3001               	movlw	low(01h)
  3859  06BE  00E2               	movwf	(main@du_1351)
  3860  06BF  3000               	movlw	high(01h)
  3861  06C0  00E3               	movwf	((main@du_1351))+1
  3862  06C1  2ECF               	goto	l6431
  3863                           	
  3864  06C2                     l934:	
  3865                           	
  3866  06C2                     l6429:	
  3867                           	opt asmopt_off
  3868  06C2  3085               movlw	133
  3869  06C3  00A8               movwf	(??_main+0)+0,f
  3870  06C4                     u5977:
  3871  06C4  0BA8               decfsz	(??_main+0)+0,f
  3872  06C5  2EC4               	goto	u5977
  3873                           opt asmopt_on
  3874                           
  3875  06C6  3001               	movlw	low(01h)
  3876  06C7  1283               	bcf	status, 5	;RP0=0, select bank0
  3877  06C8  1303               	bcf	status, 6	;RP1=0, select bank0
  3878  06C9  07E2               	addwf	(main@du_1351),f
  3879  06CA  1803               	skipnc
  3880  06CB  0AE3               	incf	(main@du_1351+1),f
  3881  06CC  3000               	movlw	high(01h)
  3882  06CD  07E3               	addwf	(main@du_1351+1),f
  3883  06CE  2ECF               	goto	l6431
  3884                           	
  3885  06CF                     l933:	
  3886                           	
  3887  06CF                     l6431:	
  3888  06CF  086C               	movf	(_vblAccX),w
  3889  06D0  3EA0               	addlw	low(0FEA0h)
  3890  06D1  00A8               	movwf	(??_main+0)+0
  3891  06D2  086D               	movf	(_vblAccX+1),w
  3892  06D3  1803               	skipnc
  3893  06D4  3E01               	addlw	1
  3894  06D5  3EFE               	addlw	high(0FEA0h)
  3895  06D6  00A9               	movwf	1+(??_main+0)+0
  3896  06D7  09A8               	comf	(??_main+0)+0,f
  3897  06D8  09A9               	comf	(??_main+0)+1,f
  3898  06D9  0AA8               	incf	(??_main+0)+0,f
  3899  06DA  1903               	skipnz
  3900  06DB  0AA9               	incf	(??_main+0)+1,f
  3901  06DC  0828               	movf	0+(??_main+0)+0,w
  3902  06DD  3E33               	addlw	low(033h)
  3903  06DE  00AA               	movwf	(??_main+2)+0
  3904  06DF  0829               	movf	1+(??_main+0)+0,w
  3905  06E0  1803               	skipnc
  3906  06E1  3E01               	addlw	1
  3907  06E2  3E00               	addlw	high(033h)
  3908  06E3  00AB               	movwf	1+(??_main+2)+0
  3909  06E4  0863               	movf	(main@du_1351+1),w
  3910  06E5  022B               	subwf	1+(??_main+2)+0,w
  3911  06E6  1D03               	skipz
  3912  06E7  2EEA               	goto	u5395
  3913  06E8  0862               	movf	(main@du_1351),w
  3914  06E9  022A               	subwf	0+(??_main+2)+0,w
  3915  06EA                     u5395:
  3916  06EA  1803               	skipnc
  3917  06EB  2EED               	goto	u5391
  3918  06EC  2EEE               	goto	u5390
  3919  06ED                     u5391:
  3920  06ED  2EC2               	goto	l6429
  3921  06EE                     u5390:
  3922                           	
  3923  06EE                     l935:	
  3924                           	line	291
  3925                           ;test.c: 291: RD4=1;
  3926  06EE  1608               	bsf	(68/8),(68)&7
  3927                           	line	292
  3928                           	
  3929  06EF                     l6433:	
  3930                           ;test.c: 292: _delay((unsigned long)((20)*(4000000/4000000.0)));
  3931                           	opt asmopt_off
  3932  06EF  3006               movlw	6
  3933  06F0  00A8               movwf	(??_main+0)+0,f
  3934  06F1                     u5987:
  3935  06F1  0BA8               decfsz	(??_main+0)+0,f
  3936  06F2  2EF1               	goto	u5987
  3937  06F3  0064               	clrwdt
  3938                           opt asmopt_on
  3939                           
  3940                           	line	293
  3941                           	
  3942  06F4                     l6435:	
  3943                           ;test.c: 293: RD5=0;
  3944  06F4  1283               	bcf	status, 5	;RP0=0, select bank0
  3945  06F5  1303               	bcf	status, 6	;RP1=0, select bank0
  3946  06F6  1288               	bcf	(69/8),(69)&7
  3947                           	line	294
  3948                           ;test.c: 294: for(int du=1; du<=51-(vblAccX-352); du++) _delay((unsigned long)((400)*(40
                                 00000/4000000.0)));
  3949  06F7  3001               	movlw	low(01h)
  3950  06F8  00E4               	movwf	(main@du_1352)
  3951  06F9  3000               	movlw	high(01h)
  3952  06FA  00E5               	movwf	((main@du_1352))+1
  3953  06FB  2F09               	goto	l6439
  3954                           	
  3955  06FC                     l937:	
  3956                           	
  3957  06FC                     l6437:	
  3958                           	opt asmopt_off
  3959  06FC  3085               movlw	133
  3960  06FD  00A8               movwf	(??_main+0)+0,f
  3961  06FE                     u5997:
  3962  06FE  0BA8               decfsz	(??_main+0)+0,f
  3963  06FF  2EFE               	goto	u5997
  3964                           opt asmopt_on
  3965                           
  3966  0700  3001               	movlw	low(01h)
  3967  0701  1283               	bcf	status, 5	;RP0=0, select bank0
  3968  0702  1303               	bcf	status, 6	;RP1=0, select bank0
  3969  0703  07E4               	addwf	(main@du_1352),f
  3970  0704  1803               	skipnc
  3971  0705  0AE5               	incf	(main@du_1352+1),f
  3972  0706  3000               	movlw	high(01h)
  3973  0707  07E5               	addwf	(main@du_1352+1),f
  3974  0708  2F09               	goto	l6439
  3975                           	
  3976  0709                     l936:	
  3977                           	
  3978  0709                     l6439:	
  3979  0709  086C               	movf	(_vblAccX),w
  3980  070A  3EA0               	addlw	low(0FEA0h)
  3981  070B  00A8               	movwf	(??_main+0)+0
  3982  070C  086D               	movf	(_vblAccX+1),w
  3983  070D  1803               	skipnc
  3984  070E  3E01               	addlw	1
  3985  070F  3EFE               	addlw	high(0FEA0h)
  3986  0710  00A9               	movwf	1+(??_main+0)+0
  3987  0711  09A8               	comf	(??_main+0)+0,f
  3988  0712  09A9               	comf	(??_main+0)+1,f
  3989  0713  0AA8               	incf	(??_main+0)+0,f
  3990  0714  1903               	skipnz
  3991  0715  0AA9               	incf	(??_main+0)+1,f
  3992  0716  0828               	movf	0+(??_main+0)+0,w
  3993  0717  3E33               	addlw	low(033h)
  3994  0718  00AA               	movwf	(??_main+2)+0
  3995  0719  0829               	movf	1+(??_main+0)+0,w
  3996  071A  1803               	skipnc
  3997  071B  3E01               	addlw	1
  3998  071C  3E00               	addlw	high(033h)
  3999  071D  00AB               	movwf	1+(??_main+2)+0
  4000  071E  0865               	movf	(main@du_1352+1),w
  4001  071F  022B               	subwf	1+(??_main+2)+0,w
  4002  0720  1D03               	skipz
  4003  0721  2F24               	goto	u5405
  4004  0722  0864               	movf	(main@du_1352),w
  4005  0723  022A               	subwf	0+(??_main+2)+0,w
  4006  0724                     u5405:
  4007  0724  1803               	skipnc
  4008  0725  2F27               	goto	u5401
  4009  0726  2F28               	goto	u5400
  4010  0727                     u5401:
  4011  0727  2EFC               	goto	l6437
  4012  0728                     u5400:
  4013                           	
  4014  0728                     l938:	
  4015                           	line	295
  4016                           ;test.c: 295: RD4=0;
  4017  0728  1208               	bcf	(68/8),(68)&7
  4018                           	line	296
  4019                           	
  4020  0729                     l6441:	
  4021                           ;test.c: 296: _delay((unsigned long)((20)*(4000000/4000000.0)));
  4022                           	opt asmopt_off
  4023  0729  3006               movlw	6
  4024  072A  00A8               movwf	(??_main+0)+0,f
  4025  072B                     u6007:
  4026  072B  0BA8               decfsz	(??_main+0)+0,f
  4027  072C  2F2B               	goto	u6007
  4028  072D  0064               	clrwdt
  4029                           opt asmopt_on
  4030                           
  4031                           	line	297
  4032                           	
  4033  072E                     l6443:	
  4034                           ;test.c: 297: a2d_read();
  4035  072E  120A  118A  201D   	fcall	_a2d_read
              120A  118A         
  4036  0733  2F34               	goto	l6445
  4037                           	line	298
  4038                           	
  4039  0734                     l931:	
  4040                           	line	286
  4041                           	
  4042  0734                     l6445:	
  4043  0734  3001               	movlw	high(013Dh)
  4044  0735  1283               	bcf	status, 5	;RP0=0, select bank0
  4045  0736  1303               	bcf	status, 6	;RP1=0, select bank0
  4046  0737  026F               	subwf	(_vblAccY+1),w
  4047  0738  303D               	movlw	low(013Dh)
  4048  0739  1903               	skipnz
  4049  073A  026E               	subwf	(_vblAccY),w
  4050  073B  1C03               	skipc
  4051  073C  2F3E               	goto	u5411
  4052  073D  2F3F               	goto	u5410
  4053  073E                     u5411:
  4054  073E  2FDA               	goto	l6469
  4055  073F                     u5410:
  4056                           	
  4057  073F                     l6447:	
  4058  073F  3001               	movlw	high(0164h)
  4059  0740  026F               	subwf	(_vblAccY+1),w
  4060  0741  3064               	movlw	low(0164h)
  4061  0742  1903               	skipnz
  4062  0743  026E               	subwf	(_vblAccY),w
  4063  0744  1803               	skipnc
  4064  0745  2F47               	goto	u5421
  4065  0746  2F48               	goto	u5420
  4066  0747                     u5421:
  4067  0747  2FDA               	goto	l6469
  4068  0748                     u5420:
  4069                           	
  4070  0748                     l6449:	
  4071  0748  3001               	movlw	high(0161h)
  4072  0749  026D               	subwf	(_vblAccX+1),w
  4073  074A  3061               	movlw	low(0161h)
  4074  074B  1903               	skipnz
  4075  074C  026C               	subwf	(_vblAccX),w
  4076  074D  1803               	skipnc
  4077  074E  2F50               	goto	u5431
  4078  074F  2F51               	goto	u5430
  4079  0750                     u5431:
  4080  0750  2EBC               	goto	l932
  4081  0751                     u5430:
  4082  0751  2FDA               	goto	l6469
  4083                           	
  4084  0752                     l940:	
  4085  0752  2FDA               	goto	l6469
  4086                           	
  4087  0753                     l941:	
  4088                           	line	300
  4089                           ;test.c: 298: }
  4090                           ;test.c: 300: while( vblAccY > 316 && vblAccY < 356 && vblAccX < 312 )
  4091  0753  2FDA               	goto	l6469
  4092                           	
  4093  0754                     l943:	
  4094                           	line	303
  4095                           ;test.c: 301: {
  4096                           ;test.c: 303: RD4=1;
  4097  0754  1608               	bsf	(68/8),(68)&7
  4098                           	line	304
  4099                           	
  4100  0755                     l6451:	
  4101                           ;test.c: 304: for(int du=1; du<=51-(312-vblAccX); du++) _delay((unsigned long)((400)*(40
                                 00000/4000000.0)));
  4102  0755  3001               	movlw	low(01h)
  4103  0756  00E6               	movwf	(main@du_1353)
  4104  0757  3000               	movlw	high(01h)
  4105  0758  00E7               	movwf	((main@du_1353))+1
  4106  0759  2F67               	goto	l6455
  4107                           	
  4108  075A                     l945:	
  4109                           	
  4110  075A                     l6453:	
  4111                           	opt asmopt_off
  4112  075A  3085               movlw	133
  4113  075B  00A8               movwf	(??_main+0)+0,f
  4114  075C                     u6017:
  4115  075C  0BA8               decfsz	(??_main+0)+0,f
  4116  075D  2F5C               	goto	u6017
  4117                           opt asmopt_on
  4118                           
  4119  075E  3001               	movlw	low(01h)
  4120  075F  1283               	bcf	status, 5	;RP0=0, select bank0
  4121  0760  1303               	bcf	status, 6	;RP1=0, select bank0
  4122  0761  07E6               	addwf	(main@du_1353),f
  4123  0762  1803               	skipnc
  4124  0763  0AE7               	incf	(main@du_1353+1),f
  4125  0764  3000               	movlw	high(01h)
  4126  0765  07E7               	addwf	(main@du_1353+1),f
  4127  0766  2F67               	goto	l6455
  4128                           	
  4129  0767                     l944:	
  4130                           	
  4131  0767                     l6455:	
  4132  0767  096C               	comf	(_vblAccX),w
  4133  0768  00A8               	movwf	(??_main+0)+0
  4134  0769  096D               	comf	(_vblAccX+1),w
  4135  076A  00A9               	movwf	((??_main+0)+0+1)
  4136  076B  0AA8               	incf	(??_main+0)+0,f
  4137  076C  1903               	skipnz
  4138  076D  0AA9               	incf	((??_main+0)+0+1),f
  4139  076E  0828               	movf	0+(??_main+0)+0,w
  4140  076F  3E38               	addlw	low(0138h)
  4141  0770  00AA               	movwf	(??_main+2)+0
  4142  0771  0829               	movf	1+(??_main+0)+0,w
  4143  0772  1803               	skipnc
  4144  0773  3E01               	addlw	1
  4145  0774  3E01               	addlw	high(0138h)
  4146  0775  00AB               	movwf	1+(??_main+2)+0
  4147  0776  09AA               	comf	(??_main+2)+0,f
  4148  0777  09AB               	comf	(??_main+2)+1,f
  4149  0778  0AAA               	incf	(??_main+2)+0,f
  4150  0779  1903               	skipnz
  4151  077A  0AAB               	incf	(??_main+2)+1,f
  4152  077B  082A               	movf	0+(??_main+2)+0,w
  4153  077C  3E33               	addlw	low(033h)
  4154  077D  00AC               	movwf	(??_main+4)+0
  4155  077E  082B               	movf	1+(??_main+2)+0,w
  4156  077F  1803               	skipnc
  4157  0780  3E01               	addlw	1
  4158  0781  3E00               	addlw	high(033h)
  4159  0782  00AD               	movwf	1+(??_main+4)+0
  4160  0783  0867               	movf	(main@du_1353+1),w
  4161  0784  022D               	subwf	1+(??_main+4)+0,w
  4162  0785  1D03               	skipz
  4163  0786  2F89               	goto	u5445
  4164  0787  0866               	movf	(main@du_1353),w
  4165  0788  022C               	subwf	0+(??_main+4)+0,w
  4166  0789                     u5445:
  4167  0789  1803               	skipnc
  4168  078A  2F8C               	goto	u5441
  4169  078B  2F8D               	goto	u5440
  4170  078C                     u5441:
  4171  078C  2F5A               	goto	l6453
  4172  078D                     u5440:
  4173                           	
  4174  078D                     l946:	
  4175                           	line	305
  4176                           ;test.c: 305: RD5=1;
  4177  078D  1688               	bsf	(69/8),(69)&7
  4178                           	line	306
  4179                           	
  4180  078E                     l6457:	
  4181                           ;test.c: 306: _delay((unsigned long)((20)*(4000000/4000000.0)));
  4182                           	opt asmopt_off
  4183  078E  3006               movlw	6
  4184  078F  00A8               movwf	(??_main+0)+0,f
  4185  0790                     u6027:
  4186  0790  0BA8               decfsz	(??_main+0)+0,f
  4187  0791  2F90               	goto	u6027
  4188  0792  0064               	clrwdt
  4189                           opt asmopt_on
  4190                           
  4191                           	line	307
  4192                           	
  4193  0793                     l6459:	
  4194                           ;test.c: 307: RD4=0;
  4195  0793  1283               	bcf	status, 5	;RP0=0, select bank0
  4196  0794  1303               	bcf	status, 6	;RP1=0, select bank0
  4197  0795  1208               	bcf	(68/8),(68)&7
  4198                           	line	308
  4199                           ;test.c: 308: for(int du=1; du<=51-(312-vblAccX); du++) _delay((unsigned long)((400)*(40
                                 00000/4000000.0)));
  4200  0796  3001               	movlw	low(01h)
  4201  0797  00E8               	movwf	(main@du_1354)
  4202  0798  3000               	movlw	high(01h)
  4203  0799  00E9               	movwf	((main@du_1354))+1
  4204  079A  2FA8               	goto	l6463
  4205                           	
  4206  079B                     l948:	
  4207                           	
  4208  079B                     l6461:	
  4209                           	opt asmopt_off
  4210  079B  3085               movlw	133
  4211  079C  00A8               movwf	(??_main+0)+0,f
  4212  079D                     u6037:
  4213  079D  0BA8               decfsz	(??_main+0)+0,f
  4214  079E  2F9D               	goto	u6037
  4215                           opt asmopt_on
  4216                           
  4217  079F  3001               	movlw	low(01h)
  4218  07A0  1283               	bcf	status, 5	;RP0=0, select bank0
  4219  07A1  1303               	bcf	status, 6	;RP1=0, select bank0
  4220  07A2  07E8               	addwf	(main@du_1354),f
  4221  07A3  1803               	skipnc
  4222  07A4  0AE9               	incf	(main@du_1354+1),f
  4223  07A5  3000               	movlw	high(01h)
  4224  07A6  07E9               	addwf	(main@du_1354+1),f
  4225  07A7  2FA8               	goto	l6463
  4226                           	
  4227  07A8                     l947:	
  4228                           	
  4229  07A8                     l6463:	
  4230  07A8  096C               	comf	(_vblAccX),w
  4231  07A9  00A8               	movwf	(??_main+0)+0
  4232  07AA  096D               	comf	(_vblAccX+1),w
  4233  07AB  00A9               	movwf	((??_main+0)+0+1)
  4234  07AC  0AA8               	incf	(??_main+0)+0,f
  4235  07AD  1903               	skipnz
  4236  07AE  0AA9               	incf	((??_main+0)+0+1),f
  4237  07AF  0828               	movf	0+(??_main+0)+0,w
  4238  07B0  3E38               	addlw	low(0138h)
  4239  07B1  00AA               	movwf	(??_main+2)+0
  4240  07B2  0829               	movf	1+(??_main+0)+0,w
  4241  07B3  1803               	skipnc
  4242  07B4  3E01               	addlw	1
  4243  07B5  3E01               	addlw	high(0138h)
  4244  07B6  00AB               	movwf	1+(??_main+2)+0
  4245  07B7  09AA               	comf	(??_main+2)+0,f
  4246  07B8  09AB               	comf	(??_main+2)+1,f
  4247  07B9  0AAA               	incf	(??_main+2)+0,f
  4248  07BA  1903               	skipnz
  4249  07BB  0AAB               	incf	(??_main+2)+1,f
  4250  07BC  082A               	movf	0+(??_main+2)+0,w
  4251  07BD  3E33               	addlw	low(033h)
  4252  07BE  00AC               	movwf	(??_main+4)+0
  4253  07BF  082B               	movf	1+(??_main+2)+0,w
  4254  07C0  1803               	skipnc
  4255  07C1  3E01               	addlw	1
  4256  07C2  3E00               	addlw	high(033h)
  4257  07C3  00AD               	movwf	1+(??_main+4)+0
  4258  07C4  0869               	movf	(main@du_1354+1),w
  4259  07C5  022D               	subwf	1+(??_main+4)+0,w
  4260  07C6  1D03               	skipz
  4261  07C7  2FCA               	goto	u5455
  4262  07C8  0868               	movf	(main@du_1354),w
  4263  07C9  022C               	subwf	0+(??_main+4)+0,w
  4264  07CA                     u5455:
  4265  07CA  1803               	skipnc
  4266  07CB  2FCD               	goto	u5451
  4267  07CC  2FCE               	goto	u5450
  4268  07CD                     u5451:
  4269  07CD  2F9B               	goto	l6461
  4270  07CE                     u5450:
  4271                           	
  4272  07CE                     l949:	
  4273                           	line	309
  4274                           ;test.c: 309: RD5=0;
  4275  07CE  1288               	bcf	(69/8),(69)&7
  4276                           	line	310
  4277                           	
  4278  07CF                     l6465:	
  4279                           ;test.c: 310: _delay((unsigned long)((20)*(4000000/4000000.0)));
  4280                           	opt asmopt_off
  4281  07CF  3006               movlw	6
  4282  07D0  00A8               movwf	(??_main+0)+0,f
  4283  07D1                     u6047:
  4284  07D1  0BA8               decfsz	(??_main+0)+0,f
  4285  07D2  2FD1               	goto	u6047
  4286  07D3  0064               	clrwdt
  4287                           opt asmopt_on
  4288                           
  4289                           	line	311
  4290                           	
  4291  07D4                     l6467:	
  4292                           ;test.c: 311: a2d_read();
  4293  07D4  120A  118A  201D   	fcall	_a2d_read
              120A  118A         
  4294  07D9  2FDA               	goto	l6469
  4295                           	line	312
  4296                           	
  4297  07DA                     l942:	
  4298                           	line	300
  4299                           	
  4300  07DA                     l6469:	
  4301  07DA  3001               	movlw	high(013Dh)
  4302  07DB  1283               	bcf	status, 5	;RP0=0, select bank0
  4303  07DC  1303               	bcf	status, 6	;RP1=0, select bank0
  4304  07DD  026F               	subwf	(_vblAccY+1),w
  4305  07DE  303D               	movlw	low(013Dh)
  4306  07DF  1903               	skipnz
  4307  07E0  026E               	subwf	(_vblAccY),w
  4308  07E1  1C03               	skipc
  4309  07E2  2FE4               	goto	u5461
  4310  07E3  2FE7               	goto	u5460
  4311  07E4                     u5461:
  4312  07E4  120A  158A  2F1A   	goto	l820
  4313  07E7                     u5460:
  4314                           	
  4315  07E7                     l6471:	
  4316  07E7  3001               	movlw	high(0164h)
  4317  07E8  026F               	subwf	(_vblAccY+1),w
  4318  07E9  3064               	movlw	low(0164h)
  4319  07EA  1903               	skipnz
  4320  07EB  026E               	subwf	(_vblAccY),w
  4321  07EC  1803               	skipnc
  4322  07ED  2FEF               	goto	u5471
  4323  07EE  2FF0               	goto	u5470
  4324  07EF                     u5471:
  4325  07EF  2FE4               	goto	l820
  4326  07F0                     u5470:
  4327                           	
  4328  07F0                     l6473:	
  4329  07F0  3001               	movlw	high(0138h)
  4330  07F1  026D               	subwf	(_vblAccX+1),w
  4331  07F2  3038               	movlw	low(0138h)
  4332  07F3  1903               	skipnz
  4333  07F4  026C               	subwf	(_vblAccX),w
  4334  07F5  1C03               	skipc
  4335  07F6  2FF8               	goto	u5481
  4336  07F7  2FF9               	goto	u5480
  4337  07F8                     u5481:
  4338  07F8  2F54               	goto	l943
  4339  07F9                     u5480:
  4340  07F9  2FE4               	goto	l820
  4341                           	
  4342  07FA                     l951:	
  4343  07FA  2FE4               	goto	l820
  4344                           	
  4345  07FB                     l952:	
  4346  07FB  2FE4               	goto	l820
  4347                           	line	313
  4348                           	
  4349  07FC                     l953:	
  4350                           	line	114
  4351  07FC  2FE4               	goto	l820
  4352                           	
  4353  07FD                     l954:	
  4354                           	line	314
  4355                           	
  4356  07FD                     l955:	
  4357                           	global	start
  4358  07FD  120A  118A  2812   	ljmp	start
  4359                           	opt stack 0
  4360                           GLOBAL	__end_of_main
  4361  0800                     	__end_of_main:
  4362 ;; =============== function _main ends ============
  4363                           
  4364                           	signat	_main,88
  4365                           	global	_a2d_read
  4366                           psect	text396,local,class=CODE,delta=2
  4367                           global __ptext396
  4368  001D                     __ptext396:
  4369                           
  4370 ;; *************** function _a2d_read *****************
  4371 ;; Defined at:
  4372 ;;		line 319 in file "F:\ELECTRONIC\2015\Projects\New folder\test.c"
  4373 ;; Parameters:    Size  Location     Type
  4374 ;;		None
  4375 ;; Auto vars:     Size  Location     Type
  4376 ;;		None
  4377 ;; Return value:  Size  Location     Type
  4378 ;;		None               void
  4379 ;; Registers used:
  4380 ;;		wreg, status,2, status,0, pclath, cstack
  4381 ;; Tracked objects:
  4382 ;;		On entry : 0/0
  4383 ;;		On exit  : 0/0
  4384 ;;		Unchanged: 0/0
  4385 ;; Data sizes:     COMMON   BANK0   BANK1   BANK3   BANK2
  4386 ;;      Params:         0       0       0       0       0
  4387 ;;      Locals:         0       0       0       0       0
  4388 ;;      Temps:          0       0       0       0       0
  4389 ;;      Totals:         0       0       0       0       0
  4390 ;;Total ram usage:        0 bytes
  4391 ;; Hardware stack levels used:    1
  4392 ;; Hardware stack levels required when called:    4
  4393 ;; This function calls:
  4394 ;;		_read_a2d_value
  4395 ;; This function is called by:
  4396 ;;		_main
  4397 ;; This function uses a non-reentrant model
  4398 ;;
  4399                           psect	text396
  4400                           	file	"F:\ELECTRONIC\2015\Projects\New folder\test.c"
  4401                           	line	319
  4402                           	global	__size_of_a2d_read
  4403  0062                     	__size_of_a2d_read	equ	__end_of_a2d_read-_a2d_read
  4404                           	
  4405  001D                     _a2d_read:	
  4406                           	opt	stack 3
  4407                           ; Regs used in _a2d_read: [wreg+status,2+status,0+pclath+cstack]
  4408                           	line	321
  4409                           	
  4410  001D                     l6153:	
  4411                           ;test.c: 321: read_a2d_value(0);
  4412  001D  3000               	movlw	(0)
  4413  001E  120A  158A  24A0   	fcall	_read_a2d_value
              120A  118A         
  4414                           	line	322
  4415                           ;test.c: 322: vblAccX = read_a2d_value(0);
  4416  0023  3000               	movlw	(0)
  4417  0024  120A  158A  24A0   	fcall	_read_a2d_value
              120A  118A         
  4418  0029  1283               	bcf	status, 5	;RP0=0, select bank0
  4419  002A  1303               	bcf	status, 6	;RP1=0, select bank0
  4420  002B  0821               	movf	(1+(?_read_a2d_value)),w
  4421  002C  01ED               	clrf	(_vblAccX+1)
  4422  002D  07ED               	addwf	(_vblAccX+1)
  4423  002E  0820               	movf	(0+(?_read_a2d_value)),w
  4424  002F  01EC               	clrf	(_vblAccX)
  4425  0030  07EC               	addwf	(_vblAccX)
  4426                           
  4427                           	line	323
  4428                           ;test.c: 323: read_a2d_value(1);
  4429  0031  3001               	movlw	(01h)
  4430  0032  120A  158A  24A0   	fcall	_read_a2d_value
              120A  118A         
  4431                           	line	324
  4432                           ;test.c: 324: vblAccY = read_a2d_value(1);
  4433  0037  3001               	movlw	(01h)
  4434  0038  120A  158A  24A0   	fcall	_read_a2d_value
              120A  118A         
  4435  003D  1283               	bcf	status, 5	;RP0=0, select bank0
  4436  003E  1303               	bcf	status, 6	;RP1=0, select bank0
  4437  003F  0821               	movf	(1+(?_read_a2d_value)),w
  4438  0040  01EF               	clrf	(_vblAccY+1)
  4439  0041  07EF               	addwf	(_vblAccY+1)
  4440  0042  0820               	movf	(0+(?_read_a2d_value)),w
  4441  0043  01EE               	clrf	(_vblAccY)
  4442  0044  07EE               	addwf	(_vblAccY)
  4443                           
  4444                           	line	326
  4445                           	
  4446  0045                     l6155:	
  4447                           ;test.c: 326: if(vblAccX > 402) vblAccX = 402;
  4448  0045  3001               	movlw	high(0193h)
  4449  0046  026D               	subwf	(_vblAccX+1),w
  4450  0047  3093               	movlw	low(0193h)
  4451  0048  1903               	skipnz
  4452  0049  026C               	subwf	(_vblAccX),w
  4453  004A  1C03               	skipc
  4454  004B  284D               	goto	u4941
  4455  004C  284E               	goto	u4940
  4456  004D                     u4941:
  4457  004D  2853               	goto	l6159
  4458  004E                     u4940:
  4459                           	
  4460  004E                     l6157:	
  4461  004E  3092               	movlw	low(0192h)
  4462  004F  00EC               	movwf	(_vblAccX)
  4463  0050  3001               	movlw	high(0192h)
  4464  0051  00ED               	movwf	((_vblAccX))+1
  4465  0052  2861               	goto	l959
  4466                           	line	327
  4467                           	
  4468  0053                     l958:	
  4469                           	
  4470  0053                     l6159:	
  4471                           ;test.c: 327: else if ( vblAccX < 262) vblAccX = 262;
  4472  0053  3001               	movlw	high(0106h)
  4473  0054  026D               	subwf	(_vblAccX+1),w
  4474  0055  3006               	movlw	low(0106h)
  4475  0056  1903               	skipnz
  4476  0057  026C               	subwf	(_vblAccX),w
  4477  0058  1803               	skipnc
  4478  0059  285B               	goto	u4951
  4479  005A  285C               	goto	u4950
  4480  005B                     u4951:
  4481  005B  2861               	goto	l959
  4482  005C                     u4950:
  4483                           	
  4484  005C                     l6161:	
  4485  005C  3006               	movlw	low(0106h)
  4486  005D  00EC               	movwf	(_vblAccX)
  4487  005E  3001               	movlw	high(0106h)
  4488  005F  00ED               	movwf	((_vblAccX))+1
  4489  0060  2861               	goto	l959
  4490                           	
  4491  0061                     l960:	
  4492                           	line	328
  4493                           	
  4494  0061                     l959:	
  4495                           ;test.c: 328: if(vblAccY > 406) vblAccY = 406;
  4496  0061  3001               	movlw	high(0197h)
  4497  0062  026F               	subwf	(_vblAccY+1),w
  4498  0063  3097               	movlw	low(0197h)
  4499  0064  1903               	skipnz
  4500  0065  026E               	subwf	(_vblAccY),w
  4501  0066  1C03               	skipc
  4502  0067  2869               	goto	u4961
  4503  0068  286A               	goto	u4960
  4504  0069                     u4961:
  4505  0069  286F               	goto	l6165
  4506  006A                     u4960:
  4507                           	
  4508  006A                     l6163:	
  4509  006A  3096               	movlw	low(0196h)
  4510  006B  00EE               	movwf	(_vblAccY)
  4511  006C  3001               	movlw	high(0196h)
  4512  006D  00EF               	movwf	((_vblAccY))+1
  4513  006E  287E               	goto	l964
  4514                           	line	329
  4515                           	
  4516  006F                     l961:	
  4517                           	
  4518  006F                     l6165:	
  4519                           ;test.c: 329: else if ( vblAccY < 266) vblAccY = 266;
  4520  006F  3001               	movlw	high(010Ah)
  4521  0070  026F               	subwf	(_vblAccY+1),w
  4522  0071  300A               	movlw	low(010Ah)
  4523  0072  1903               	skipnz
  4524  0073  026E               	subwf	(_vblAccY),w
  4525  0074  1803               	skipnc
  4526  0075  2877               	goto	u4971
  4527  0076  2878               	goto	u4970
  4528  0077                     u4971:
  4529  0077  287E               	goto	l964
  4530  0078                     u4970:
  4531                           	
  4532  0078                     l6167:	
  4533  0078  300A               	movlw	low(010Ah)
  4534  0079  00EE               	movwf	(_vblAccY)
  4535  007A  3001               	movlw	high(010Ah)
  4536  007B  00EF               	movwf	((_vblAccY))+1
  4537  007C  287E               	goto	l964
  4538                           	
  4539  007D                     l963:	
  4540  007D  287E               	goto	l964
  4541                           	line	331
  4542                           	
  4543  007E                     l962:	
  4544                           	
  4545  007E                     l964:	
  4546  007E  0008               	return
  4547                           	opt stack 0
  4548                           GLOBAL	__end_of_a2d_read
  4549  007F                     	__end_of_a2d_read:
  4550 ;; =============== function _a2d_read ends ============
  4551                           
  4552                           	signat	_a2d_read,88
  4553                           	global	_read_a2d_value
  4554                           psect	text397,local,class=CODE,delta=2
  4555                           global __ptext397
  4556  0CA0                     __ptext397:
  4557                           
  4558 ;; *************** function _read_a2d_value *****************
  4559 ;; Defined at:
  4560 ;;		line 336 in file "F:\ELECTRONIC\2015\Projects\New folder\test.c"
  4561 ;; Parameters:    Size  Location     Type
  4562 ;;  channel         1    wreg     unsigned char 
  4563 ;; Auto vars:     Size  Location     Type
  4564 ;;  channel         1    4[BANK0 ] unsigned char 
  4565 ;;  a2d_value       2    5[BANK0 ] unsigned int 
  4566 ;; Return value:  Size  Location     Type
  4567 ;;                  2    0[BANK0 ] unsigned int 
  4568 ;; Registers used:
  4569 ;;		wreg, status,2, status,0
  4570 ;; Tracked objects:
  4571 ;;		On entry : 0/0
  4572 ;;		On exit  : 0/0
  4573 ;;		Unchanged: 0/0
  4574 ;; Data sizes:     COMMON   BANK0   BANK1   BANK3   BANK2
  4575 ;;      Params:         0       2       0       0       0
  4576 ;;      Locals:         0       3       0       0       0
  4577 ;;      Temps:          0       2       0       0       0
  4578 ;;      Totals:         0       7       0       0       0
  4579 ;;Total ram usage:        7 bytes
  4580 ;; Hardware stack levels used:    1
  4581 ;; Hardware stack levels required when called:    3
  4582 ;; This function calls:
  4583 ;;		Nothing
  4584 ;; This function is called by:
  4585 ;;		_a2d_read
  4586 ;; This function uses a non-reentrant model
  4587 ;;
  4588                           psect	text397
  4589                           	file	"F:\ELECTRONIC\2015\Projects\New folder\test.c"
  4590                           	line	336
  4591                           	global	__size_of_read_a2d_value
  4592  0046                     	__size_of_read_a2d_value	equ	__end_of_read_a2d_value-_read_a2d_value
  4593                           	
  4594  0CA0                     _read_a2d_value:	
  4595                           	opt	stack 3
  4596                           ; Regs used in _read_a2d_value: [wreg+status,2+status,0]
  4597                           ;read_a2d_value@channel stored from wreg
  4598                           	line	339
  4599  0CA0  1283               	bcf	status, 5	;RP0=0, select bank0
  4600  0CA1  1303               	bcf	status, 6	;RP1=0, select bank0
  4601  0CA2  00A4               	movwf	(read_a2d_value@channel)
  4602                           	
  4603  0CA3                     l6135:	
  4604                           ;test.c: 338: unsigned int a2d_value;
  4605                           ;test.c: 339: channel = channel << 3;
  4606  0CA3  0824               	movf	(read_a2d_value@channel),w
  4607  0CA4  00A2               	movwf	(??_read_a2d_value+0)+0
  4608  0CA5  3002               	movlw	(03h)-1
  4609  0CA6                     u4925:
  4610  0CA6  1003               	clrc
  4611  0CA7  0DA2               	rlf	(??_read_a2d_value+0)+0,f
  4612  0CA8  3EFF               	addlw	-1
  4613  0CA9  1D03               	skipz
  4614  0CAA  2CA6               	goto	u4925
  4615  0CAB  1003               	clrc
  4616  0CAC  0D22               	rlf	(??_read_a2d_value+0)+0,w
  4617  0CAD  00A3               	movwf	(??_read_a2d_value+1)+0
  4618  0CAE  0823               	movf	(??_read_a2d_value+1)+0,w
  4619  0CAF  00A4               	movwf	(read_a2d_value@channel)
  4620                           	line	340
  4621                           	
  4622  0CB0                     l6137:	
  4623                           ;test.c: 340: ADCON0 = ADCON0 & 0b11000111;
  4624  0CB0  081F               	movf	(31),w
  4625  0CB1  39C7               	andlw	0C7h
  4626  0CB2  009F               	movwf	(31)	;volatile
  4627                           	line	341
  4628                           	
  4629  0CB3                     l6139:	
  4630                           ;test.c: 341: ADCON0 = ADCON0 | channel;
  4631  0CB3  081F               	movf	(31),w	;volatile
  4632  0CB4  0424               	iorwf	(read_a2d_value@channel),w
  4633  0CB5  009F               	movwf	(31)	;volatile
  4634                           	line	342
  4635                           	
  4636  0CB6                     l6141:	
  4637                           ;test.c: 342: ADON = 1;
  4638  0CB6  141F               	bsf	(248/8),(248)&7
  4639                           	line	343
  4640                           	
  4641  0CB7                     l6143:	
  4642                           ;test.c: 343: _delay(50);
  4643                           	opt asmopt_off
  4644  0CB7  3010               movlw	16
  4645  0CB8  00A2               movwf	(??_read_a2d_value+0)+0,f
  4646  0CB9                     u6057:
  4647  0CB9  0BA2               decfsz	(??_read_a2d_value+0)+0,f
  4648  0CBA  2CB9               	goto	u6057
  4649  0CBB  0064               	clrwdt
  4650                           opt asmopt_on
  4651                           
  4652                           	line	344
  4653                           	
  4654  0CBC                     l6145:	
  4655                           ;test.c: 344: GO = 1;
  4656  0CBC  1283               	bcf	status, 5	;RP0=0, select bank0
  4657  0CBD  1303               	bcf	status, 6	;RP1=0, select bank0
  4658  0CBE  151F               	bsf	(250/8),(250)&7
  4659                           	line	345
  4660                           ;test.c: 345: while( GO == 1 );
  4661  0CBF  2CC0               	goto	l967
  4662                           	
  4663  0CC0                     l968:	
  4664                           	
  4665  0CC0                     l967:	
  4666  0CC0  191F               	btfsc	(250/8),(250)&7
  4667  0CC1  2CC3               	goto	u4931
  4668  0CC2  2CC4               	goto	u4930
  4669  0CC3                     u4931:
  4670  0CC3  2CC0               	goto	l967
  4671  0CC4                     u4930:
  4672  0CC4  2CC5               	goto	l6147
  4673                           	
  4674  0CC5                     l969:	
  4675                           	line	349
  4676                           	
  4677  0CC5                     l6147:	
  4678                           ;test.c: 346: {
  4679                           ;test.c: 348: }
  4680                           ;test.c: 349: a2d_value = ADRESH;
  4681  0CC5  081E               	movf	(30),w	;volatile
  4682  0CC6  00A2               	movwf	(??_read_a2d_value+0)+0
  4683  0CC7  01A3               	clrf	(??_read_a2d_value+0)+0+1
  4684  0CC8  0822               	movf	0+(??_read_a2d_value+0)+0,w
  4685  0CC9  00A5               	movwf	(read_a2d_value@a2d_value)
  4686  0CCA  0823               	movf	1+(??_read_a2d_value+0)+0,w
  4687  0CCB  00A6               	movwf	(read_a2d_value@a2d_value+1)
  4688                           	line	350
  4689                           ;test.c: 350: a2d_value = a2d_value << 8;
  4690  0CCC  0825               	movf	(read_a2d_value@a2d_value),w
  4691  0CCD  00A3               	movwf	(??_read_a2d_value+0)+0+1
  4692  0CCE  01A2               	clrf	(??_read_a2d_value+0)+0
  4693  0CCF  0822               	movf	0+(??_read_a2d_value+0)+0,w
  4694  0CD0  00A5               	movwf	(read_a2d_value@a2d_value)
  4695  0CD1  0823               	movf	1+(??_read_a2d_value+0)+0,w
  4696  0CD2  00A6               	movwf	(read_a2d_value@a2d_value+1)
  4697                           	line	351
  4698                           ;test.c: 351: a2d_value = a2d_value + ADRESL;
  4699  0CD3  1683               	bsf	status, 5	;RP0=1, select bank1
  4700  0CD4  1303               	bcf	status, 6	;RP1=0, select bank1
  4701  0CD5  081E               	movf	(158)^080h,w	;volatile
  4702  0CD6  1283               	bcf	status, 5	;RP0=0, select bank0
  4703  0CD7  1303               	bcf	status, 6	;RP1=0, select bank0
  4704  0CD8  0725               	addwf	(read_a2d_value@a2d_value),w
  4705  0CD9  00A5               	movwf	(read_a2d_value@a2d_value)
  4706  0CDA  0826               	movf	(read_a2d_value@a2d_value+1),w
  4707  0CDB  1803               	skipnc
  4708  0CDC  0A26               	incf	(read_a2d_value@a2d_value+1),w
  4709  0CDD  00A6               	movwf	((read_a2d_value@a2d_value))+1
  4710                           	line	352
  4711                           	
  4712  0CDE                     l6149:	
  4713                           ;test.c: 352: return a2d_value;
  4714  0CDE  0826               	movf	(read_a2d_value@a2d_value+1),w
  4715  0CDF  01A1               	clrf	(?_read_a2d_value+1)
  4716  0CE0  07A1               	addwf	(?_read_a2d_value+1)
  4717  0CE1  0825               	movf	(read_a2d_value@a2d_value),w
  4718  0CE2  01A0               	clrf	(?_read_a2d_value)
  4719  0CE3  07A0               	addwf	(?_read_a2d_value)
  4720                           
  4721  0CE4  2CE5               	goto	l970
  4722                           	
  4723  0CE5                     l6151:	
  4724                           	line	354
  4725                           	
  4726  0CE5                     l970:	
  4727  0CE5  0008               	return
  4728                           	opt stack 0
  4729                           GLOBAL	__end_of_read_a2d_value
  4730  0CE6                     	__end_of_read_a2d_value:
  4731 ;; =============== function _read_a2d_value ends ============
  4732                           
  4733                           	signat	_read_a2d_value,4218
  4734                           	global	_lcd_init
  4735                           psect	text398,local,class=CODE,delta=2
  4736                           global __ptext398
  4737  0E36                     __ptext398:
  4738                           
  4739 ;; *************** function _lcd_init *****************
  4740 ;; Defined at:
  4741 ;;		line 51 in file "F:\ELECTRONIC\2015\Projects\New folder\lcd.h"
  4742 ;; Parameters:    Size  Location     Type
  4743 ;;		None
  4744 ;; Auto vars:     Size  Location     Type
  4745 ;;		None
  4746 ;; Return value:  Size  Location     Type
  4747 ;;		None               void
  4748 ;; Registers used:
  4749 ;;		wreg, status,2, status,0, pclath, cstack
  4750 ;; Tracked objects:
  4751 ;;		On entry : 0/0
  4752 ;;		On exit  : 0/0
  4753 ;;		Unchanged: 0/0
  4754 ;; Data sizes:     COMMON   BANK0   BANK1   BANK3   BANK2
  4755 ;;      Params:         0       0       0       0       0
  4756 ;;      Locals:         0       0       0       0       0
  4757 ;;      Temps:          0       2       0       0       0
  4758 ;;      Totals:         0       2       0       0       0
  4759 ;;Total ram usage:        2 bytes
  4760 ;; Hardware stack levels used:    1
  4761 ;; Hardware stack levels required when called:    4
  4762 ;; This function calls:
  4763 ;;		_lcd_add
  4764 ;; This function is called by:
  4765 ;;		_main
  4766 ;; This function uses a non-reentrant model
  4767 ;;
  4768                           psect	text398
  4769                           	file	"F:\ELECTRONIC\2015\Projects\New folder\lcd.h"
  4770                           	line	51
  4771                           	global	__size_of_lcd_init
  4772  00BF                     	__size_of_lcd_init	equ	__end_of_lcd_init-_lcd_init
  4773                           	
  4774  0E36                     _lcd_init:	
  4775                           	opt	stack 3
  4776                           ; Regs used in _lcd_init: [wreg+status,2+status,0+pclath+cstack]
  4777                           	line	53
  4778                           	
  4779  0E36                     l6097:	
  4780                           ;lcd.h: 53: RB4 = 0;
  4781  0E36  1283               	bcf	status, 5	;RP0=0, select bank0
  4782  0E37  1303               	bcf	status, 6	;RP1=0, select bank0
  4783  0E38  1206               	bcf	(52/8),(52)&7
  4784                           	line	54
  4785                           	
  4786  0E39                     l6099:	
  4787                           ;lcd.h: 54: lcd_data = 0b00101000;
  4788  0E39  3028               	movlw	(028h)
  4789  0E3A  00A2               	movwf	(??_lcd_init+0)+0
  4790  0E3B  0822               	movf	(??_lcd_init+0)+0,w
  4791  0E3C  1683               	bsf	status, 5	;RP0=1, select bank1
  4792  0E3D  1303               	bcf	status, 6	;RP1=0, select bank1
  4793  0E3E  00E3               	movwf	(_lcd_data)^080h
  4794                           	line	55
  4795                           	
  4796  0E3F                     l6101:	
  4797                           ;lcd.h: 55: lcd_add();
  4798  0E3F  120A  158A  24E6   	fcall	_lcd_add
              120A  158A         
  4799                           	line	56
  4800                           	
  4801  0E44                     l6103:	
  4802                           ;lcd.h: 56: _delay(40000);
  4803                           	opt asmopt_off
  4804  0E44  3034               movlw	52
  4805  0E45  1283               	bcf	status, 5	;RP0=0, select bank0
  4806  0E46  1303               	bcf	status, 6	;RP1=0, select bank0
  4807  0E47  00A3               movwf	((??_lcd_init+0)+0+1),f
  4808  0E48  30F1               	movlw	241
  4809  0E49  00A2               movwf	((??_lcd_init+0)+0),f
  4810  0E4A                     u6067:
  4811  0E4A  0BA2               	decfsz	((??_lcd_init+0)+0),f
  4812  0E4B  2E4A               	goto	u6067
  4813  0E4C  0BA3               	decfsz	((??_lcd_init+0)+0+1),f
  4814  0E4D  2E4A               	goto	u6067
  4815  0E4E  2E4F               	nop2
  4816                           opt asmopt_on
  4817                           
  4818                           	line	57
  4819                           	
  4820  0E4F                     l6105:	
  4821                           ;lcd.h: 57: lcd_data = 0b00101000;
  4822  0E4F  3028               	movlw	(028h)
  4823  0E50  1283               	bcf	status, 5	;RP0=0, select bank0
  4824  0E51  1303               	bcf	status, 6	;RP1=0, select bank0
  4825  0E52  00A2               	movwf	(??_lcd_init+0)+0
  4826  0E53  0822               	movf	(??_lcd_init+0)+0,w
  4827  0E54  1683               	bsf	status, 5	;RP0=1, select bank1
  4828  0E55  1303               	bcf	status, 6	;RP1=0, select bank1
  4829  0E56  00E3               	movwf	(_lcd_data)^080h
  4830                           	line	58
  4831                           	
  4832  0E57                     l6107:	
  4833                           ;lcd.h: 58: lcd_add();
  4834  0E57  120A  158A  24E6   	fcall	_lcd_add
              120A  158A         
  4835                           	line	59
  4836                           ;lcd.h: 59: _delay(40000);
  4837                           	opt asmopt_off
  4838  0E5C  3034               movlw	52
  4839  0E5D  1283               	bcf	status, 5	;RP0=0, select bank0
  4840  0E5E  1303               	bcf	status, 6	;RP1=0, select bank0
  4841  0E5F  00A3               movwf	((??_lcd_init+0)+0+1),f
  4842  0E60  30F1               	movlw	241
  4843  0E61  00A2               movwf	((??_lcd_init+0)+0),f
  4844  0E62                     u6077:
  4845  0E62  0BA2               	decfsz	((??_lcd_init+0)+0),f
  4846  0E63  2E62               	goto	u6077
  4847  0E64  0BA3               	decfsz	((??_lcd_init+0)+0+1),f
  4848  0E65  2E62               	goto	u6077
  4849  0E66  2E67               	nop2
  4850                           opt asmopt_on
  4851                           
  4852                           	line	60
  4853                           ;lcd.h: 60: lcd_data = 0b00000110;
  4854  0E67  3006               	movlw	(06h)
  4855  0E68  1283               	bcf	status, 5	;RP0=0, select bank0
  4856  0E69  1303               	bcf	status, 6	;RP1=0, select bank0
  4857  0E6A  00A2               	movwf	(??_lcd_init+0)+0
  4858  0E6B  0822               	movf	(??_lcd_init+0)+0,w
  4859  0E6C  1683               	bsf	status, 5	;RP0=1, select bank1
  4860  0E6D  1303               	bcf	status, 6	;RP1=0, select bank1
  4861  0E6E  00E3               	movwf	(_lcd_data)^080h
  4862                           	line	61
  4863                           	
  4864  0E6F                     l6109:	
  4865                           ;lcd.h: 61: lcd_add();
  4866  0E6F  120A  158A  24E6   	fcall	_lcd_add
              120A  158A         
  4867                           	line	62
  4868                           	
  4869  0E74                     l6111:	
  4870                           ;lcd.h: 62: _delay(40000);
  4871                           	opt asmopt_off
  4872  0E74  3034               movlw	52
  4873  0E75  1283               	bcf	status, 5	;RP0=0, select bank0
  4874  0E76  1303               	bcf	status, 6	;RP1=0, select bank0
  4875  0E77  00A3               movwf	((??_lcd_init+0)+0+1),f
  4876  0E78  30F1               	movlw	241
  4877  0E79  00A2               movwf	((??_lcd_init+0)+0),f
  4878  0E7A                     u6087:
  4879  0E7A  0BA2               	decfsz	((??_lcd_init+0)+0),f
  4880  0E7B  2E7A               	goto	u6087
  4881  0E7C  0BA3               	decfsz	((??_lcd_init+0)+0+1),f
  4882  0E7D  2E7A               	goto	u6087
  4883  0E7E  2E7F               	nop2
  4884                           opt asmopt_on
  4885                           
  4886                           	line	63
  4887                           	
  4888  0E7F                     l6113:	
  4889                           ;lcd.h: 63: lcd_data = 0b00000110;
  4890  0E7F  3006               	movlw	(06h)
  4891  0E80  1283               	bcf	status, 5	;RP0=0, select bank0
  4892  0E81  1303               	bcf	status, 6	;RP1=0, select bank0
  4893  0E82  00A2               	movwf	(??_lcd_init+0)+0
  4894  0E83  0822               	movf	(??_lcd_init+0)+0,w
  4895  0E84  1683               	bsf	status, 5	;RP0=1, select bank1
  4896  0E85  1303               	bcf	status, 6	;RP1=0, select bank1
  4897  0E86  00E3               	movwf	(_lcd_data)^080h
  4898                           	line	64
  4899                           	
  4900  0E87                     l6115:	
  4901                           ;lcd.h: 64: lcd_add();
  4902  0E87  120A  158A  24E6   	fcall	_lcd_add
              120A  158A         
  4903                           	line	65
  4904                           ;lcd.h: 65: _delay(40000);
  4905                           	opt asmopt_off
  4906  0E8C  3034               movlw	52
  4907  0E8D  1283               	bcf	status, 5	;RP0=0, select bank0
  4908  0E8E  1303               	bcf	status, 6	;RP1=0, select bank0
  4909  0E8F  00A3               movwf	((??_lcd_init+0)+0+1),f
  4910  0E90  30F1               	movlw	241
  4911  0E91  00A2               movwf	((??_lcd_init+0)+0),f
  4912  0E92                     u6097:
  4913  0E92  0BA2               	decfsz	((??_lcd_init+0)+0),f
  4914  0E93  2E92               	goto	u6097
  4915  0E94  0BA3               	decfsz	((??_lcd_init+0)+0+1),f
  4916  0E95  2E92               	goto	u6097
  4917  0E96  2E97               	nop2
  4918                           opt asmopt_on
  4919                           
  4920                           	line	66
  4921                           ;lcd.h: 66: lcd_data = 0b00001101;
  4922  0E97  300D               	movlw	(0Dh)
  4923  0E98  1283               	bcf	status, 5	;RP0=0, select bank0
  4924  0E99  1303               	bcf	status, 6	;RP1=0, select bank0
  4925  0E9A  00A2               	movwf	(??_lcd_init+0)+0
  4926  0E9B  0822               	movf	(??_lcd_init+0)+0,w
  4927  0E9C  1683               	bsf	status, 5	;RP0=1, select bank1
  4928  0E9D  1303               	bcf	status, 6	;RP1=0, select bank1
  4929  0E9E  00E3               	movwf	(_lcd_data)^080h
  4930                           	line	67
  4931                           	
  4932  0E9F                     l6117:	
  4933                           ;lcd.h: 67: lcd_add();
  4934  0E9F  120A  158A  24E6   	fcall	_lcd_add
              120A  158A         
  4935                           	line	68
  4936                           	
  4937  0EA4                     l6119:	
  4938                           ;lcd.h: 68: _delay(40000);
  4939                           	opt asmopt_off
  4940  0EA4  3034               movlw	52
  4941  0EA5  1283               	bcf	status, 5	;RP0=0, select bank0
  4942  0EA6  1303               	bcf	status, 6	;RP1=0, select bank0
  4943  0EA7  00A3               movwf	((??_lcd_init+0)+0+1),f
  4944  0EA8  30F1               	movlw	241
  4945  0EA9  00A2               movwf	((??_lcd_init+0)+0),f
  4946  0EAA                     u6107:
  4947  0EAA  0BA2               	decfsz	((??_lcd_init+0)+0),f
  4948  0EAB  2EAA               	goto	u6107
  4949  0EAC  0BA3               	decfsz	((??_lcd_init+0)+0+1),f
  4950  0EAD  2EAA               	goto	u6107
  4951  0EAE  2EAF               	nop2
  4952                           opt asmopt_on
  4953                           
  4954                           	line	69
  4955                           	
  4956  0EAF                     l6121:	
  4957                           ;lcd.h: 69: lcd_data = 0b00001101;
  4958  0EAF  300D               	movlw	(0Dh)
  4959  0EB0  1283               	bcf	status, 5	;RP0=0, select bank0
  4960  0EB1  1303               	bcf	status, 6	;RP1=0, select bank0
  4961  0EB2  00A2               	movwf	(??_lcd_init+0)+0
  4962  0EB3  0822               	movf	(??_lcd_init+0)+0,w
  4963  0EB4  1683               	bsf	status, 5	;RP0=1, select bank1
  4964  0EB5  1303               	bcf	status, 6	;RP1=0, select bank1
  4965  0EB6  00E3               	movwf	(_lcd_data)^080h
  4966                           	line	70
  4967                           	
  4968  0EB7                     l6123:	
  4969                           ;lcd.h: 70: lcd_add();
  4970  0EB7  120A  158A  24E6   	fcall	_lcd_add
              120A  158A         
  4971                           	line	71
  4972                           ;lcd.h: 71: _delay(40000);
  4973                           	opt asmopt_off
  4974  0EBC  3034               movlw	52
  4975  0EBD  1283               	bcf	status, 5	;RP0=0, select bank0
  4976  0EBE  1303               	bcf	status, 6	;RP1=0, select bank0
  4977  0EBF  00A3               movwf	((??_lcd_init+0)+0+1),f
  4978  0EC0  30F1               	movlw	241
  4979  0EC1  00A2               movwf	((??_lcd_init+0)+0),f
  4980  0EC2                     u6117:
  4981  0EC2  0BA2               	decfsz	((??_lcd_init+0)+0),f
  4982  0EC3  2EC2               	goto	u6117
  4983  0EC4  0BA3               	decfsz	((??_lcd_init+0)+0+1),f
  4984  0EC5  2EC2               	goto	u6117
  4985  0EC6  2EC7               	nop2
  4986                           opt asmopt_on
  4987                           
  4988                           	line	72
  4989                           ;lcd.h: 72: lcd_data = 0b00011000;
  4990  0EC7  3018               	movlw	(018h)
  4991  0EC8  1283               	bcf	status, 5	;RP0=0, select bank0
  4992  0EC9  1303               	bcf	status, 6	;RP1=0, select bank0
  4993  0ECA  00A2               	movwf	(??_lcd_init+0)+0
  4994  0ECB  0822               	movf	(??_lcd_init+0)+0,w
  4995  0ECC  1683               	bsf	status, 5	;RP0=1, select bank1
  4996  0ECD  1303               	bcf	status, 6	;RP1=0, select bank1
  4997  0ECE  00E3               	movwf	(_lcd_data)^080h
  4998                           	line	73
  4999                           	
  5000  0ECF                     l6125:	
  5001                           ;lcd.h: 73: lcd_add();
  5002  0ECF  120A  158A  24E6   	fcall	_lcd_add
              120A  158A         
  5003                           	line	74
  5004                           	
  5005  0ED4                     l6127:	
  5006                           ;lcd.h: 74: _delay(40000);
  5007                           	opt asmopt_off
  5008  0ED4  3034               movlw	52
  5009  0ED5  1283               	bcf	status, 5	;RP0=0, select bank0
  5010  0ED6  1303               	bcf	status, 6	;RP1=0, select bank0
  5011  0ED7  00A3               movwf	((??_lcd_init+0)+0+1),f
  5012  0ED8  30F1               	movlw	241
  5013  0ED9  00A2               movwf	((??_lcd_init+0)+0),f
  5014  0EDA                     u6127:
  5015  0EDA  0BA2               	decfsz	((??_lcd_init+0)+0),f
  5016  0EDB  2EDA               	goto	u6127
  5017  0EDC  0BA3               	decfsz	((??_lcd_init+0)+0+1),f
  5018  0EDD  2EDA               	goto	u6127
  5019  0EDE  2EDF               	nop2
  5020                           opt asmopt_on
  5021                           
  5022                           	line	75
  5023                           	
  5024  0EDF                     l6129:	
  5025                           ;lcd.h: 75: lcd_data = 0b00000001;
  5026  0EDF  1683               	bsf	status, 5	;RP0=1, select bank1
  5027  0EE0  1303               	bcf	status, 6	;RP1=0, select bank1
  5028  0EE1  01E3               	clrf	(_lcd_data)^080h
  5029  0EE2  1403               	bsf	status,0
  5030  0EE3  0DE3               	rlf	(_lcd_data)^080h,f
  5031                           	line	76
  5032                           	
  5033  0EE4                     l6131:	
  5034                           ;lcd.h: 76: lcd_add();
  5035  0EE4  120A  158A  24E6   	fcall	_lcd_add
              120A  158A         
  5036                           	line	77
  5037                           	
  5038  0EE9                     l6133:	
  5039                           ;lcd.h: 77: _delay(40000);
  5040                           	opt asmopt_off
  5041  0EE9  3034               movlw	52
  5042  0EEA  1283               	bcf	status, 5	;RP0=0, select bank0
  5043  0EEB  1303               	bcf	status, 6	;RP1=0, select bank0
  5044  0EEC  00A3               movwf	((??_lcd_init+0)+0+1),f
  5045  0EED  30F1               	movlw	241
  5046  0EEE  00A2               movwf	((??_lcd_init+0)+0),f
  5047  0EEF                     u6137:
  5048  0EEF  0BA2               	decfsz	((??_lcd_init+0)+0),f
  5049  0EF0  2EEF               	goto	u6137
  5050  0EF1  0BA3               	decfsz	((??_lcd_init+0)+0+1),f
  5051  0EF2  2EEF               	goto	u6137
  5052  0EF3  2EF4               	nop2
  5053                           opt asmopt_on
  5054                           
  5055                           	line	79
  5056                           	
  5057  0EF4                     l777:	
  5058  0EF4  0008               	return
  5059                           	opt stack 0
  5060                           GLOBAL	__end_of_lcd_init
  5061  0EF5                     	__end_of_lcd_init:
  5062 ;; =============== function _lcd_init ends ============
  5063                           
  5064                           	signat	_lcd_init,88
  5065                           	global	___lwdiv
  5066                           psect	text399,local,class=CODE,delta=2
  5067                           global __ptext399
  5068  0D34                     __ptext399:
  5069                           
  5070 ;; *************** function ___lwdiv *****************
  5071 ;; Defined at:
  5072 ;;		line 5 in file "C:\Program Files (x86)\HI-TECH Software\PICC\9.83\sources\lwdiv.c"
  5073 ;; Parameters:    Size  Location     Type
  5074 ;;  divisor         2    0[BANK0 ] unsigned int 
  5075 ;;  dividend        2    2[BANK0 ] unsigned int 
  5076 ;; Auto vars:     Size  Location     Type
  5077 ;;  quotient        2    5[BANK0 ] unsigned int 
  5078 ;;  counter         1    7[BANK0 ] unsigned char 
  5079 ;; Return value:  Size  Location     Type
  5080 ;;                  2    0[BANK0 ] unsigned int 
  5081 ;; Registers used:
  5082 ;;		wreg, status,2, status,0
  5083 ;; Tracked objects:
  5084 ;;		On entry : 0/0
  5085 ;;		On exit  : 0/0
  5086 ;;		Unchanged: 0/0
  5087 ;; Data sizes:     COMMON   BANK0   BANK1   BANK3   BANK2
  5088 ;;      Params:         0       4       0       0       0
  5089 ;;      Locals:         0       3       0       0       0
  5090 ;;      Temps:          0       1       0       0       0
  5091 ;;      Totals:         0       8       0       0       0
  5092 ;;Total ram usage:        8 bytes
  5093 ;; Hardware stack levels used:    1
  5094 ;; Hardware stack levels required when called:    3
  5095 ;; This function calls:
  5096 ;;		Nothing
  5097 ;; This function is called by:
  5098 ;;		_main
  5099 ;;		_printf
  5100 ;; This function uses a non-reentrant model
  5101 ;;
  5102                           psect	text399
  5103                           	file	"C:\Program Files (x86)\HI-TECH Software\PICC\9.83\sources\lwdiv.c"
  5104                           	line	5
  5105                           	global	__size_of___lwdiv
  5106  0050                     	__size_of___lwdiv	equ	__end_of___lwdiv-___lwdiv
  5107                           	
  5108  0D34                     ___lwdiv:	
  5109                           	opt	stack 4
  5110                           ; Regs used in ___lwdiv: [wreg+status,2+status,0]
  5111                           	line	9
  5112                           	
  5113  0D34                     l5917:	
  5114  0D34  1283               	bcf	status, 5	;RP0=0, select bank0
  5115  0D35  1303               	bcf	status, 6	;RP1=0, select bank0
  5116  0D36  01A5               	clrf	(___lwdiv@quotient)
  5117  0D37  01A6               	clrf	(___lwdiv@quotient+1)
  5118                           	line	10
  5119                           	
  5120  0D38                     l5919:	
  5121  0D38  0821               	movf	(___lwdiv@divisor+1),w
  5122  0D39  0420               	iorwf	(___lwdiv@divisor),w
  5123  0D3A  1903               	skipnz
  5124  0D3B  2D3D               	goto	u4421
  5125  0D3C  2D3E               	goto	u4420
  5126  0D3D                     u4421:
  5127  0D3D  2D7C               	goto	l5939
  5128  0D3E                     u4420:
  5129                           	line	11
  5130                           	
  5131  0D3E                     l5921:	
  5132  0D3E  01A7               	clrf	(___lwdiv@counter)
  5133  0D3F  1403               	bsf	status,0
  5134  0D40  0DA7               	rlf	(___lwdiv@counter),f
  5135                           	line	12
  5136  0D41  2D4E               	goto	l5927
  5137                           	
  5138  0D42                     l3055:	
  5139                           	line	13
  5140                           	
  5141  0D42                     l5923:	
  5142  0D42  3001               	movlw	01h
  5143                           	
  5144  0D43                     u4435:
  5145  0D43  1003               	clrc
  5146  0D44  0DA0               	rlf	(___lwdiv@divisor),f
  5147  0D45  0DA1               	rlf	(___lwdiv@divisor+1),f
  5148  0D46  3EFF               	addlw	-1
  5149  0D47  1D03               	skipz
  5150  0D48  2D43               	goto	u4435
  5151                           	line	14
  5152                           	
  5153  0D49                     l5925:	
  5154  0D49  3001               	movlw	(01h)
  5155  0D4A  00A4               	movwf	(??___lwdiv+0)+0
  5156  0D4B  0824               	movf	(??___lwdiv+0)+0,w
  5157  0D4C  07A7               	addwf	(___lwdiv@counter),f
  5158  0D4D  2D4E               	goto	l5927
  5159                           	line	15
  5160                           	
  5161  0D4E                     l3054:	
  5162                           	line	12
  5163                           	
  5164  0D4E                     l5927:	
  5165  0D4E  1FA1               	btfss	(___lwdiv@divisor+1),(15)&7
  5166  0D4F  2D51               	goto	u4441
  5167  0D50  2D52               	goto	u4440
  5168  0D51                     u4441:
  5169  0D51  2D42               	goto	l5923
  5170  0D52                     u4440:
  5171  0D52  2D54               	goto	l5929
  5172                           	
  5173  0D53                     l3056:	
  5174  0D53  2D54               	goto	l5929
  5175                           	line	16
  5176                           	
  5177  0D54                     l3057:	
  5178                           	line	17
  5179                           	
  5180  0D54                     l5929:	
  5181  0D54  3001               	movlw	01h
  5182                           	
  5183  0D55                     u4455:
  5184  0D55  1003               	clrc
  5185  0D56  0DA5               	rlf	(___lwdiv@quotient),f
  5186  0D57  0DA6               	rlf	(___lwdiv@quotient+1),f
  5187  0D58  3EFF               	addlw	-1
  5188  0D59  1D03               	skipz
  5189  0D5A  2D55               	goto	u4455
  5190                           	line	18
  5191  0D5B  0821               	movf	(___lwdiv@divisor+1),w
  5192  0D5C  0223               	subwf	(___lwdiv@dividend+1),w
  5193  0D5D  1D03               	skipz
  5194  0D5E  2D61               	goto	u4465
  5195  0D5F  0820               	movf	(___lwdiv@divisor),w
  5196  0D60  0222               	subwf	(___lwdiv@dividend),w
  5197  0D61                     u4465:
  5198  0D61  1C03               	skipc
  5199  0D62  2D64               	goto	u4461
  5200  0D63  2D65               	goto	u4460
  5201  0D64                     u4461:
  5202  0D64  2D6D               	goto	l5935
  5203  0D65                     u4460:
  5204                           	line	19
  5205                           	
  5206  0D65                     l5931:	
  5207  0D65  0820               	movf	(___lwdiv@divisor),w
  5208  0D66  02A2               	subwf	(___lwdiv@dividend),f
  5209  0D67  0821               	movf	(___lwdiv@divisor+1),w
  5210  0D68  1C03               	skipc
  5211  0D69  03A3               	decf	(___lwdiv@dividend+1),f
  5212  0D6A  02A3               	subwf	(___lwdiv@dividend+1),f
  5213                           	line	20
  5214                           	
  5215  0D6B                     l5933:	
  5216  0D6B  1425               	bsf	(___lwdiv@quotient)+(0/8),(0)&7
  5217  0D6C  2D6D               	goto	l5935
  5218                           	line	21
  5219                           	
  5220  0D6D                     l3058:	
  5221                           	line	22
  5222                           	
  5223  0D6D                     l5935:	
  5224  0D6D  3001               	movlw	01h
  5225                           	
  5226  0D6E                     u4475:
  5227  0D6E  1003               	clrc
  5228  0D6F  0CA1               	rrf	(___lwdiv@divisor+1),f
  5229  0D70  0CA0               	rrf	(___lwdiv@divisor),f
  5230  0D71  3EFF               	addlw	-1
  5231  0D72  1D03               	skipz
  5232  0D73  2D6E               	goto	u4475
  5233                           	line	23
  5234                           	
  5235  0D74                     l5937:	
  5236  0D74  3001               	movlw	low(01h)
  5237  0D75  02A7               	subwf	(___lwdiv@counter),f
  5238  0D76  1D03               	btfss	status,2
  5239  0D77  2D79               	goto	u4481
  5240  0D78  2D7A               	goto	u4480
  5241  0D79                     u4481:
  5242  0D79  2D54               	goto	l5929
  5243  0D7A                     u4480:
  5244  0D7A  2D7C               	goto	l5939
  5245                           	
  5246  0D7B                     l3059:	
  5247  0D7B  2D7C               	goto	l5939
  5248                           	line	24
  5249                           	
  5250  0D7C                     l3053:	
  5251                           	line	25
  5252                           	
  5253  0D7C                     l5939:	
  5254  0D7C  0826               	movf	(___lwdiv@quotient+1),w
  5255  0D7D  01A1               	clrf	(?___lwdiv+1)
  5256  0D7E  07A1               	addwf	(?___lwdiv+1)
  5257  0D7F  0825               	movf	(___lwdiv@quotient),w
  5258  0D80  01A0               	clrf	(?___lwdiv)
  5259  0D81  07A0               	addwf	(?___lwdiv)
  5260                           
  5261  0D82  2D83               	goto	l3060
  5262                           	
  5263  0D83                     l5941:	
  5264                           	line	26
  5265                           	
  5266  0D83                     l3060:	
  5267  0D83  0008               	return
  5268                           	opt stack 0
  5269                           GLOBAL	__end_of___lwdiv
  5270  0D84                     	__end_of___lwdiv:
  5271 ;; =============== function ___lwdiv ends ============
  5272                           
  5273                           	signat	___lwdiv,8314
  5274                           	global	_rs232_init
  5275                           psect	text400,local,class=CODE,delta=2
  5276                           global __ptext400
  5277  0BC5                     __ptext400:
  5278                           
  5279 ;; *************** function _rs232_init *****************
  5280 ;; Defined at:
  5281 ;;		line 74 in file "F:\ELECTRONIC\2015\Projects\New folder\init_sys.h"
  5282 ;; Parameters:    Size  Location     Type
  5283 ;;		None
  5284 ;; Auto vars:     Size  Location     Type
  5285 ;;		None
  5286 ;; Return value:  Size  Location     Type
  5287 ;;		None               void
  5288 ;; Registers used:
  5289 ;;		wreg
  5290 ;; Tracked objects:
  5291 ;;		On entry : 0/0
  5292 ;;		On exit  : 0/0
  5293 ;;		Unchanged: 0/0
  5294 ;; Data sizes:     COMMON   BANK0   BANK1   BANK3   BANK2
  5295 ;;      Params:         0       0       0       0       0
  5296 ;;      Locals:         0       0       0       0       0
  5297 ;;      Temps:          0       0       0       0       0
  5298 ;;      Totals:         0       0       0       0       0
  5299 ;;Total ram usage:        0 bytes
  5300 ;; Hardware stack levels used:    1
  5301 ;; Hardware stack levels required when called:    3
  5302 ;; This function calls:
  5303 ;;		Nothing
  5304 ;; This function is called by:
  5305 ;;		_main
  5306 ;; This function uses a non-reentrant model
  5307 ;;
  5308                           psect	text400
  5309                           	file	"F:\ELECTRONIC\2015\Projects\New folder\init_sys.h"
  5310                           	line	74
  5311                           	global	__size_of_rs232_init
  5312  0016                     	__size_of_rs232_init	equ	__end_of_rs232_init-_rs232_init
  5313                           	
  5314  0BC5                     _rs232_init:	
  5315                           	opt	stack 4
  5316                           ; Regs used in _rs232_init: [wreg]
  5317                           	line	78
  5318                           	
  5319  0BC5                     l5573:	
  5320                           ;init_sys.h: 78: TRISC=0x80;
  5321  0BC5  3080               	movlw	(080h)
  5322  0BC6  1683               	bsf	status, 5	;RP0=1, select bank1
  5323  0BC7  1303               	bcf	status, 6	;RP1=0, select bank1
  5324  0BC8  0087               	movwf	(135)^080h	;volatile
  5325                           	line	80
  5326                           ;init_sys.h: 80: SPBRG=25;
  5327  0BC9  3019               	movlw	(019h)
  5328  0BCA  0099               	movwf	(153)^080h	;volatile
  5329                           	line	81
  5330                           	
  5331  0BCB                     l5575:	
  5332                           ;init_sys.h: 81: SPEN = 1;
  5333  0BCB  1283               	bcf	status, 5	;RP0=0, select bank0
  5334  0BCC  1303               	bcf	status, 6	;RP1=0, select bank0
  5335  0BCD  1798               	bsf	(199/8),(199)&7
  5336                           	line	82
  5337                           	
  5338  0BCE                     l5577:	
  5339                           ;init_sys.h: 82: RX9 = 0;
  5340  0BCE  1318               	bcf	(198/8),(198)&7
  5341                           	line	83
  5342                           	
  5343  0BCF                     l5579:	
  5344                           ;init_sys.h: 83: CREN = 1;
  5345  0BCF  1618               	bsf	(196/8),(196)&7
  5346                           	line	84
  5347                           	
  5348  0BD0                     l5581:	
  5349                           ;init_sys.h: 84: TX9 = 0;
  5350  0BD0  1683               	bsf	status, 5	;RP0=1, select bank1
  5351  0BD1  1303               	bcf	status, 6	;RP1=0, select bank1
  5352  0BD2  1318               	bcf	(1222/8)^080h,(1222)&7
  5353                           	line	85
  5354                           	
  5355  0BD3                     l5583:	
  5356                           ;init_sys.h: 85: TXEN = 1;
  5357  0BD3  1698               	bsf	(1221/8)^080h,(1221)&7
  5358                           	line	86
  5359                           	
  5360  0BD4                     l5585:	
  5361                           ;init_sys.h: 86: SYNC = 0;
  5362  0BD4  1218               	bcf	(1220/8)^080h,(1220)&7
  5363                           	line	87
  5364                           	
  5365  0BD5                     l5587:	
  5366                           ;init_sys.h: 87: BRGH = 1;
  5367  0BD5  1518               	bsf	(1218/8)^080h,(1218)&7
  5368                           	line	88
  5369                           ;init_sys.h: 88: SPBRG = 25;
  5370  0BD6  3019               	movlw	(019h)
  5371  0BD7  0099               	movwf	(153)^080h	;volatile
  5372                           	line	89
  5373                           	
  5374  0BD8                     l5589:	
  5375                           ;init_sys.h: 89: RCIE = 1;
  5376  0BD8  168C               	bsf	(1125/8)^080h,(1125)&7
  5377                           	line	90
  5378                           	
  5379  0BD9                     l5591:	
  5380                           ;init_sys.h: 90: TXIE = 0;
  5381  0BD9  120C               	bcf	(1124/8)^080h,(1124)&7
  5382                           	line	93
  5383                           	
  5384  0BDA                     l814:	
  5385  0BDA  0008               	return
  5386                           	opt stack 0
  5387                           GLOBAL	__end_of_rs232_init
  5388  0BDB                     	__end_of_rs232_init:
  5389 ;; =============== function _rs232_init ends ============
  5390                           
  5391                           	signat	_rs232_init,88
  5392                           	global	_atod_init
  5393                           psect	text401,local,class=CODE,delta=2
  5394                           global __ptext401
  5395  0BA7                     __ptext401:
  5396                           
  5397 ;; *************** function _atod_init *****************
  5398 ;; Defined at:
  5399 ;;		line 29 in file "F:\ELECTRONIC\2015\Projects\New folder\init_sys.h"
  5400 ;; Parameters:    Size  Location     Type
  5401 ;;		None
  5402 ;; Auto vars:     Size  Location     Type
  5403 ;;		None
  5404 ;; Return value:  Size  Location     Type
  5405 ;;		None               void
  5406 ;; Registers used:
  5407 ;;		wreg
  5408 ;; Tracked objects:
  5409 ;;		On entry : 0/0
  5410 ;;		On exit  : 0/0
  5411 ;;		Unchanged: 0/0
  5412 ;; Data sizes:     COMMON   BANK0   BANK1   BANK3   BANK2
  5413 ;;      Params:         0       0       0       0       0
  5414 ;;      Locals:         0       0       0       0       0
  5415 ;;      Temps:          0       0       0       0       0
  5416 ;;      Totals:         0       0       0       0       0
  5417 ;;Total ram usage:        0 bytes
  5418 ;; Hardware stack levels used:    1
  5419 ;; Hardware stack levels required when called:    3
  5420 ;; This function calls:
  5421 ;;		Nothing
  5422 ;; This function is called by:
  5423 ;;		_main
  5424 ;; This function uses a non-reentrant model
  5425 ;;
  5426                           psect	text401
  5427                           	file	"F:\ELECTRONIC\2015\Projects\New folder\init_sys.h"
  5428                           	line	29
  5429                           	global	__size_of_atod_init
  5430  0009                     	__size_of_atod_init	equ	__end_of_atod_init-_atod_init
  5431                           	
  5432  0BA7                     _atod_init:	
  5433                           	opt	stack 4
  5434                           ; Regs used in _atod_init: [wreg]
  5435                           	line	30
  5436                           	
  5437  0BA7                     l5571:	
  5438                           ;init_sys.h: 30: ADCON0 = 0b01000000;
  5439  0BA7  3040               	movlw	(040h)
  5440  0BA8  1283               	bcf	status, 5	;RP0=0, select bank0
  5441  0BA9  1303               	bcf	status, 6	;RP1=0, select bank0
  5442  0BAA  009F               	movwf	(31)	;volatile
  5443                           	line	31
  5444                           ;init_sys.h: 31: ADCON1 = 0b10000100;
  5445  0BAB  3084               	movlw	(084h)
  5446  0BAC  1683               	bsf	status, 5	;RP0=1, select bank1
  5447  0BAD  1303               	bcf	status, 6	;RP1=0, select bank1
  5448  0BAE  009F               	movwf	(159)^080h	;volatile
  5449                           	line	32
  5450                           	
  5451  0BAF                     l802:	
  5452  0BAF  0008               	return
  5453                           	opt stack 0
  5454                           GLOBAL	__end_of_atod_init
  5455  0BB0                     	__end_of_atod_init:
  5456 ;; =============== function _atod_init ends ============
  5457                           
  5458                           	signat	_atod_init,88
  5459                           	global	_init_sys
  5460                           psect	text402,local,class=CODE,delta=2
  5461                           global __ptext402
  5462  0BB0                     __ptext402:
  5463                           
  5464 ;; *************** function _init_sys *****************
  5465 ;; Defined at:
  5466 ;;		line 12 in file "F:\ELECTRONIC\2015\Projects\New folder\init_sys.h"
  5467 ;; Parameters:    Size  Location     Type
  5468 ;;		None
  5469 ;; Auto vars:     Size  Location     Type
  5470 ;;		None
  5471 ;; Return value:  Size  Location     Type
  5472 ;;		None               void
  5473 ;; Registers used:
  5474 ;;		wreg, status,2
  5475 ;; Tracked objects:
  5476 ;;		On entry : 0/0
  5477 ;;		On exit  : 0/0
  5478 ;;		Unchanged: 0/0
  5479 ;; Data sizes:     COMMON   BANK0   BANK1   BANK3   BANK2
  5480 ;;      Params:         0       0       0       0       0
  5481 ;;      Locals:         0       0       0       0       0
  5482 ;;      Temps:          0       0       0       0       0
  5483 ;;      Totals:         0       0       0       0       0
  5484 ;;Total ram usage:        0 bytes
  5485 ;; Hardware stack levels used:    1
  5486 ;; Hardware stack levels required when called:    3
  5487 ;; This function calls:
  5488 ;;		Nothing
  5489 ;; This function is called by:
  5490 ;;		_main
  5491 ;; This function uses a non-reentrant model
  5492 ;;
  5493                           psect	text402
  5494                           	file	"F:\ELECTRONIC\2015\Projects\New folder\init_sys.h"
  5495                           	line	12
  5496                           	global	__size_of_init_sys
  5497  0015                     	__size_of_init_sys	equ	__end_of_init_sys-_init_sys
  5498                           	
  5499  0BB0                     _init_sys:	
  5500                           	opt	stack 4
  5501                           ; Regs used in _init_sys: [wreg+status,2]
  5502                           	line	13
  5503                           	
  5504  0BB0                     l5561:	
  5505                           ;init_sys.h: 13: TRISA = 0b11111111;
  5506  0BB0  30FF               	movlw	(0FFh)
  5507  0BB1  1683               	bsf	status, 5	;RP0=1, select bank1
  5508  0BB2  1303               	bcf	status, 6	;RP1=0, select bank1
  5509  0BB3  0085               	movwf	(133)^080h	;volatile
  5510                           	line	14
  5511                           	
  5512  0BB4                     l5563:	
  5513                           ;init_sys.h: 14: PORTA = 0b00000000;
  5514  0BB4  1283               	bcf	status, 5	;RP0=0, select bank0
  5515  0BB5  1303               	bcf	status, 6	;RP1=0, select bank0
  5516  0BB6  0185               	clrf	(5)	;volatile
  5517                           	line	16
  5518                           	
  5519  0BB7                     l5565:	
  5520                           ;init_sys.h: 16: TRISB = 0b00000000;
  5521  0BB7  1683               	bsf	status, 5	;RP0=1, select bank1
  5522  0BB8  1303               	bcf	status, 6	;RP1=0, select bank1
  5523  0BB9  0186               	clrf	(134)^080h	;volatile
  5524                           	line	17
  5525                           	
  5526  0BBA                     l5567:	
  5527                           ;init_sys.h: 17: PORTB = 0b00000000;
  5528  0BBA  1283               	bcf	status, 5	;RP0=0, select bank0
  5529  0BBB  1303               	bcf	status, 6	;RP1=0, select bank0
  5530  0BBC  0186               	clrf	(6)	;volatile
  5531                           	line	19
  5532                           	
  5533  0BBD                     l5569:	
  5534                           ;init_sys.h: 19: TRISC = 0b10000000;
  5535  0BBD  3080               	movlw	(080h)
  5536  0BBE  1683               	bsf	status, 5	;RP0=1, select bank1
  5537  0BBF  1303               	bcf	status, 6	;RP1=0, select bank1
  5538  0BC0  0087               	movwf	(135)^080h	;volatile
  5539                           	line	20
  5540                           ;init_sys.h: 20: PORTC = 0b00000000;
  5541  0BC1  1283               	bcf	status, 5	;RP0=0, select bank0
  5542  0BC2  1303               	bcf	status, 6	;RP1=0, select bank0
  5543  0BC3  0187               	clrf	(7)	;volatile
  5544                           	line	21
  5545                           	
  5546  0BC4                     l799:	
  5547  0BC4  0008               	return
  5548                           	opt stack 0
  5549                           GLOBAL	__end_of_init_sys
  5550  0BC5                     	__end_of_init_sys:
  5551 ;; =============== function _init_sys ends ============
  5552                           
  5553                           	signat	_init_sys,88
  5554                           	global	_lcd_add
  5555                           psect	text403,local,class=CODE,delta=2
  5556                           global __ptext403
  5557  0CE6                     __ptext403:
  5558                           
  5559 ;; *************** function _lcd_add *****************
  5560 ;; Defined at:
  5561 ;;		line 93 in file "F:\ELECTRONIC\2015\Projects\New folder\lcd.h"
  5562 ;; Parameters:    Size  Location     Type
  5563 ;;		None
  5564 ;; Auto vars:     Size  Location     Type
  5565 ;;		None
  5566 ;; Return value:  Size  Location     Type
  5567 ;;		None               void
  5568 ;; Registers used:
  5569 ;;		wreg, status,2, status,0
  5570 ;; Tracked objects:
  5571 ;;		On entry : 0/0
  5572 ;;		On exit  : 0/0
  5573 ;;		Unchanged: 0/0
  5574 ;; Data sizes:     COMMON   BANK0   BANK1   BANK3   BANK2
  5575 ;;      Params:         0       0       0       0       0
  5576 ;;      Locals:         0       0       0       0       0
  5577 ;;      Temps:          0       2       0       0       0
  5578 ;;      Totals:         0       2       0       0       0
  5579 ;;Total ram usage:        2 bytes
  5580 ;; Hardware stack levels used:    1
  5581 ;; Hardware stack levels required when called:    3
  5582 ;; This function calls:
  5583 ;;		Nothing
  5584 ;; This function is called by:
  5585 ;;		_lcd_init
  5586 ;;		_putch
  5587 ;;		_clr_display
  5588 ;;		_curser
  5589 ;;		_position
  5590 ;; This function uses a non-reentrant model
  5591 ;;
  5592                           psect	text403
  5593                           	file	"F:\ELECTRONIC\2015\Projects\New folder\lcd.h"
  5594                           	line	93
  5595                           	global	__size_of_lcd_add
  5596  004E                     	__size_of_lcd_add	equ	__end_of_lcd_add-_lcd_add
  5597                           	
  5598  0CE6                     _lcd_add:	
  5599                           	opt	stack 3
  5600                           ; Regs used in _lcd_add: [wreg+status,2+status,0]
  5601                           	line	95
  5602                           	
  5603  0CE6                     l5493:	
  5604                           ;lcd.h: 95: lcd_data_high = lcd_data >> 4;
  5605  0CE6  1683               	bsf	status, 5	;RP0=1, select bank1
  5606  0CE7  1303               	bcf	status, 6	;RP1=0, select bank1
  5607  0CE8  0863               	movf	(_lcd_data)^080h,w
  5608  0CE9  1283               	bcf	status, 5	;RP0=0, select bank0
  5609  0CEA  1303               	bcf	status, 6	;RP1=0, select bank0
  5610  0CEB  00A0               	movwf	(??_lcd_add+0)+0
  5611  0CEC  3004               	movlw	04h
  5612  0CED                     u3625:
  5613  0CED  1003               	clrc
  5614  0CEE  0CA0               	rrf	(??_lcd_add+0)+0,f
  5615  0CEF  3EFF               	addlw	-1
  5616  0CF0  1D03               	skipz
  5617  0CF1  2CED               	goto	u3625
  5618  0CF2  0820               	movf	0+(??_lcd_add+0)+0,w
  5619  0CF3  00A1               	movwf	(??_lcd_add+1)+0
  5620  0CF4  0821               	movf	(??_lcd_add+1)+0,w
  5621  0CF5  1683               	bsf	status, 5	;RP0=1, select bank1
  5622  0CF6  1303               	bcf	status, 6	;RP1=0, select bank1
  5623  0CF7  00E4               	movwf	(_lcd_data_high)^080h
  5624                           	line	96
  5625                           ;lcd.h: 96: lcd_data_low = lcd_data << 4;
  5626  0CF8  0863               	movf	(_lcd_data)^080h,w
  5627  0CF9  1283               	bcf	status, 5	;RP0=0, select bank0
  5628  0CFA  1303               	bcf	status, 6	;RP1=0, select bank0
  5629  0CFB  00A0               	movwf	(??_lcd_add+0)+0
  5630  0CFC  3003               	movlw	(04h)-1
  5631  0CFD                     u3635:
  5632  0CFD  1003               	clrc
  5633  0CFE  0DA0               	rlf	(??_lcd_add+0)+0,f
  5634  0CFF  3EFF               	addlw	-1
  5635  0D00  1D03               	skipz
  5636  0D01  2CFD               	goto	u3635
  5637  0D02  1003               	clrc
  5638  0D03  0D20               	rlf	(??_lcd_add+0)+0,w
  5639  0D04  00A1               	movwf	(??_lcd_add+1)+0
  5640  0D05  0821               	movf	(??_lcd_add+1)+0,w
  5641  0D06  1683               	bsf	status, 5	;RP0=1, select bank1
  5642  0D07  1303               	bcf	status, 6	;RP1=0, select bank1
  5643  0D08  00E5               	movwf	(_lcd_data_low)^080h
  5644                           	line	97
  5645                           ;lcd.h: 97: lcd_data_low = lcd_data_low >> 4;
  5646  0D09  0865               	movf	(_lcd_data_low)^080h,w
  5647  0D0A  1283               	bcf	status, 5	;RP0=0, select bank0
  5648  0D0B  1303               	bcf	status, 6	;RP1=0, select bank0
  5649  0D0C  00A0               	movwf	(??_lcd_add+0)+0
  5650  0D0D  3004               	movlw	04h
  5651  0D0E                     u3645:
  5652  0D0E  1003               	clrc
  5653  0D0F  0CA0               	rrf	(??_lcd_add+0)+0,f
  5654  0D10  3EFF               	addlw	-1
  5655  0D11  1D03               	skipz
  5656  0D12  2D0E               	goto	u3645
  5657  0D13  0820               	movf	0+(??_lcd_add+0)+0,w
  5658  0D14  00A1               	movwf	(??_lcd_add+1)+0
  5659  0D15  0821               	movf	(??_lcd_add+1)+0,w
  5660  0D16  1683               	bsf	status, 5	;RP0=1, select bank1
  5661  0D17  1303               	bcf	status, 6	;RP1=0, select bank1
  5662  0D18  00E5               	movwf	(_lcd_data_low)^080h
  5663                           	line	98
  5664                           	
  5665  0D19                     l5495:	
  5666                           ;lcd.h: 98: PORTB = PORTB & 0b11110000;
  5667  0D19  1283               	bcf	status, 5	;RP0=0, select bank0
  5668  0D1A  1303               	bcf	status, 6	;RP1=0, select bank0
  5669  0D1B  0806               	movf	(6),w
  5670  0D1C  39F0               	andlw	0F0h
  5671  0D1D  0086               	movwf	(6)	;volatile
  5672                           	line	99
  5673                           	
  5674  0D1E                     l5497:	
  5675                           ;lcd.h: 99: PORTB = lcd_data_high | PORTB;
  5676  0D1E  1683               	bsf	status, 5	;RP0=1, select bank1
  5677  0D1F  1303               	bcf	status, 6	;RP1=0, select bank1
  5678  0D20  0864               	movf	(_lcd_data_high)^080h,w
  5679  0D21  1283               	bcf	status, 5	;RP0=0, select bank0
  5680  0D22  1303               	bcf	status, 6	;RP1=0, select bank0
  5681  0D23  0406               	iorwf	(6),w	;volatile
  5682  0D24  0086               	movwf	(6)	;volatile
  5683                           	line	100
  5684                           	
  5685  0D25                     l5499:	
  5686                           ;lcd.h: 100: RB5 = 1;
  5687  0D25  1686               	bsf	(53/8),(53)&7
  5688                           	line	101
  5689                           	
  5690  0D26                     l5501:	
  5691                           ;lcd.h: 101: RB5 = 0;
  5692  0D26  1286               	bcf	(53/8),(53)&7
  5693                           	line	102
  5694                           ;lcd.h: 102: PORTB = PORTB & 0b11110000;
  5695  0D27  0806               	movf	(6),w
  5696  0D28  39F0               	andlw	0F0h
  5697  0D29  0086               	movwf	(6)	;volatile
  5698                           	line	103
  5699                           	
  5700  0D2A                     l5503:	
  5701                           ;lcd.h: 103: PORTB = lcd_data_low | PORTB;
  5702  0D2A  1683               	bsf	status, 5	;RP0=1, select bank1
  5703  0D2B  1303               	bcf	status, 6	;RP1=0, select bank1
  5704  0D2C  0865               	movf	(_lcd_data_low)^080h,w
  5705  0D2D  1283               	bcf	status, 5	;RP0=0, select bank0
  5706  0D2E  1303               	bcf	status, 6	;RP1=0, select bank0
  5707  0D2F  0406               	iorwf	(6),w	;volatile
  5708  0D30  0086               	movwf	(6)	;volatile
  5709                           	line	104
  5710                           	
  5711  0D31                     l5505:	
  5712                           ;lcd.h: 104: RB5 = 1;
  5713  0D31  1686               	bsf	(53/8),(53)&7
  5714                           	line	105
  5715                           	
  5716  0D32                     l5507:	
  5717                           ;lcd.h: 105: RB5 = 0;
  5718  0D32  1286               	bcf	(53/8),(53)&7
  5719                           	line	107
  5720                           	
  5721  0D33                     l783:	
  5722  0D33  0008               	return
  5723                           	opt stack 0
  5724                           GLOBAL	__end_of_lcd_add
  5725  0D34                     	__end_of_lcd_add:
  5726 ;; =============== function _lcd_add ends ============
  5727                           
  5728                           	signat	_lcd_add,88
  5729                           	global	_isr
  5730                           psect	text404,local,class=CODE,delta=2
  5731                           global __ptext404
  5732  0D84                     __ptext404:
  5733                           
  5734 ;; *************** function _isr *****************
  5735 ;; Defined at:
  5736 ;;		line 388 in file "F:\ELECTRONIC\2015\Projects\New folder\test.c"
  5737 ;; Parameters:    Size  Location     Type
  5738 ;;		None
  5739 ;; Auto vars:     Size  Location     Type
  5740 ;;		None
  5741 ;; Return value:  Size  Location     Type
  5742 ;;		None               void
  5743 ;; Registers used:
  5744 ;;		wreg, fsr0l, fsr0h, fsr1l, fsr1h, status,2, status,0, btemp+1, pclath, cstack
  5745 ;; Tracked objects:
  5746 ;;		On entry : 0/0
  5747 ;;		On exit  : 0/0
  5748 ;;		Unchanged: 0/0
  5749 ;; Data sizes:     COMMON   BANK0   BANK1   BANK3   BANK2
  5750 ;;      Params:         0       0       0       0       0
  5751 ;;      Locals:         0       0       0       0       0
  5752 ;;      Temps:          5       0       0       0       0
  5753 ;;      Totals:         5       0       0       0       0
  5754 ;;Total ram usage:        5 bytes
  5755 ;; Hardware stack levels used:    1
  5756 ;; Hardware stack levels required when called:    2
  5757 ;; This function calls:
  5758 ;;		___lwmod
  5759 ;;		_eeprom_temp
  5760 ;;		_nop
  5761 ;; This function is called by:
  5762 ;;		Interrupt level 1
  5763 ;; This function uses a non-reentrant model
  5764 ;;
  5765                           psect	text404
  5766                           	file	"F:\ELECTRONIC\2015\Projects\New folder\test.c"
  5767                           	line	388
  5768                           	global	__size_of_isr
  5769  00B2                     	__size_of_isr	equ	__end_of_isr-_isr
  5770                           	
  5771  0D84                     _isr:	
  5772                           	opt	stack 3
  5773                           ; Regs used in _isr: [allreg]
  5774                           psect	intentry,class=CODE,delta=2
  5775                           global __pintentry
  5776  0004                     __pintentry:
  5777                           global interrupt_function
  5778  0004                     interrupt_function:
  5779                           	global saved_w
  5780  007E                     	saved_w	set	btemp+0
  5781  0004  00FE               	movwf	saved_w
  5782  0005  0E03               	swapf	status,w
  5783  0006  00F8               	movwf	(??_isr+1)
  5784  0007  0804               	movf	fsr0,w
  5785  0008  00F9               	movwf	(??_isr+2)
  5786  0009  080A               	movf	pclath,w
  5787  000A  00FA               	movwf	(??_isr+3)
  5788  000B  1283               	bcf	status, 5	;RP0=0, select bank0
  5789  000C  1303               	bcf	status, 6	;RP1=0, select bank0
  5790  000D  087F               	movf	btemp+1,w
  5791  000E  00FB               	movwf	(??_isr+4)
  5792  000F  120A  158A  2D84   	ljmp	_isr
  5793                           psect	text404
  5794                           	line	390
  5795                           	
  5796  0D84                     i1l5597:	
  5797                           ;test.c: 390: if(TMR1IF==1)
  5798  0D84  1C0C               	btfss	(96/8),(96)&7
  5799  0D85  2D87               	goto	u372_21
  5800  0D86  2D88               	goto	u372_20
  5801  0D87                     u372_21:
  5802  0D87  2DF0               	goto	i1l5629
  5803  0D88                     u372_20:
  5804                           	line	392
  5805                           	
  5806  0D88                     i1l5599:	
  5807                           ;test.c: 391: {
  5808                           ;test.c: 392: msecond ++;
  5809  0D88  3001               	movlw	low(01h)
  5810  0D89  1683               	bsf	status, 5	;RP0=1, select bank1
  5811  0D8A  1303               	bcf	status, 6	;RP1=0, select bank1
  5812  0D8B  07C0               	addwf	(_msecond)^080h,f
  5813  0D8C  1803               	skipnc
  5814  0D8D  0AC1               	incf	(_msecond+1)^080h,f
  5815  0D8E  3000               	movlw	high(01h)
  5816  0D8F  07C1               	addwf	(_msecond+1)^080h,f
  5817                           	line	393
  5818                           ;test.c: 393: if(msecond == 10)
  5819  0D90  300A               	movlw	0Ah
  5820  0D91  0640               	xorwf	(_msecond)^080h,w
  5821  0D92  0441               	iorwf	(_msecond+1)^080h,w
  5822  0D93  1D03               	skipz
  5823  0D94  2D96               	goto	u373_21
  5824  0D95  2D97               	goto	u373_20
  5825  0D96                     u373_21:
  5826  0D96  2DE8               	goto	i1l977
  5827  0D97                     u373_20:
  5828                           	line	395
  5829                           	
  5830  0D97                     i1l5601:	
  5831                           ;test.c: 394: {
  5832                           ;test.c: 395: second ++;
  5833  0D97  3001               	movlw	low(01h)
  5834  0D98  07C2               	addwf	(_second)^080h,f
  5835  0D99  1803               	skipnc
  5836  0D9A  0AC3               	incf	(_second+1)^080h,f
  5837  0D9B  3000               	movlw	high(01h)
  5838  0D9C  07C3               	addwf	(_second+1)^080h,f
  5839                           	line	396
  5840                           	
  5841  0D9D                     i1l5603:	
  5842                           ;test.c: 396: msecond = 0;
  5843  0D9D  01C0               	clrf	(_msecond)^080h
  5844  0D9E  01C1               	clrf	(_msecond+1)^080h
  5845                           	line	397
  5846                           	
  5847  0D9F                     i1l5605:	
  5848                           ;test.c: 397: if( second == 60)
  5849  0D9F  303C               	movlw	03Ch
  5850  0DA0  0642               	xorwf	(_second)^080h,w
  5851  0DA1  0443               	iorwf	(_second+1)^080h,w
  5852  0DA2  1D03               	skipz
  5853  0DA3  2DA5               	goto	u374_21
  5854  0DA4  2DA6               	goto	u374_20
  5855  0DA5                     u374_21:
  5856  0DA5  2DE8               	goto	i1l977
  5857  0DA6                     u374_20:
  5858                           	line	399
  5859                           	
  5860  0DA6                     i1l5607:	
  5861                           ;test.c: 398: {
  5862                           ;test.c: 399: minute ++;
  5863  0DA6  3001               	movlw	low(01h)
  5864  0DA7  07BE               	addwf	(_minute)^080h,f
  5865  0DA8  1803               	skipnc
  5866  0DA9  0ABF               	incf	(_minute+1)^080h,f
  5867  0DAA  3000               	movlw	high(01h)
  5868  0DAB  07BF               	addwf	(_minute+1)^080h,f
  5869                           	line	401
  5870                           	
  5871  0DAC                     i1l5609:	
  5872                           ;test.c: 401: second = 0;
  5873  0DAC  01C2               	clrf	(_second)^080h
  5874  0DAD  01C3               	clrf	(_second+1)^080h
  5875                           	line	406
  5876                           	
  5877  0DAE                     i1l5611:	
  5878                           ;test.c: 406: x = minute%30 ;
  5879  0DAE  301E               	movlw	low(01Eh)
  5880  0DAF  00F1               	movwf	(?___lwmod)
  5881  0DB0  3000               	movlw	high(01Eh)
  5882  0DB1  00F2               	movwf	((?___lwmod))+1
  5883  0DB2  083F               	movf	(_minute+1)^080h,w
  5884  0DB3  01F4               	clrf	1+(?___lwmod)+02h
  5885  0DB4  07F4               	addwf	1+(?___lwmod)+02h
  5886  0DB5  083E               	movf	(_minute)^080h,w
  5887  0DB6  01F3               	clrf	0+(?___lwmod)+02h
  5888  0DB7  07F3               	addwf	0+(?___lwmod)+02h
  5889                           
  5890  0DB8  120A  158A  245C   	fcall	___lwmod
              120A  158A         
  5891  0DBD  0871               	movf	(0+(?___lwmod)),w
  5892  0DBE  00F7               	movwf	(??_isr+0)+0
  5893  0DBF  0877               	movf	(??_isr+0)+0,w
  5894  0DC0  1683               	bsf	status, 5	;RP0=1, select bank1
  5895  0DC1  1303               	bcf	status, 6	;RP1=0, select bank1
  5896  0DC2  00E0               	movwf	(_x)^080h
  5897                           	line	407
  5898                           	
  5899  0DC3                     i1l5613:	
  5900                           ;test.c: 407: if ( x == 0)
  5901  0DC3  08E0               	movf	(_x)^080h,f
  5902  0DC4  1D03               	skipz
  5903  0DC5  2DC7               	goto	u375_21
  5904  0DC6  2DC8               	goto	u375_20
  5905  0DC7                     u375_21:
  5906  0DC7  2DD3               	goto	i1l5619
  5907  0DC8                     u375_20:
  5908                           	line	409
  5909                           	
  5910  0DC8                     i1l5615:	
  5911                           ;test.c: 408: {
  5912                           ;test.c: 409: eeprom_temp();
  5913  0DC8  120A  158A  2400   	fcall	_eeprom_temp
              120A  158A         
  5914                           	line	410
  5915                           	
  5916  0DCD                     i1l5617:	
  5917                           ;test.c: 410: nop();
  5918  0DCD  120A  158A  23A3   	fcall	_nop
              120A  158A         
  5919  0DD2  2DD3               	goto	i1l5619
  5920                           	line	411
  5921                           	
  5922  0DD3                     i1l979:	
  5923                           	line	415
  5924                           	
  5925  0DD3                     i1l5619:	
  5926                           ;test.c: 411: }
  5927                           ;test.c: 415: if( minute == 60)
  5928  0DD3  303C               	movlw	03Ch
  5929  0DD4  1683               	bsf	status, 5	;RP0=1, select bank1
  5930  0DD5  1303               	bcf	status, 6	;RP1=0, select bank1
  5931  0DD6  063E               	xorwf	(_minute)^080h,w
  5932  0DD7  043F               	iorwf	(_minute+1)^080h,w
  5933  0DD8  1D03               	skipz
  5934  0DD9  2DDB               	goto	u376_21
  5935  0DDA  2DDC               	goto	u376_20
  5936  0DDB                     u376_21:
  5937  0DDB  2DE8               	goto	i1l977
  5938  0DDC                     u376_20:
  5939                           	line	417
  5940                           	
  5941  0DDC                     i1l5621:	
  5942                           ;test.c: 416: {
  5943                           ;test.c: 417: minute = 0;
  5944  0DDC  01BE               	clrf	(_minute)^080h
  5945  0DDD  01BF               	clrf	(_minute+1)^080h
  5946                           	line	418
  5947                           	
  5948  0DDE                     i1l5623:	
  5949                           ;test.c: 418: hour ++;
  5950  0DDE  3001               	movlw	low(01h)
  5951  0DDF  07BC               	addwf	(_hour)^080h,f
  5952  0DE0  1803               	skipnc
  5953  0DE1  0ABD               	incf	(_hour+1)^080h,f
  5954  0DE2  3000               	movlw	high(01h)
  5955  0DE3  07BD               	addwf	(_hour+1)^080h,f
  5956  0DE4  2DE8               	goto	i1l977
  5957                           	line	419
  5958                           	
  5959  0DE5                     i1l5625:	
  5960  0DE5  2DE8               	goto	i1l977
  5961                           	
  5962  0DE6                     i1l981:	
  5963  0DE6  2DE8               	goto	i1l977
  5964                           	line	420
  5965                           	
  5966  0DE7                     i1l980:	
  5967  0DE7  2DE8               	goto	i1l977
  5968                           	line	421
  5969                           	
  5970  0DE8                     i1l978:	
  5971                           	line	422
  5972                           	
  5973  0DE8                     i1l977:	
  5974                           	line	426
  5975                           ;test.c: 420: }
  5976                           ;test.c: 421: }
  5977                           ;test.c: 422: }
  5978                           ;test.c: 426: TMR1IF = 0;
  5979  0DE8  1283               	bcf	status, 5	;RP0=0, select bank0
  5980  0DE9  1303               	bcf	status, 6	;RP1=0, select bank0
  5981  0DEA  100C               	bcf	(96/8),(96)&7
  5982                           	line	427
  5983                           	
  5984  0DEB                     i1l5627:	
  5985                           ;test.c: 427: TMR1L = 0xB0;
  5986  0DEB  30B0               	movlw	(0B0h)
  5987  0DEC  008E               	movwf	(14)	;volatile
  5988                           	line	428
  5989                           ;test.c: 428: TMR1H = 0x3C;
  5990  0DED  303C               	movlw	(03Ch)
  5991  0DEE  008F               	movwf	(15)	;volatile
  5992  0DEF  2DF0               	goto	i1l5629
  5993                           	line	432
  5994                           	
  5995  0DF0                     i1l976:	
  5996                           	line	434
  5997                           	
  5998  0DF0                     i1l5629:	
  5999                           ;test.c: 432: }
  6000                           ;test.c: 434: if( RCIF == 1)
  6001  0DF0  1E8C               	btfss	(101/8),(101)&7
  6002  0DF1  2DF3               	goto	u377_21
  6003  0DF2  2DF4               	goto	u377_20
  6004  0DF3                     u377_21:
  6005  0DF3  2E29               	goto	i1l987
  6006  0DF4                     u377_20:
  6007                           	line	436
  6008                           	
  6009  0DF4                     i1l5631:	
  6010                           ;test.c: 435: {
  6011                           ;test.c: 436: RCIF = 0;
  6012  0DF4  128C               	bcf	(101/8),(101)&7
  6013                           	line	437
  6014                           	
  6015  0DF5                     i1l5633:	
  6016                           ;test.c: 437: if( RCREG=='*' || j>8 )
  6017  0DF5  081A               	movf	(26),w	;volatile
  6018  0DF6  3A2A               	xorlw	02Ah
  6019  0DF7  1903               	skipnz
  6020  0DF8  2DFA               	goto	u378_21
  6021  0DF9  2DFB               	goto	u378_20
  6022  0DFA                     u378_21:
  6023  0DFA  2E03               	goto	i1l985
  6024  0DFB                     u378_20:
  6025                           	
  6026  0DFB                     i1l5635:	
  6027  0DFB  3009               	movlw	(09h)
  6028  0DFC  1683               	bsf	status, 5	;RP0=1, select bank1
  6029  0DFD  1303               	bcf	status, 6	;RP1=0, select bank1
  6030  0DFE  025C               	subwf	(_j)^080h,w
  6031  0DFF  1C03               	skipc
  6032  0E00  2E02               	goto	u379_21
  6033  0E01  2E03               	goto	u379_20
  6034  0E02                     u379_21:
  6035  0E02  2E07               	goto	i1l5637
  6036  0E03                     u379_20:
  6037                           	
  6038  0E03                     i1l985:	
  6039                           	line	439
  6040                           ;test.c: 438: {
  6041                           ;test.c: 439: j=0;
  6042  0E03  1683               	bsf	status, 5	;RP0=1, select bank1
  6043  0E04  1303               	bcf	status, 6	;RP1=0, select bank1
  6044  0E05  01DC               	clrf	(_j)^080h
  6045  0E06  2E07               	goto	i1l5637
  6046                           	line	440
  6047                           	
  6048  0E07                     i1l983:	
  6049                           	line	441
  6050                           	
  6051  0E07                     i1l5637:	
  6052                           ;test.c: 440: }
  6053                           ;test.c: 441: rc[j] = RCREG;
  6054  0E07  1283               	bcf	status, 5	;RP0=0, select bank0
  6055  0E08  1303               	bcf	status, 6	;RP1=0, select bank0
  6056  0E09  081A               	movf	(26),w	;volatile
  6057  0E0A  00F7               	movwf	(??_isr+0)+0
  6058  0E0B  1683               	bsf	status, 5	;RP0=1, select bank1
  6059  0E0C  1303               	bcf	status, 6	;RP1=0, select bank1
  6060  0E0D  085C               	movf	(_j)^080h,w
  6061  0E0E  3EAA               	addlw	_rc&0ffh
  6062  0E0F  0084               	movwf	fsr0
  6063  0E10  0877               	movf	(??_isr+0)+0,w
  6064  0E11  1383               	bcf	status, 7	;select IRP bank1
  6065  0E12  0080               	movwf	indf
  6066                           	line	442
  6067                           	
  6068  0E13                     i1l5639:	
  6069                           ;test.c: 442: j ++;
  6070  0E13  3001               	movlw	(01h)
  6071  0E14  00F7               	movwf	(??_isr+0)+0
  6072  0E15  0877               	movf	(??_isr+0)+0,w
  6073  0E16  07DC               	addwf	(_j)^080h,f
  6074                           	line	444
  6075                           	
  6076  0E17                     i1l5641:	
  6077                           ;test.c: 444: if( RCREG=='#' )
  6078  0E17  1283               	bcf	status, 5	;RP0=0, select bank0
  6079  0E18  1303               	bcf	status, 6	;RP1=0, select bank0
  6080  0E19  081A               	movf	(26),w	;volatile
  6081  0E1A  3A23               	xorlw	023h
  6082  0E1B  1D03               	skipz
  6083  0E1C  2E1E               	goto	u380_21
  6084  0E1D  2E1F               	goto	u380_20
  6085  0E1E                     u380_21:
  6086  0E1E  2E23               	goto	i1l5645
  6087  0E1F                     u380_20:
  6088                           	line	446
  6089                           	
  6090  0E1F                     i1l5643:	
  6091                           ;test.c: 445: {
  6092                           ;test.c: 446: j=0;
  6093  0E1F  1683               	bsf	status, 5	;RP0=1, select bank1
  6094  0E20  1303               	bcf	status, 6	;RP1=0, select bank1
  6095  0E21  01DC               	clrf	(_j)^080h
  6096  0E22  2E23               	goto	i1l5645
  6097                           	line	447
  6098                           	
  6099  0E23                     i1l986:	
  6100                           	line	449
  6101                           	
  6102  0E23                     i1l5645:	
  6103                           ;test.c: 447: }
  6104                           ;test.c: 449: nop();
  6105  0E23  120A  158A  23A3   	fcall	_nop
              120A  158A         
  6106  0E28  2E29               	goto	i1l987
  6107                           	line	451
  6108                           	
  6109  0E29                     i1l982:	
  6110                           	line	453
  6111                           	
  6112  0E29                     i1l987:	
  6113  0E29  087B               	movf	(??_isr+4),w
  6114  0E2A  1283               	bcf	status, 5	;RP0=0, select bank0
  6115  0E2B  1303               	bcf	status, 6	;RP1=0, select bank0
  6116  0E2C  00FF               	movwf	btemp+1
  6117  0E2D  087A               	movf	(??_isr+3),w
  6118  0E2E  008A               	movwf	pclath
  6119  0E2F  0879               	movf	(??_isr+2),w
  6120  0E30  0084               	movwf	fsr0
  6121  0E31  0E78               	swapf	(??_isr+1)^0FFFFFF80h,w
  6122  0E32  0083               	movwf	status
  6123  0E33  0EFE               	swapf	saved_w,f
  6124  0E34  0E7E               	swapf	saved_w,w
  6125  0E35  0009               	retfie
  6126                           	opt stack 0
  6127                           GLOBAL	__end_of_isr
  6128  0E36                     	__end_of_isr:
  6129 ;; =============== function _isr ends ============
  6130                           
  6131                           	signat	_isr,88
  6132                           	global	_eeprom_temp
  6133                           psect	text405,local,class=CODE,delta=2
  6134                           global __ptext405
  6135  0C00                     __ptext405:
  6136                           
  6137 ;; *************** function _eeprom_temp *****************
  6138 ;; Defined at:
  6139 ;;		line 459 in file "F:\ELECTRONIC\2015\Projects\New folder\test.c"
  6140 ;; Parameters:    Size  Location     Type
  6141 ;;		None
  6142 ;; Auto vars:     Size  Location     Type
  6143 ;;		None
  6144 ;; Return value:  Size  Location     Type
  6145 ;;		None               void
  6146 ;; Registers used:
  6147 ;;		wreg, status,2, status,0, pclath, cstack
  6148 ;; Tracked objects:
  6149 ;;		On entry : 0/0
  6150 ;;		On exit  : 0/0
  6151 ;;		Unchanged: 0/0
  6152 ;; Data sizes:     COMMON   BANK0   BANK1   BANK3   BANK2
  6153 ;;      Params:         0       0       0       0       0
  6154 ;;      Locals:         0       0       0       0       0
  6155 ;;      Temps:          1       0       0       0       0
  6156 ;;      Totals:         1       0       0       0       0
  6157 ;;Total ram usage:        1 bytes
  6158 ;; Hardware stack levels used:    1
  6159 ;; Hardware stack levels required when called:    1
  6160 ;; This function calls:
  6161 ;;		_eeprom_write
  6162 ;; This function is called by:
  6163 ;;		_isr
  6164 ;; This function uses a non-reentrant model
  6165 ;;
  6166                           psect	text405
  6167                           	file	"F:\ELECTRONIC\2015\Projects\New folder\test.c"
  6168                           	line	459
  6169                           	global	__size_of_eeprom_temp
  6170  002B                     	__size_of_eeprom_temp	equ	__end_of_eeprom_temp-_eeprom_temp
  6171                           	
  6172  0C00                     _eeprom_temp:	
  6173                           	opt	stack 3
  6174                           ; Regs used in _eeprom_temp: [wreg+status,2+status,0+pclath+cstack]
  6175                           	line	461
  6176                           	
  6177  0C00                     i1l5647:	
  6178                           ;test.c: 461: value = temperature ;
  6179  0C00  1683               	bsf	status, 5	;RP0=1, select bank1
  6180  0C01  1303               	bcf	status, 6	;RP1=0, select bank1
  6181  0C02  0833               	movf	(_temperature)^080h,w
  6182  0C03  00F4               	movwf	(??_eeprom_temp+0)+0
  6183  0C04  0874               	movf	(??_eeprom_temp+0)+0,w
  6184  0C05  00E6               	movwf	(_value)^080h
  6185                           	line	462
  6186                           	
  6187  0C06                     i1l5649:	
  6188                           ;test.c: 462: eeprom_write(address, value );
  6189  0C06  0866               	movf	(_value)^080h,w
  6190  0C07  00F4               	movwf	(??_eeprom_temp+0)+0
  6191  0C08  0874               	movf	(??_eeprom_temp+0)+0,w
  6192  0C09  00F1               	movwf	(?_eeprom_write)
  6193  0C0A  085A               	movf	(_address)^080h,w
  6194  0C0B  120A  158A  242B   	fcall	_eeprom_write
              120A  158A         
  6195                           	line	463
  6196                           	
  6197  0C10                     i1l5651:	
  6198                           ;test.c: 463: eeprom_write(255, address );
  6199  0C10  1683               	bsf	status, 5	;RP0=1, select bank1
  6200  0C11  1303               	bcf	status, 6	;RP1=0, select bank1
  6201  0C12  085A               	movf	(_address)^080h,w
  6202  0C13  00F4               	movwf	(??_eeprom_temp+0)+0
  6203  0C14  0874               	movf	(??_eeprom_temp+0)+0,w
  6204  0C15  00F1               	movwf	(?_eeprom_write)
  6205  0C16  30FF               	movlw	(0FFh)
  6206  0C17  120A  158A  242B   	fcall	_eeprom_write
              120A  158A         
  6207                           	line	464
  6208                           	
  6209  0C1C                     i1l5653:	
  6210                           ;test.c: 464: address ++ ;
  6211  0C1C  3001               	movlw	(01h)
  6212  0C1D  00F4               	movwf	(??_eeprom_temp+0)+0
  6213  0C1E  0874               	movf	(??_eeprom_temp+0)+0,w
  6214  0C1F  1683               	bsf	status, 5	;RP0=1, select bank1
  6215  0C20  1303               	bcf	status, 6	;RP1=0, select bank1
  6216  0C21  07DA               	addwf	(_address)^080h,f
  6217                           	line	465
  6218                           	
  6219  0C22                     i1l5655:	
  6220                           ;test.c: 465: if(address == 255) address = 0;
  6221  0C22  085A               	movf	(_address)^080h,w
  6222  0C23  3AFF               	xorlw	0FFh
  6223  0C24  1D03               	skipz
  6224  0C25  2C27               	goto	u381_21
  6225  0C26  2C28               	goto	u381_20
  6226  0C27                     u381_21:
  6227  0C27  2C2A               	goto	i1l991
  6228  0C28                     u381_20:
  6229                           	
  6230  0C28                     i1l5657:	
  6231  0C28  01DA               	clrf	(_address)^080h
  6232  0C29  2C2A               	goto	i1l991
  6233                           	
  6234  0C2A                     i1l990:	
  6235                           	line	467
  6236                           	
  6237  0C2A                     i1l991:	
  6238  0C2A  0008               	return
  6239                           	opt stack 0
  6240                           GLOBAL	__end_of_eeprom_temp
  6241  0C2B                     	__end_of_eeprom_temp:
  6242 ;; =============== function _eeprom_temp ends ============
  6243                           
  6244                           	signat	_eeprom_temp,88
  6245                           	global	___lwmod
  6246                           psect	text406,local,class=CODE,delta=2
  6247                           global __ptext406
  6248  0C5C                     __ptext406:
  6249                           
  6250 ;; *************** function ___lwmod *****************
  6251 ;; Defined at:
  6252 ;;		line 5 in file "C:\Program Files (x86)\HI-TECH Software\PICC\9.83\sources\lwmod.c"
  6253 ;; Parameters:    Size  Location     Type
  6254 ;;  divisor         2    0[COMMON] unsigned int 
  6255 ;;  dividend        2    2[COMMON] unsigned int 
  6256 ;; Auto vars:     Size  Location     Type
  6257 ;;  counter         1    5[COMMON] unsigned char 
  6258 ;; Return value:  Size  Location     Type
  6259 ;;                  2    0[COMMON] unsigned int 
  6260 ;; Registers used:
  6261 ;;		wreg, status,2, status,0
  6262 ;; Tracked objects:
  6263 ;;		On entry : 0/0
  6264 ;;		On exit  : 0/0
  6265 ;;		Unchanged: 0/0
  6266 ;; Data sizes:     COMMON   BANK0   BANK1   BANK3   BANK2
  6267 ;;      Params:         4       0       0       0       0
  6268 ;;      Locals:         1       0       0       0       0
  6269 ;;      Temps:          1       0       0       0       0
  6270 ;;      Totals:         6       0       0       0       0
  6271 ;;Total ram usage:        6 bytes
  6272 ;; Hardware stack levels used:    1
  6273 ;; This function calls:
  6274 ;;		Nothing
  6275 ;; This function is called by:
  6276 ;;		_isr
  6277 ;;		_printf
  6278 ;; This function uses a non-reentrant model
  6279 ;;
  6280                           psect	text406
  6281                           	file	"C:\Program Files (x86)\HI-TECH Software\PICC\9.83\sources\lwmod.c"
  6282                           	line	5
  6283                           	global	__size_of___lwmod
  6284  0044                     	__size_of___lwmod	equ	__end_of___lwmod-___lwmod
  6285                           	
  6286  0C5C                     ___lwmod:	
  6287                           	opt	stack 4
  6288                           ; Regs used in ___lwmod: [wreg+status,2+status,0]
  6289                           	line	8
  6290                           	
  6291  0C5C                     i1l5943:	
  6292  0C5C  0872               	movf	(___lwmod@divisor+1),w
  6293  0C5D  0471               	iorwf	(___lwmod@divisor),w
  6294  0C5E  1903               	skipnz
  6295  0C5F  2C61               	goto	u449_21
  6296  0C60  2C62               	goto	u449_20
  6297  0C61                     u449_21:
  6298  0C61  2C98               	goto	i1l5961
  6299  0C62                     u449_20:
  6300                           	line	9
  6301                           	
  6302  0C62                     i1l5945:	
  6303  0C62  01F6               	clrf	(___lwmod@counter)
  6304  0C63  1403               	bsf	status,0
  6305  0C64  0DF6               	rlf	(___lwmod@counter),f
  6306                           	line	10
  6307  0C65  2C72               	goto	i1l5951
  6308                           	
  6309  0C66                     i1l3065:	
  6310                           	line	11
  6311                           	
  6312  0C66                     i1l5947:	
  6313  0C66  3001               	movlw	01h
  6314                           	
  6315  0C67                     u450_25:
  6316  0C67  1003               	clrc
  6317  0C68  0DF1               	rlf	(___lwmod@divisor),f
  6318  0C69  0DF2               	rlf	(___lwmod@divisor+1),f
  6319  0C6A  3EFF               	addlw	-1
  6320  0C6B  1D03               	skipz
  6321  0C6C  2C67               	goto	u450_25
  6322                           	line	12
  6323                           	
  6324  0C6D                     i1l5949:	
  6325  0C6D  3001               	movlw	(01h)
  6326  0C6E  00F5               	movwf	(??___lwmod+0)+0
  6327  0C6F  0875               	movf	(??___lwmod+0)+0,w
  6328  0C70  07F6               	addwf	(___lwmod@counter),f
  6329  0C71  2C72               	goto	i1l5951
  6330                           	line	13
  6331                           	
  6332  0C72                     i1l3064:	
  6333                           	line	10
  6334                           	
  6335  0C72                     i1l5951:	
  6336  0C72  1FF2               	btfss	(___lwmod@divisor+1),(15)&7
  6337  0C73  2C75               	goto	u451_21
  6338  0C74  2C76               	goto	u451_20
  6339  0C75                     u451_21:
  6340  0C75  2C66               	goto	i1l5947
  6341  0C76                     u451_20:
  6342  0C76  2C78               	goto	i1l5953
  6343                           	
  6344  0C77                     i1l3066:	
  6345  0C77  2C78               	goto	i1l5953
  6346                           	line	14
  6347                           	
  6348  0C78                     i1l3067:	
  6349                           	line	15
  6350                           	
  6351  0C78                     i1l5953:	
  6352  0C78  0872               	movf	(___lwmod@divisor+1),w
  6353  0C79  0274               	subwf	(___lwmod@dividend+1),w
  6354  0C7A  1D03               	skipz
  6355  0C7B  2C7E               	goto	u452_25
  6356  0C7C  0871               	movf	(___lwmod@divisor),w
  6357  0C7D  0273               	subwf	(___lwmod@dividend),w
  6358  0C7E                     u452_25:
  6359  0C7E  1C03               	skipc
  6360  0C7F  2C81               	goto	u452_21
  6361  0C80  2C82               	goto	u452_20
  6362  0C81                     u452_21:
  6363  0C81  2C89               	goto	i1l5957
  6364  0C82                     u452_20:
  6365                           	line	16
  6366                           	
  6367  0C82                     i1l5955:	
  6368  0C82  0871               	movf	(___lwmod@divisor),w
  6369  0C83  02F3               	subwf	(___lwmod@dividend),f
  6370  0C84  0872               	movf	(___lwmod@divisor+1),w
  6371  0C85  1C03               	skipc
  6372  0C86  03F4               	decf	(___lwmod@dividend+1),f
  6373  0C87  02F4               	subwf	(___lwmod@dividend+1),f
  6374  0C88  2C89               	goto	i1l5957
  6375                           	
  6376  0C89                     i1l3068:	
  6377                           	line	17
  6378                           	
  6379  0C89                     i1l5957:	
  6380  0C89  3001               	movlw	01h
  6381                           	
  6382  0C8A                     u453_25:
  6383  0C8A  1003               	clrc
  6384  0C8B  0CF2               	rrf	(___lwmod@divisor+1),f
  6385  0C8C  0CF1               	rrf	(___lwmod@divisor),f
  6386  0C8D  3EFF               	addlw	-1
  6387  0C8E  1D03               	skipz
  6388  0C8F  2C8A               	goto	u453_25
  6389                           	line	18
  6390                           	
  6391  0C90                     i1l5959:	
  6392  0C90  3001               	movlw	low(01h)
  6393  0C91  02F6               	subwf	(___lwmod@counter),f
  6394  0C92  1D03               	btfss	status,2
  6395  0C93  2C95               	goto	u454_21
  6396  0C94  2C96               	goto	u454_20
  6397  0C95                     u454_21:
  6398  0C95  2C78               	goto	i1l5953
  6399  0C96                     u454_20:
  6400  0C96  2C98               	goto	i1l5961
  6401                           	
  6402  0C97                     i1l3069:	
  6403  0C97  2C98               	goto	i1l5961
  6404                           	line	19
  6405                           	
  6406  0C98                     i1l3063:	
  6407                           	line	20
  6408                           	
  6409  0C98                     i1l5961:	
  6410  0C98  0874               	movf	(___lwmod@dividend+1),w
  6411  0C99  01F2               	clrf	(?___lwmod+1)
  6412  0C9A  07F2               	addwf	(?___lwmod+1)
  6413  0C9B  0873               	movf	(___lwmod@dividend),w
  6414  0C9C  01F1               	clrf	(?___lwmod)
  6415  0C9D  07F1               	addwf	(?___lwmod)
  6416                           
  6417  0C9E  2C9F               	goto	i1l3070
  6418                           	
  6419  0C9F                     i1l5963:	
  6420                           	line	21
  6421                           	
  6422  0C9F                     i1l3070:	
  6423  0C9F  0008               	return
  6424                           	opt stack 0
  6425                           GLOBAL	__end_of___lwmod
  6426  0CA0                     	__end_of___lwmod:
  6427 ;; =============== function ___lwmod ends ============
  6428                           
  6429                           	signat	___lwmod,8314
  6430                           	global	_eeprom_write
  6431                           psect	text407,local,class=CODE,delta=2
  6432                           global __ptext407
  6433  0C2B                     __ptext407:
  6434                           
  6435 ;; *************** function _eeprom_write *****************
  6436 ;; Defined at:
  6437 ;;		line 7 in file "C:\Program Files (x86)\HI-TECH Software\PICC\9.83\sources\eewrite.c"
  6438 ;; Parameters:    Size  Location     Type
  6439 ;;  addr            1    wreg     unsigned char 
  6440 ;;  value           1    0[COMMON] unsigned char 
  6441 ;; Auto vars:     Size  Location     Type
  6442 ;;  addr            1    2[COMMON] unsigned char 
  6443 ;; Return value:  Size  Location     Type
  6444 ;;                  1    wreg      unsigned char 
  6445 ;; Registers used:
  6446 ;;		wreg, status,2, status,0
  6447 ;; Tracked objects:
  6448 ;;		On entry : 0/0
  6449 ;;		On exit  : 0/0
  6450 ;;		Unchanged: 0/0
  6451 ;; Data sizes:     COMMON   BANK0   BANK1   BANK3   BANK2
  6452 ;;      Params:         1       0       0       0       0
  6453 ;;      Locals:         1       0       0       0       0
  6454 ;;      Temps:          1       0       0       0       0
  6455 ;;      Totals:         3       0       0       0       0
  6456 ;;Total ram usage:        3 bytes
  6457 ;; Hardware stack levels used:    1
  6458 ;; This function calls:
  6459 ;;		Nothing
  6460 ;; This function is called by:
  6461 ;;		_eeprom_temp
  6462 ;; This function uses a non-reentrant model
  6463 ;;
  6464                           psect	text407
  6465                           	file	"C:\Program Files (x86)\HI-TECH Software\PICC\9.83\sources\eewrite.c"
  6466                           	line	7
  6467                           	global	__size_of_eeprom_write
  6468  0031                     	__size_of_eeprom_write	equ	__end_of_eeprom_write-_eeprom_write
  6469                           	
  6470  0C2B                     _eeprom_write:	
  6471                           	opt	stack 3
  6472                           ; Regs used in _eeprom_write: [wreg+status,2+status,0]
  6473                           ;eeprom_write@addr stored from wreg
  6474  0C2B  00F3               	movwf	(eeprom_write@addr)
  6475                           	line	8
  6476                           	
  6477  0C2C                     i1l2357:	
  6478  0C2C  2C2D               	goto	i1l2358
  6479                           	
  6480  0C2D                     i1l2359:	
  6481                           	
  6482  0C2D                     i1l2358:	
  6483  0C2D  1683               	bsf	status, 5	;RP0=1, select bank3
  6484  0C2E  1703               	bsf	status, 6	;RP1=1, select bank3
  6485  0C2F  188C               	btfsc	(3169/8)^0180h,(3169)&7
  6486  0C30  2C32               	goto	u382_21
  6487  0C31  2C33               	goto	u382_20
  6488  0C32                     u382_21:
  6489  0C32  2C2D               	goto	i1l2358
  6490  0C33                     u382_20:
  6491  0C33  2C34               	goto	i1l5659
  6492                           	
  6493  0C34                     i1l2360:	
  6494                           	
  6495  0C34                     i1l5659:	
  6496  0C34  0873               	movf	(eeprom_write@addr),w
  6497  0C35  1283               	bcf	status, 5	;RP0=0, select bank2
  6498  0C36  1703               	bsf	status, 6	;RP1=1, select bank2
  6499  0C37  008D               	movwf	(269)^0100h	;volatile
  6500  0C38  0871               	movf	(eeprom_write@value),w
  6501  0C39  008C               	movwf	(268)^0100h	;volatile
  6502                           	
  6503  0C3A                     i1l5661:	
  6504  0C3A  303F               	movlw	(03Fh)
  6505  0C3B  00F2               	movwf	(??_eeprom_write+0)+0
  6506  0C3C  0872               	movf	(??_eeprom_write+0)+0,w
  6507  0C3D  1683               	bsf	status, 5	;RP0=1, select bank3
  6508  0C3E  1703               	bsf	status, 6	;RP1=1, select bank3
  6509  0C3F  058C               	andwf	(396)^0180h,f	;volatile
  6510                           	
  6511  0C40                     i1l5663:	
  6512  0C40  1283               	bcf	status, 5	;RP0=0, select bank0
  6513  0C41  1303               	bcf	status, 6	;RP1=0, select bank0
  6514  0C42  1003               	bcf	(24/8),(24)&7
  6515                           	
  6516  0C43                     i1l5665:	
  6517  0C43  1F8B               	btfss	(95/8),(95)&7
  6518  0C44  2C46               	goto	u383_21
  6519  0C45  2C47               	goto	u383_20
  6520  0C46                     u383_21:
  6521  0C46  2C48               	goto	i1l2361
  6522  0C47                     u383_20:
  6523                           	
  6524  0C47                     i1l5667:	
  6525  0C47  1403               	bsf	(24/8),(24)&7
  6526                           	
  6527  0C48                     i1l2361:	
  6528  0C48  138B               	bcf	(95/8),(95)&7
  6529  0C49  1683               	bsf	status, 5	;RP0=1, select bank3
  6530  0C4A  1703               	bsf	status, 6	;RP1=1, select bank3
  6531  0C4B  150C               	bsf	(3170/8)^0180h,(3170)&7
  6532                           	
  6533  0C4C                     i1l5669:	
  6534  0C4C  3055               	movlw	(055h)
  6535  0C4D  008D               	movwf	(397)^0180h	;volatile
  6536  0C4E  30AA               	movlw	(0AAh)
  6537  0C4F  008D               	movwf	(397)^0180h	;volatile
  6538                           	
  6539  0C50                     i1l5671:	
  6540  0C50  148C               	bsf	(3169/8)^0180h,(3169)&7
  6541                           	
  6542  0C51                     i1l5673:	
  6543  0C51  110C               	bcf	(3170/8)^0180h,(3170)&7
  6544                           	
  6545  0C52                     i1l5675:	
  6546  0C52  1283               	bcf	status, 5	;RP0=0, select bank0
  6547  0C53  1303               	bcf	status, 6	;RP1=0, select bank0
  6548  0C54  1C03               	btfss	(24/8),(24)&7
  6549  0C55  2C57               	goto	u384_21
  6550  0C56  2C58               	goto	u384_20
  6551  0C57                     u384_21:
  6552  0C57  2C5B               	goto	i1l2364
  6553  0C58                     u384_20:
  6554                           	
  6555  0C58                     i1l5677:	
  6556  0C58  178B               	bsf	(95/8),(95)&7
  6557  0C59  2C5B               	goto	i1l2364
  6558                           	
  6559  0C5A                     i1l2362:	
  6560  0C5A  2C5B               	goto	i1l2364
  6561                           	
  6562  0C5B                     i1l2363:	
  6563                           	line	10
  6564                           ;	Return value of _eeprom_write is never used
  6565                           	
  6566  0C5B                     i1l2364:	
  6567  0C5B  0008               	return
  6568                           	opt stack 0
  6569                           GLOBAL	__end_of_eeprom_write
  6570  0C5C                     	__end_of_eeprom_write:
  6571 ;; =============== function _eeprom_write ends ============
  6572                           
  6573                           	signat	_eeprom_write,8313
  6574                           	global	_nop
  6575                           psect	text408,local,class=CODE,delta=2
  6576                           global __ptext408
  6577  0BA3                     __ptext408:
  6578                           
  6579 ;; *************** function _nop *****************
  6580 ;; Defined at:
  6581 ;;		line 96 in file "F:\ELECTRONIC\2015\Projects\New folder\init_sys.h"
  6582 ;; Parameters:    Size  Location     Type
  6583 ;;		None
  6584 ;; Auto vars:     Size  Location     Type
  6585 ;;		None
  6586 ;; Return value:  Size  Location     Type
  6587 ;;		None               void
  6588 ;; Registers used:
  6589 ;;		None
  6590 ;; Tracked objects:
  6591 ;;		On entry : 0/0
  6592 ;;		On exit  : 0/0
  6593 ;;		Unchanged: 0/0
  6594 ;; Data sizes:     COMMON   BANK0   BANK1   BANK3   BANK2
  6595 ;;      Params:         0       0       0       0       0
  6596 ;;      Locals:         0       0       0       0       0
  6597 ;;      Temps:          0       0       0       0       0
  6598 ;;      Totals:         0       0       0       0       0
  6599 ;;Total ram usage:        0 bytes
  6600 ;; Hardware stack levels used:    1
  6601 ;; This function calls:
  6602 ;;		Nothing
  6603 ;; This function is called by:
  6604 ;;		_isr
  6605 ;;		_calculate
  6606 ;; This function uses a non-reentrant model
  6607 ;;
  6608                           psect	text408
  6609                           	file	"F:\ELECTRONIC\2015\Projects\New folder\init_sys.h"
  6610                           	line	96
  6611                           	global	__size_of_nop
  6612  0001                     	__size_of_nop	equ	__end_of_nop-_nop
  6613                           	
  6614  0BA3                     _nop:	
  6615                           	opt	stack 4
  6616                           ; Regs used in _nop: []
  6617                           	line	97
  6618                           	
  6619  0BA3                     i1l817:	
  6620  0BA3  0008               	return
  6621                           	opt stack 0
  6622                           GLOBAL	__end_of_nop
  6623  0BA4                     	__end_of_nop:
  6624 ;; =============== function _nop ends ============
  6625                           
  6626                           	signat	_nop,88
  6627                           psect	text409,local,class=CODE,delta=2
  6628                           global __ptext409
  6629  0000                     __ptext409:
  6630                           	global	btemp
  6631  007E                     	btemp set 07Eh
  6632                           
  6633                           	DABS	1,126,2	;btemp
  6634                           	global	wtemp0
  6635  007E                     	wtemp0 set btemp


HI-TECH Software PICC Macro Assembler V9.83 build 10920 
Symbol Table                                                                                   Fri Jun 05 08:27:10 2015

                      _i 007D                        _j 00DC                        _v 00DE  
                      _w 00DF                        _x 00E0                        _y 00E1  
                      _z 00E2                        pc 0002                       _GO 00FA  
                     _RD 0C60                       _WR 0C61                       _rc 00AA  
                     fsr 0004                      l802 0BAF                      l900 04F4  
                    l820 0F1A                      l901 04E7                      l821 0232  
                    l814 0BDA                      l910 057E                      l902 051A  
                    l830 0FAE                      l822 0F22                      l911 0591  
                    l903 0535                      l823 00FC                      l831 0FDA  
                    l920 069C                      l912 0584                      l904 0528  
                    l840 01AD                      l832 0FF8                      l824 0FEE  
                    l921 0616                      l913 05B0                      l905 055B  
                    l841 0125                      l833 008C                      l825 0F6E  
                    l930 06BB                      l922 0629                      l914 05CB  
                    l850 01BF                      l842 0138                      l834 007F  
                    l826 0F81                      l931 0734                      l923 061C  
                    l915 05BE                      l907 057C                      l851 01EB  
                    l843 012B                      l835 00B2                      l827 0F74  
                    l940 0752                      l932 06BC                      l924 064F  
                    l916 05EA                      l908 057D                      l860 025E  
                    l852 0206                      l844 015E                      l836 00CD  
                    l828 0FA0                      l941 0753                      l933 06CF  
                    l925 066A                      l909 05F6                      l861 0251  
                    l853 01F9                      l845 0179                      l837 00C0  
                    l829 0FBB                      l942 07DA                      l934 06C2  
                    l926 065D                      l918 0614                      l870 02FF  
                    l862 027D                      l854 0225                      l846 016C  
                    l838 00F3                      l783 0D33                      l951 07FA  
                    l943 0754                      l935 06EE                      l927 0690  
                    l919 0615                      l871 032B                      l863 0298  
                    l839 0231                      l847 019F                      l960 0061  
                    l952 07FB                      l944 0767                      l936 0709  
                    l880 03A2                      l864 028B                      l856 0249  
                    l848 01B7                      l777 0EF4                      l961 006F  
                    l953 07FC                      l945 075A                      l937 06FC  
                    l929 06BA                      l881 0395                      l873 034C  
                    l865 02B7                      l857 024A                      l849 01CC  
                    l970 0CE5                      l962 007E                      l954 07FD  
                    l946 078D                      l938 0728                      l890 046B  
                    l882 03C8                      l874 034D                      l858 0337  
                    l866 02D2                      l963 007D                      l955 07FD  
                    l947 07A8                      l891 046C                      l875 0456  
                    l883 03E3                      l867 02C5                      l859 024B  
                    l964 007E                      l948 079B                      l892 0567  
                    l884 03D6                      l876 034E                      l868 02F1  
                    l949 07CE                      l893 046D                      l885 0409  
                    l877 0361                      l869 030C                      l958 0053  
                    l894 0480                      l886 0424                      l878 0354  
                    l799 0BC4                      l967 0CC0                      l959 0061  
                    l895 0473                      l887 0417                      l879 0387  
                    l968 0CC0                      l896 049F                      l888 044A  
                    l969 0CC5                      l897 04BA                      l898 04AD  
                    l899 04D9                      _GIE 005F                      _RC2 003A  
                    _RB4 0034                      _RB5 0035                      _RD2 0042  
                    _RD3 0043                      _RD4 0044                      _RD5 0045  
                    _RD6 0046                      _RD7 0047                      _RX9 00C6  
                    _TX9 04C6                      _isr 0D84                      _nop 0BA3  
                    fsr0 0004                      indf 0000              main@du_1331 003A  
            main@du_1340 004C              main@du_1332 003C              main@du_1341 004E  
            main@du_1333 003E              main@du_1350 0060              main@du_1342 0050  
            main@du_1334 0040              main@du_1351 0062              main@du_1343 0052  
            main@du_1335 0042              main@du_1327 0032              main@du_1352 0064  
            main@du_1344 0054              main@du_1336 0044              main@du_1328 0034  
            main@du_1353 0066              main@du_1345 0056              main@du_1337 0046  
            main@du_1329 0036              main@du_1354 0068              main@du_1346 0058  
            main@du_1338 0048              main@du_1347 005A              main@du_1339 004A  
            main@du_1348 005C              main@du_1349 005E                     l3060 0D83  
                   l3053 0D7C                     l3054 0D4E                     l3055 0D42  
                   l3056 0D53                     l3057 0D54                     l3058 0D6D  
                   l3059 0D7B                     l6101 0E3F                     l6111 0E74  
                   l6103 0E44                     l6121 0EAF                     l6113 0E7F  
                   l6105 0E4F                     l6201 0FE0                     l6131 0EE4  
                   l6123 0EB7                     l6115 0E87                     l6107 0E57  
                   l6211 008C                     l6203 0FE5                     l5501 0D26  
                   l6133 0EE9                     l6125 0ECF                     l6117 0E9F  
                   l6109 0E6F                     l6141 0CB6                     l6301 0342  
                   l6221 00F4                     l6213 00B3                     l6205 0FEE  
                   l5503 0D2A                     l6127 0ED4                     l6119 0EA4  
                   l6151 0CE5                     l6143 0CB7                     l6135 0CA3  
                   l6311 038D                     l6303 034F                     l6231 0138  
                   l6215 00B8                     l6207 0FF9                     l6223 00FC  
                   l5505 0D31                     l6129 0EDF                     l6145 0CBC  
                   l6137 0CB0                     l6161 005C                     l6153 001D  
                   l6401 060A                     l6321 03D6                     l6313 0395  
                   l6305 0354                     l6241 01A0                     l6233 015F  
                   l6225 0122                     l6217 00C0                     l6209 007F  
                   l5507 0D32                     l6147 0CC5                     l6139 0CB3  
                   l6163 006A                     l6155 0045                     l6411 0655  
                   l6403 0617                     l6331 0424                     l6323 03E3  
                   l6315 03A2                     l6307 0361                     l6251 01F1  
                   l6243 01B8                     l6235 0164                     l6227 0126  
                   l6219 00CD                     l6171 0EFF                     l6149 0CDE  
                   l6165 006F                     l6157 004E                     l6413 065D  
                   l6405 061C                     l6421 069C                     l6341 046E  
                   l6333 044B                     l6325 040A                     l6317 03C9  
                   l6309 0388                     l6253 01F9                     l6245 01BF  
                   l6237 016C                     l6229 012B                     l6181 0F47  
                   l6261 0232                     l6173 0F02                     l6167 0078  
                   l6159 0053                     l6431 06CF                     l6423 06A7  
                   l6415 066A                     l6407 0629                     l6351 04AD  
                   l6343 0473                     l6335 0450                     l6327 040F  
                   l6319 03CE                     l6271 027E                     l6263 023D  
                   l6255 0206                     l6247 01CC                     l6239 0179  
                   l6191 0FA1                     l6183 0F6B                     l6175 0F05  
                   l5561 0BB0                     l6097 0E36                     l6441 0729  
                   l6433 06EF                     l6425 06B0                     l6417 0691  
                   l6409 0650                     l6361 04F4                     l6353 04BA  
                   l6345 0480                     l6329 0417                     l6337 0456  
                   l6281 02BD                     l6273 0283                     l6265 024C  
                   l6257 0226                     l6249 01EC                     l6193 0FA6  
                   l6185 0F6F                     l6177 0F08                     l6169 0EF5  
                   l5563 0BB4                     l5571 0BA7                     l6099 0E39  
                   l6451 0755                     l6443 072E                     l6435 06F4  
                   l6427 06BD                     l6419 0696                     l6371 055C  
                   l6363 051B                     l6355 04DA                     l6347 04A0  
                   l6339 0461                     l6291 02FF                     l6283 02C5  
                   l6275 028B                     l6267 0251                     l6259 022B  
                   l6195 0FAE                     l6187 0F74                     l6179 0F22  
                   l5493 0CE6                     l5565 0BB7                     l5581 0BD0  
                   l5573 0BC5                     l6461 079B                     l6453 075A  
                   l6437 06FC                     l6429 06C2                     l6445 0734  
                   l6381 0584                     l6373 0561                     l6365 0520  
                   l6357 04DF                     l6349 04A5                     l6293 030C  
                   l6285 02D2                     l6277 0298                     l6269 025E  
                   l6197 0FBB                     l6189 0F81                     l5495 0D19  
                   l5567 0BBA                     l5591 0BD9                     l5583 0BD3  
                   l5575 0BCB                     l6471 07E7                     l6463 07A8  
                   l6455 0767                     l6447 073F                     l6439 0709  
                   l6391 05CB                     l6383 0591                     l6367 0528  
                   l6359 04E7                     l6375 0567                     l6295 032C  
                   l6287 02F2                     l6279 02B8                     l6199 0FDB  
                   l5497 0D1E                     l5569 0BBD                     l5585 0BD4  
                   l5577 0BCE                     l5921 0D3E                     l6473 07F0  
                   l6465 07CF                     l6457 078E                     l6449 0748  
                   l6393 05EB                     l6385 05B1                     l6377 0572  
                   l6369 0535                     l6297 0331                     l6289 02F7  
                   l5499 0D25                     l5587 0BD5                     l5579 0BCF  
                   l5931 0D65                     l5923 0D42                     l6467 07D4  
                   l6459 0793                     l6395 05F0                     l6387 05B6  
                   l6379 057F                     l6299 0337                     ?_isr 0071  
                   l5589 0BD8                     l5941 0D83                     l5933 0D6B  
                   l5925 0D49                     l5917 0D34                     l6469 07DA  
                   l6389 05BE                     l6397 05F6                     l5935 0D6D  
                   l5927 0D4E                     l5919 0D38                     l6399 0601  
                   l5937 0D74                     l5929 0D54                     l5939 0D7C  
                   ?_nop 0071                     _ADON 00F8                     STR_1 0824  
                   STR_2 0836                     STR_4 0848                     STR_6 0810  
                   _BRGH 04C2                     _CREN 00C4                     u5000 0FDA  
                   u5001 0FD9                     u5010 0FF8                     u5011 0FF7  
                   u5100 0248                     u5020 00B2                     u5101 0245  
                   u5021 00B1                     u5005 0FD6                     u5110 027D  
                   u5030 00F3                     u5111 027C                     u5031 00F2  
                   u5015 0FF4                     u5200 044A                     u5120 02B7  
                   u5040 015E                     u5201 0449                     u5121 02B6  
                   u5041 015D                     u5025 00AE                     u5210 0461  
                   u5130 02F1                     u5050 019F                     u5211 0460  
                   u5131 02F0                     u5115 0279                     u5051 019E  
                   u5035 00EF                     u4420 0D3E                     u5300 05EA  
                   u5220 046A                     u5140 032B                     u5060 01B7  
                   u4421 0D3D                     u5301 05E9                     u5221 0469  
                   u5205 0446                     u5141 032A                     u5125 02B3  
                   u5061 01B6                     u5045 015A                     u5310 0601  
                   u5230 049F                     u5150 0342                     u5070 01EB  
                   u6007 072B                     u5311 0600                     u5231 049E  
                   u5151 0341                     u5135 02ED                     u5071 01EA  
                   u5055 019B                     u4440 0D52                     u5400 0728  
                   u5320 060A                     u5240 04D9                     u5160 034B  
                   u5080 0225                     u3625 0CED                     u4441 0D51  
                   u6017 075C                     u5401 0727                     u5321 0609  
                   u5305 05E6                     u5241 04D8                     u5161 034A  
                   u5145 0327                     u5081 0224                     u5065 01B3  
                   u5410 073F                     u5330 0613                     u5250 051A  
                   u5170 0387                     u5090 023D                     u3635 0CFD  
                   u4435 0D43                     u6107 0EAA                     u6027 0790  
                   u5411 073E                     u5331 0612                     u5251 0519  
                   u5235 049B                     u5171 0386                     u5091 023C  
                   u5075 01E7                     _PEIE 005E                     u4460 0D65  
                   u5420 0748                     u5340 064F                     u5260 055B  
                   u5180 03C8                     u3645 0D0E                     u4461 0D64  
                   u6117 0EC2                     u6037 079D                     u5421 0747  
                   u5405 0724                     u5341 064E                     u5261 055A  
                   u5245 04D5                     u5181 03C7                     u5085 0221  
                   u5430 0751                     u5350 0690                     u5270 0572  
                   u5190 0409                     u4455 0D55                     u6127 0EDA  
                   u6047 07D1                     u5431 0750                     u5351 068F  
                   u5271 0571                     u5255 0516                     u5191 0408  
                   u5175 0383                     u4480 0D7A                     u5440 078D  
                   u5360 06A7                     u5280 057B                     u4481 0D79  
                   u4465 0D61                     u6137 0EEF                     u6057 0CB9  
                   u5441 078C                     u5361 06A6                     u5345 064B  
                   u5281 057A                     u5265 0557                     u5185 03C4  
                   u5450 07CE                     u5370 06B0                     u5290 05B0  
                   u4475 0D6E                     u6067 0E4A                     u5451 07CD  
                   u5371 06AF                     u5355 068C                     u5291 05AF  
                   u5195 0405                     u5507 0FA3                     _RCIE 0465  
                   u5460 07E7                     u5380 06B9                     _RCIF 0065  
                   u6077 0E62                     u5461 07E4                     u5445 0789  
                   u5381 06B8                     u5517 0FB0                     u5470 07F0  
                   u5390 06EE                     u6087 0E7A                     u5471 07EF  
                   u5455 07CA                     u5391 06ED                     u5295 05AC  
                   u5607 01A2                     u5527 0FDD                     u5480 07F9  
                   u6097 0E92                     u5481 07F8                     u5617 01C1  
                   u5537 0081                     u4930 0CC4                     u4931 0CC3  
                   u5395 06EA                     u5707 02F4                     u5627 01EE  
                   u5547 00B5                     u4940 004E                     u4925 0CA6  
                   u4941 004D                     u5717 0301                     u5637 01FB  
                   u5557 00C2                     u4950 005C                     u4951 005B  
                   u5807 044D                     u5727 032E                     u5647 0228  
                   u5567 00F6                     u4960 006A                     u4961 0069  
                   u5817 0475                     u5737 0356                     u5657 0253  
                   u5577 012D                     u5497 0F76                     u4970 0078  
                   u4971 0077                     u5907 05B3                     u5827 04A2  
                   u5747 038A                     u5667 0280                     u5587 0161  
                   u4980 0F47                     u5917 05C0                     u5837 04AF  
                   u5757 0397                     u5677 028D                     u5597 016E  
                   u4981 0F44                     u4990 0FA0                     u5927 05ED  
                   u5847 04DC                     u5767 03CB                     u5687 02BA  
                   u4991 0F9F                     u5937 061E                     u5857 04E9  
                   u5777 03D8                     u5697 02C7                     u4985 0F41  
                   u5947 0652                     u5867 051D                     u5787 040C  
                   u4995 0F9C                     u5957 065F                     u5877 052A  
                   u5797 0419                     u5967 0693                     u5887 055E  
                   u5977 06C4                     u5897 0586                     u5987 06F1  
                   u5997 06FE                     _SPEN 00C7                     _TXIE 0464  
                   _WREN 0C62                     _TXEN 04C5                     _TXIF 0064  
                   _SYNC 04C4           ??_eeprom_write 0072                     _main 0EF5  
                   _hour 00BC                     btemp 007E                     start 0012  
                  ??_isr 0077                    ??_nop 0071                    ?_main 0071  
                  _EEADR 010D                    _CARRY 0018          __end_of___lwdiv 0D84  
        __end_of___lwmod 0CA0                    i1l817 0BA3                    i1l980 0DE7  
                  i1l981 0DE6                    i1l990 0C2A                    i1l982 0E29  
                  i1l991 0C2A                    i1l983 0E07                    i1l976 0DF0  
                  i1l985 0E03                    i1l977 0DE8                    i1l986 0E23  
                  i1l978 0DE8                    i1l987 0E29                    i1l979 0DD3  
                  _RCREG 001A                    _TMR1H 000F                    _TMR1L 000E  
                  _SPBRG 0099                    _PORTA 0005                    _PORTB 0006  
                  _PORTC 0007                    _PORTD 0008                    _PORTE 0009  
                  _TRISA 0085                    _TRISB 0086                    _TRISC 0087  
                  _TRISD 0088                    _TRISE 0089                    _TXREG 0019  
        __end_of_lcd_add 0D34                    _value 00E6                    main@i 002E  
                  pclath 000A                    status 0003                    wtemp0 007E  
       __end_of_a2d_read 007F             __end_of_main 0800                   ??_main 0028  
                 _ADCON0 001F                   _ADCON1 009F                   _ADRESH 001E  
                 _ADRESL 009E                   _EEDATA 010C                   _EECON1 018C  
                 _EECON2 018D                   i1l3070 0C9F                   i1l3063 0C98  
                 i1l2360 0C34                   i1l3064 0C72                   i1l2361 0C48  
                 i1l3065 0C66                   i1l2362 0C5A                   i1l3066 0C77  
                 i1l2363 0C5B                   i1l3067 0C78                   i1l2364 0C5B  
                 i1l3068 0C89                   i1l2357 0C2C                   i1l3069 0C97  
                 i1l2358 0C2D                   i1l2359 0C2D                   i1l5601 0D97  
                 i1l5611 0DAE                   i1l5603 0D9D                   i1l5621 0DDC  
                 i1l5613 0DC3                   i1l5605 0D9F                   i1l5631 0DF4  
                 i1l5623 0DDE                   i1l5615 0DC8                   i1l5607 0DA6  
                 i1l5641 0E17                   i1l5633 0DF5                   i1l5625 0DE5  
                 i1l5617 0DCD                   i1l5609 0DAC                   i1l5651 0C10  
                 i1l5643 0E1F                   i1l5635 0DFB                   i1l5627 0DEB  
                 i1l5619 0DD3                   i1l5661 0C3A                   i1l5653 0C1C  
                 i1l5645 0E23                   i1l5637 0E07                   i1l5629 0DF0  
                 i1l5671 0C50                   i1l5663 0C40                   i1l5655 0C22  
                 i1l5647 0C00                   i1l5639 0E13                   i1l5673 0C51  
                 i1l5665 0C43                   i1l5657 0C28                   i1l5649 0C06  
                 i1l5675 0C52                   i1l5667 0C47                   i1l5659 0C34  
                 i1l5677 0C58                   i1l5669 0C4C                   i1l5597 0D84  
                 i1l5951 0C72                   i1l5943 0C5C                   i1l5599 0D88  
                 i1l5953 0C78                   i1l5945 0C62                   i1l5961 0C98  
                 i1l5963 0C9F                   i1l5955 0C82                   i1l5947 0C66  
                 i1l5957 0C89                   i1l5949 0C6D                   i1l5959 0C90  
                 u450_25 0C67                   u451_20 0C76                   u451_21 0C75  
                 u452_20 0C82                   u380_20 0E1F                   u372_20 0D88  
                 u452_21 0C81                   u380_21 0E1E                   u372_21 0D87  
                 u452_25 0C7E                   u381_20 0C28                   u373_20 0D97  
                 u381_21 0C27                   u373_21 0D96                   u453_25 0C8A  
                 u382_20 0C33                   u454_20 0C96                   u374_20 0DA6  
                 u382_21 0C32                   u454_21 0C95                   u374_21 0DA5  
                 u383_20 0C47                   u375_20 0DC8                   u383_21 0C46  
                 u375_21 0DC7                   u384_20 0C58                   u376_20 0DDC  
                 u384_21 0C57                   u376_21 0DDB                   u449_20 0C62  
                 u377_20 0DF4                   u449_21 0C61                   u377_21 0DF3  
                 u378_20 0DFB                   u378_21 0DFA                   u379_20 0E03  
                 u379_21 0E02                   _TMR0IE 005D                   _TMR1IE 0460  
                 _TMR1IF 0060                   _TMR1CS 0081                   _TMR1ON 0080  
   __size_of_eeprom_temp 002B         __end_of_lcd_init 0EF5                   _bed_nu 007C  
              ??___lwdiv 0024                ??___lwmod 0075         __end_of_init_sys 0BC5  
                 _minute 00BE                   _second 00C2     __end_of_eeprom_write 0C5C  
              ??_lcd_add 0020                   _status 00C4                   main@du 0030  
                 clrloop 0016             __pdataCOMMON 007C                   saved_w 007E  
         __pcstackCOMMON 0071             __pidataBANK1 0BA4               _address_se 00DB  
             _rs232_init 0BC5                ?_a2d_read 0071        eeprom_write@value 0071  
     __size_of_atod_init 0009               __pbssBANK0 006C               __pbssBANK1 00A0  
__size_of_read_a2d_value 0046               __pmaintext 0EF5               __pintentry 0004  
             _arrTestVal 00A0                  _T1CKPS0 0084                  _T1CKPS1 0085  
                _T1OSCEN 0083               ??_a2d_read 0027                ?_lcd_init 0071  
              ?_init_sys 0071    __size_of_eeprom_write 0031        __end_of_atod_init 0BB0  
                ___lwdiv 0D34                  ___lwmod 0C5C                  _address 00DA  
                _lcd_add 0CE6                  _dpowers 0806             __size_of_isr 00B2  
           __size_of_nop 0001                  _vblAccX 006C                  _vblAccY 006E  
                _msecond 00C0              ?_rs232_init 0071               ??_lcd_init 0022  
           _lcd_data_low 00E5     end_of_initialization 0BFC             _eeprom_write 0C2B  
             ??_init_sys 0020               main@i_1330 0038           _read_a2d_value 0CA0  
          ??_eeprom_temp 0074      __size_of_rs232_init 0016            __pidataCOMMON 0BA5  
    start_initialization 0BDB              __end_of_isr 0E36              __end_of_nop 0BA4  
      __size_of_a2d_read 0062   __end_of_read_a2d_value 0CE6      __end_of_eeprom_temp 0C2B  
            __pdataBANK1 00E6            __pcstackBANK0 0020          ?_read_a2d_value 0020  
       eeprom_write@addr 0073        __size_of_lcd_init 00BF             _read_address 00DD  
              __pnvBANK1 00E3        __size_of_init_sys 0015         ___lwdiv@dividend 0022  
read_a2d_value@a2d_value 0025                __ptext400 0BC5                __ptext401 0BA7  
              __ptext402 0BB0                __ptext403 0CE6                __ptext404 0D84  
              __ptext405 0C00                __ptext406 0C5C                __ptext407 0C2B  
              __ptext408 0BA3                __ptext409 0000                __ptext396 001D  
              __ptext397 0CA0                __ptext398 0E36                __ptext399 0D34  
               ?___lwdiv 0020                 ?___lwmod 0071                _atod_init 0BA7  
              __pstrings 0800                 ?_lcd_add 0071             ??_rs232_init 0020  
  read_a2d_value@channel 0024         ___lwdiv@quotient 0025        interrupt_function 0004  
           _vblDiffXpast 00CC             _vblDiffYpast 00D0              _eeprom_temp 0C00  
     __end_of_rs232_init 0BDB               ?_atod_init 0071              __stringbase 0805  
              main@angle 006A                 _a2d_read 001D         __size_of___lwdiv 0050  
       __size_of___lwmod 0044            _temperature_1 00C6            _temperature_2 00C8  
       __size_of_lcd_add 004E          ___lwdiv@divisor 0020          ___lwdiv@counter 0027  
               _lcd_data 00E3                 _lcd_init 0E36            __size_of_main F90B  
               _init_sys 0BB0                 _vblDiffX 00CA                 _vblDiffY 00CE  
               clear_ram 0015            _lcd_data_high 00E4              ??_atod_init 0020  
            _vblSampleX1 00D2              _vblSampleX2 00D4              _vblSampleY1 00D6  
            _vblSampleY2 00D8         ??_read_a2d_value 0022             _temperature1 00B6  
           _temperature2 00B9                 intlevel1 0000         ___lwmod@dividend 0073  
              stringcode 0800              _temperature 00B3          ___lwmod@divisor 0071  
        ___lwmod@counter 0076                 stringdir 0800                 stringtab 0800  
          ?_eeprom_write 0071             ?_eeprom_temp 0071  
